

Microchip MPLAB XC8 Assembler V2.10 build 88905656 
                                                                                               Tue May 05 19:35:17 2020

Microchip MPLAB XC8 C Compiler v2.10 (Free license) build 20190730164152 Og1 
     1                           	processor	18F26K22
     2                           	fnconf	rparam,??,?,0
     3                           	opt	pw 120
     4                           	opt	flic
     5                           	psect	idataBANK0,global,class=CODE,delta=1,noexec
     6                           	psect	mediumconst,global,reloc=2,class=MEDIUMCONST,delta=1,noexec
     7                           	psect	cinit,global,reloc=2,class=CODE,delta=1
     8                           	psect	bssCOMRAM,global,class=COMRAM,space=1,delta=1,noexec
     9                           	psect	bssBANK0,global,class=BANK0,space=1,delta=1,lowdata,noexec
    10                           	psect	dataBANK0,global,class=BANK0,space=1,delta=1,lowdata,noexec
    11                           	psect	bssBANK1,global,class=BANK1,space=1,delta=1,lowdata,noexec
    12                           	psect	bssBANK2,global,class=BANK2,space=1,delta=1,lowdata,noexec
    13                           	psect	cstackBANK0,global,class=BANK0,space=1,delta=1,noexec
    14                           	psect	cstackCOMRAM,global,class=COMRAM,space=1,delta=1,noexec
    15                           	psect	text0,global,reloc=2,class=CODE,delta=1
    16                           	psect	text1,global,reloc=2,class=CODE,delta=1
    17                           	psect	text2,global,reloc=2,class=CODE,delta=1
    18                           	psect	text3,global,reloc=2,class=CODE,delta=1
    19                           	psect	text4,global,reloc=2,class=CODE,delta=1
    20                           	psect	text5,global,reloc=2,class=CODE,delta=1
    21                           	psect	text6,global,reloc=2,class=CODE,delta=1
    22                           	psect	text7,global,reloc=2,class=CODE,delta=1
    23                           	psect	text8,global,reloc=2,class=CODE,delta=1,group=2
    24                           	psect	text9,global,reloc=2,class=CODE,delta=1
    25                           	psect	text10,global,reloc=2,class=CODE,delta=1
    26                           	psect	text11,global,reloc=2,class=CODE,delta=1
    27                           	psect	text12,global,reloc=2,class=CODE,delta=1
    28                           	psect	text13,global,reloc=2,class=CODE,delta=1
    29                           	psect	text14,global,reloc=2,class=CODE,delta=1
    30                           	psect	text15,global,reloc=2,class=CODE,delta=1
    31                           	psect	text16,global,reloc=2,class=CODE,delta=1
    32                           	psect	text17,global,reloc=2,class=CODE,delta=1
    33                           	psect	text18,global,reloc=2,class=CODE,delta=1
    34                           	psect	text19,global,reloc=2,class=CODE,delta=1
    35                           	psect	text20,global,reloc=2,class=CODE,delta=1
    36                           	psect	text21,global,reloc=2,class=CODE,delta=1
    37                           	psect	text22,global,reloc=2,class=CODE,delta=1
    38                           	psect	text23,global,reloc=2,class=CODE,delta=1
    39                           	psect	text24,global,reloc=2,class=CODE,delta=1
    40                           	psect	text25,global,reloc=2,class=CODE,delta=1,group=1
    41                           	psect	text26,global,reloc=2,class=CODE,delta=1,group=1
    42                           	psect	text27,global,reloc=2,class=CODE,delta=1,group=1
    43                           	psect	text28,global,reloc=2,class=CODE,delta=1,group=1
    44                           	psect	text29,global,reloc=2,class=CODE,delta=1,group=1
    45                           	psect	text30,global,reloc=2,class=CODE,delta=1
    46                           	psect	text31,global,reloc=2,class=CODE,delta=1,group=2
    47                           	psect	text32,global,reloc=2,class=CODE,delta=1
    48                           	psect	text33,global,reloc=2,class=CODE,delta=1
    49                           	psect	text34,global,reloc=2,class=CODE,delta=1
    50                           	psect	text35,global,reloc=2,class=CODE,delta=1,group=2
    51                           	psect	text36,global,reloc=2,class=CODE,delta=1,group=2
    52                           	psect	text37,global,reloc=2,class=CODE,delta=1,group=2
    53                           	psect	text38,global,reloc=2,class=CODE,delta=1,group=2
    54                           	psect	text39,global,reloc=2,class=CODE,delta=1
    55                           	psect	text40,global,reloc=2,class=CODE,delta=1,group=1
    56                           	psect	text41,global,reloc=2,class=CODE,delta=1,group=1
    57                           	psect	text42,global,reloc=2,class=CODE,delta=1,group=2
    58                           	psect	text43,global,reloc=2,class=CODE,delta=1
    59                           	psect	text44,global,reloc=2,class=CODE,delta=1
    60                           	psect	text45,global,reloc=2,class=CODE,delta=1,group=2
    61                           	psect	text46,global,reloc=2,class=CODE,delta=1,group=2
    62                           	psect	text47,global,reloc=2,class=CODE,delta=1,group=2
    63                           	psect	text48,global,reloc=2,class=CODE,delta=1
    64                           	psect	text49,global,reloc=2,class=CODE,delta=1
    65                           	psect	text50,global,reloc=2,class=CODE,delta=1
    66                           	psect	text51,global,reloc=2,class=CODE,delta=1
    67                           	psect	intcode,global,reloc=2,class=CODE,delta=1
    68                           	psect	text53,global,reloc=2,class=CODE,delta=1
    69                           	psect	text54,global,reloc=2,class=CODE,delta=1
    70                           	psect	intsave_regs,global,class=BIGRAM,space=1,delta=1,noexec
    71                           	psect	rparam,global,class=COMRAM,space=1,delta=1,noexec
    72                           	psect	temp,global,ovrld,common,class=COMRAM,space=1,delta=1
    73  0000                     
    74                           ; Version 2.10
    75                           ; Generated 31/07/2019 GMT
    76                           ; 
    77                           ; Copyright © 2019, Microchip Technology Inc. and its subsidiaries ("Microchip")
    78                           ; All rights reserved.
    79                           ; 
    80                           ; This software is developed by Microchip Technology Inc. and its subsidiaries ("Microch
      +                          ip").
    81                           ; 
    82                           ; Redistribution and use in source and binary forms, with or without modification, are
    83                           ; permitted provided that the following conditions are met:
    84                           ; 
    85                           ;     1. Redistributions of source code must retain the above copyright notice, this lis
      +                          t of
    86                           ;        conditions and the following disclaimer.
    87                           ; 
    88                           ;     2. Redistributions in binary form must reproduce the above copyright notice, this 
      +                          list
    89                           ;        of conditions and the following disclaimer in the documentation and/or other
    90                           ;        materials provided with the distribution.
    91                           ; 
    92                           ;     3. Microchip's name may not be used to endorse or promote products derived from th
      +                          is
    93                           ;        software without specific prior written permission.
    94                           ; 
    95                           ; THIS SOFTWARE IS PROVIDED BY MICROCHIP "AS IS" AND ANY EXPRESS OR IMPLIED WARRANTIES,
    96                           ; INCLUDING, BUT NOT LIMITED TO, THE IMPLIED WARRANTIES OF MERCHANTABILITY AND FITNESS F
      +                          OR
    97                           ; PURPOSE ARE DISCLAIMED.  IN NO EVENT SHALL MICROCHIP BE LIABLE FOR ANY DIRECT, INDIREC
      +                          T,
    98                           ; INCIDENTAL, SPECIAL, EXEMPLARY, OR CONSEQUENTIAL DAMAGES (INCLUDING BUT NOT LIMITED TO
    99                           ; PROCUREMENT OF SUBSTITUTE GOODS OR SERVICES; LOSS OF USE, DATA OR PROFITS; OR BUSINESS
   100                           ; INTERRUPTION) HOWSOEVER CAUSED AND ON ANY THEORY OF LIABILITY, WHETHER IN CONTRACT, ST
      +                          RICT
   101                           ; LIABILITY, OR TORT (INCLUDING NEGLIGENCE OR OTHERWISE) ARISING IN ANY WAY OUT OF THE U
      +                          SE OF
   102                           ; THIS SOFTWARE, EVEN IF ADVISED OF THE POSSIBILITY OF SUCH DAMAGE.
   103                           ; 
   104                           ; 
   105                           ; Code-generator required, PIC18F26K22 Definitions
   106                           ; 
   107                           ; SFR Addresses
   108  0000                     
   109 ;; Function _EUSART1_DefaultFramingErrorHandler is unused but had its address taken
   110  0000                     
   111 ;; Function _EUSART1_DefaultOverrunErrorHandler is unused but had its address taken
   112  0000                     
   113 ;; Function _EUSART1_DefaultErrorHandler is unused but had its address taken
   114  0000                     
   115                           	psect	idataBANK0
   116  002F4A                     __pidataBANK0:
   117                           	opt callstack 0
   118                           
   119                           ;initializer for _referenceDurations
   120  002F4A  037A               	dw	890
   121  002F4C  0181               	dw	385
   122  002F4E  0258               	dw	600
   123  002F50  023A               	dw	570
   124  002F52  0258               	dw	600
   125  002F54  0672               	dw	1650
   126  002F56  023A               	dw	570
   127  0000                     _CCPTMRS0bits	set	3913
   128  0000                     _ANSELA	set	3896
   129  0000                     _ANSELB	set	3897
   130  0000                     _ANSELC	set	3898
   131  0000                     _CCPR2	set	3943
   132  0000                     _CCPR1	set	4030
   133  0000                     _TMR1	set	4046
   134  0000                     _RCONbits	set	4048
   135  0000                     _CCP1CONbits	set	4029
   136  0000                     _CCP2CONbits	set	3942
   137  0000                     _PIE2bits	set	4000
   138  0000                     _PIR2bits	set	4001
   139  0000                     _CCPR2L	set	3943
   140  0000                     _CCPR2H	set	3944
   141  0000                     _CCP2CON	set	3942
   142  0000                     _CCPR1L	set	4030
   143  0000                     _CCPR1H	set	4031
   144  0000                     _CCP1CON	set	4029
   145  0000                     _INTCONbits	set	4082
   146  0000                     _INTCON2bits	set	4081
   147  0000                     _WPUB	set	3937
   148  0000                     _TRISC	set	3988
   149  0000                     _TRISB	set	3987
   150  0000                     _TRISA	set	3986
   151  0000                     _LATC	set	3979
   152  0000                     _LATB	set	3978
   153  0000                     _LATA	set	3977
   154  0000                     _OSCTUNE	set	3995
   155  0000                     _OSCCON2	set	4050
   156  0000                     _OSCCON	set	4051
   157  0000                     _TXREG1	set	4013
   158  0000                     _RCREG1	set	4014
   159  0000                     _RCSTA1bits	set	4011
   160  0000                     _TXSTA1bits	set	4012
   161  0000                     _SPBRGH1	set	4016
   162  0000                     _SPBRG1	set	4015
   163  0000                     _TXSTA1	set	4012
   164  0000                     _RCSTA1	set	4011
   165  0000                     _BAUDCON1	set	4024
   166  0000                     _T1GCONbits	set	4044
   167  0000                     _T1CONbits	set	4045
   168  0000                     _T1CON	set	4045
   169  0000                     _PIR1bits	set	3998
   170  0000                     _TMR1L	set	4046
   171  0000                     _TMR1H	set	4047
   172  0000                     _T1GCON	set	4044
   173  0000                     _PLLRDY	set	32407
   174                           
   175                           	psect	mediumconst
   176  00FA98                     __pmediumconst:
   177                           	opt callstack 0
   178  00FA98  00                 	db	0
   179  00FA99                     STR_28:
   180                           
   181                           ; BSR set to: 0
   182  00FA99  3F                 	db	63	;'?'
   183  00FA9A  3A                 	db	58	;':'
   184  00FA9B  20                 	db	32
   185  00FA9C  68                 	db	104	;'h'
   186  00FA9D  65                 	db	101	;'e'
   187  00FA9E  6C                 	db	108	;'l'
   188  00FA9F  70                 	db	112	;'p'
   189  00FAA0  20                 	db	32
   190  00FAA1  6D                 	db	109	;'m'
   191  00FAA2  65                 	db	101	;'e'
   192  00FAA3  6E                 	db	110	;'n'
   193  00FAA4  75                 	db	117	;'u'
   194  00FAA5  0D                 	db	13
   195  00FAA6  0A                 	db	10
   196  00FAA7  6F                 	db	111	;'o'
   197  00FAA8  3A                 	db	58	;':'
   198  00FAA9  20                 	db	32
   199  00FAAA  6B                 	db	107	;'k'
   200  00FAAB  0D                 	db	13
   201  00FAAC  0A                 	db	10
   202  00FAAD  5A                 	db	90	;'Z'
   203  00FAAE  3A                 	db	58	;':'
   204  00FAAF  20                 	db	32
   205  00FAB0  72                 	db	114	;'r'
   206  00FAB1  65                 	db	101	;'e'
   207  00FAB2  73                 	db	115	;'s'
   208  00FAB3  65                 	db	101	;'e'
   209  00FAB4  74                 	db	116	;'t'
   210  00FAB5  20                 	db	32
   211  00FAB6  70                 	db	112	;'p'
   212  00FAB7  72                 	db	114	;'r'
   213  00FAB8  6F                 	db	111	;'o'
   214  00FAB9  63                 	db	99	;'c'
   215  00FABA  65                 	db	101	;'e'
   216  00FABB  73                 	db	115	;'s'
   217  00FABC  73                 	db	115	;'s'
   218  00FABD  6F                 	db	111	;'o'
   219  00FABE  72                 	db	114	;'r'
   220  00FABF  0D                 	db	13
   221  00FAC0  0A                 	db	10
   222  00FAC1  7A                 	db	122	;'z'
   223  00FAC2  3A                 	db	58	;':'
   224  00FAC3  20                 	db	32
   225  00FAC4  63                 	db	99	;'c'
   226  00FAC5  6C                 	db	108	;'l'
   227  00FAC6  65                 	db	101	;'e'
   228  00FAC7  61                 	db	97	;'a'
   229  00FAC8  72                 	db	114	;'r'
   230  00FAC9  20                 	db	32
   231  00FACA  74                 	db	116	;'t'
   232  00FACB  68                 	db	104	;'h'
   233  00FACC  65                 	db	101	;'e'
   234  00FACD  20                 	db	32
   235  00FACE  74                 	db	116	;'t'
   236  00FACF  65                 	db	101	;'e'
   237  00FAD0  72                 	db	114	;'r'
   238  00FAD1  6D                 	db	109	;'m'
   239  00FAD2  69                 	db	105	;'i'
   240  00FAD3  6E                 	db	110	;'n'
   241  00FAD4  61                 	db	97	;'a'
   242  00FAD5  6C                 	db	108	;'l'
   243  00FAD6  0D                 	db	13
   244  00FAD7  0A                 	db	10
   245  00FAD8  0D                 	db	13
   246  00FAD9  0A                 	db	10
   247  00FADA  63                 	db	99	;'c'
   248  00FADB  3A                 	db	58	;':'
   249  00FADC  20                 	db	32
   250  00FADD  63                 	db	99	;'c'
   251  00FADE  6F                 	db	111	;'o'
   252  00FADF  75                 	db	117	;'u'
   253  00FAE0  6E                 	db	110	;'n'
   254  00FAE1  74                 	db	116	;'t'
   255  00FAE2  20                 	db	32
   256  00FAE3  6E                 	db	110	;'n'
   257  00FAE4  75                 	db	117	;'u'
   258  00FAE5  6D                 	db	109	;'m'
   259  00FAE6  62                 	db	98	;'b'
   260  00FAE7  65                 	db	101	;'e'
   261  00FAE8  72                 	db	114	;'r'
   262  00FAE9  20                 	db	32
   263  00FAEA  6F                 	db	111	;'o'
   264  00FAEB  66                 	db	102	;'f'
   265  00FAEC  20                 	db	32
   266  00FAED  68                 	db	104	;'h'
   267  00FAEE  61                 	db	97	;'a'
   268  00FAEF  6C                 	db	108	;'l'
   269  00FAF0  66                 	db	102	;'f'
   270  00FAF1  20                 	db	32
   271  00FAF2  62                 	db	98	;'b'
   272  00FAF3  69                 	db	105	;'i'
   273  00FAF4  74                 	db	116	;'t'
   274  00FAF5  73                 	db	115	;'s'
   275  00FAF6  0D                 	db	13
   276  00FAF7  0A                 	db	10
   277  00FAF8  74                 	db	116	;'t'
   278  00FAF9  3A                 	db	58	;':'
   279  00FAFA  20                 	db	32
   280  00FAFB  64                 	db	100	;'d'
   281  00FAFC  65                 	db	101	;'e'
   282  00FAFD  74                 	db	116	;'t'
   283  00FAFE  65                 	db	101	;'e'
   284  00FAFF  72                 	db	114	;'r'
   285  00FB00  6D                 	db	109	;'m'
   286  00FB01  69                 	db	105	;'i'
   287  00FB02  6E                 	db	110	;'n'
   288  00FB03  65                 	db	101	;'e'
   289  00FB04  20                 	db	32
   290  00FB05  54                 	db	84	;'T'
   291  00FB06  69                 	db	105	;'i'
   292  00FB07  6D                 	db	109	;'m'
   293  00FB08  65                 	db	101	;'e'
   294  00FB09  20                 	db	32
   295  00FB0A  70                 	db	112	;'p'
   296  00FB0B  65                 	db	101	;'e'
   297  00FB0C  72                 	db	114	;'r'
   298  00FB0D  69                 	db	105	;'i'
   299  00FB0E  6F                 	db	111	;'o'
   300  00FB0F  64                 	db	100	;'d'
   301  00FB10  73                 	db	115	;'s'
   302  00FB11  20                 	db	32
   303  00FB12  66                 	db	102	;'f'
   304  00FB13  6F                 	db	111	;'o'
   305  00FB14  72                 	db	114	;'r'
   306  00FB15  20                 	db	32
   307  00FB16  61                 	db	97	;'a'
   308  00FB17  6C                 	db	108	;'l'
   309  00FB18  6C                 	db	108	;'l'
   310  00FB19  20                 	db	32
   311  00FB1A  74                 	db	116	;'t'
   312  00FB1B  68                 	db	104	;'h'
   313  00FB1C  65                 	db	101	;'e'
   314  00FB1D  20                 	db	32
   315  00FB1E  62                 	db	98	;'b'
   316  00FB1F  69                 	db	105	;'i'
   317  00FB20  74                 	db	116	;'t'
   318  00FB21  73                 	db	115	;'s'
   319  00FB22  0D                 	db	13
   320  00FB23  0A                 	db	10
   321  00FB24  64                 	db	100	;'d'
   322  00FB25  3A                 	db	58	;':'
   323  00FB26  20                 	db	32
   324  00FB27  64                 	db	100	;'d'
   325  00FB28  65                 	db	101	;'e'
   326  00FB29  63                 	db	99	;'c'
   327  00FB2A  6F                 	db	111	;'o'
   328  00FB2B  64                 	db	100	;'d'
   329  00FB2C  65                 	db	101	;'e'
   330  00FB2D  20                 	db	32
   331  00FB2E  6C                 	db	108	;'l'
   332  00FB2F  6F                 	db	111	;'o'
   333  00FB30  67                 	db	103	;'g'
   334  00FB31  69                 	db	105	;'i'
   335  00FB32  63                 	db	99	;'c'
   336  00FB33  20                 	db	32
   337  00FB34  31                 	db	49	;'1'
   338  00FB35  20                 	db	32
   339  00FB36  70                 	db	112	;'p'
   340  00FB37  65                 	db	101	;'e'
   341  00FB38  72                 	db	114	;'r'
   342  00FB39  69                 	db	105	;'i'
   343  00FB3A  6F                 	db	111	;'o'
   344  00FB3B  64                 	db	100	;'d'
   345  00FB3C  73                 	db	115	;'s'
   346  00FB3D  0D                 	db	13
   347  00FB3E  0A                 	db	10
   348  00FB3F  72                 	db	114	;'r'
   349  00FB40  3A                 	db	58	;':'
   350  00FB41  20                 	db	32
   351  00FB42  52                 	db	82	;'R'
   352  00FB43  65                 	db	101	;'e'
   353  00FB44  70                 	db	112	;'p'
   354  00FB45  6F                 	db	111	;'o'
   355  00FB46  72                 	db	114	;'r'
   356  00FB47  74                 	db	116	;'t'
   357  00FB48  20                 	db	32
   358  00FB49  62                 	db	98	;'b'
   359  00FB4A  69                 	db	105	;'i'
   360  00FB4B  74                 	db	116	;'t'
   361  00FB4C  20                 	db	32
   362  00FB4D  77                 	db	119	;'w'
   363  00FB4E  69                 	db	105	;'i'
   364  00FB4F  64                 	db	100	;'d'
   365  00FB50  74                 	db	116	;'t'
   366  00FB51  68                 	db	104	;'h'
   367  00FB52  20                 	db	32
   368  00FB53  76                 	db	118	;'v'
   369  00FB54  61                 	db	97	;'a'
   370  00FB55  6C                 	db	108	;'l'
   371  00FB56  75                 	db	117	;'u'
   372  00FB57  65                 	db	101	;'e'
   373  00FB58  73                 	db	115	;'s'
   374  00FB59  0D                 	db	13
   375  00FB5A  0A                 	db	10
   376  00FB5B  0D                 	db	13
   377  00FB5C  0A                 	db	10
   378  00FB5D  6C                 	db	108	;'l'
   379  00FB5E  3A                 	db	58	;':'
   380  00FB5F  20                 	db	32
   381  00FB60  63                 	db	99	;'c'
   382  00FB61  4C                 	db	76	;'L'
   383  00FB62  6F                 	db	111	;'o'
   384  00FB63  6E                 	db	110	;'n'
   385  00FB64  65                 	db	101	;'e'
   386  00FB65  20                 	db	32
   387  00FB66  34                 	db	52	;'4'
   388  00FB67  20                 	db	32
   389  00FB68  64                 	db	100	;'d'
   390  00FB69  6F                 	db	111	;'o'
   391  00FB6A  6E                 	db	110	;'n'
   392  00FB6B  6F                 	db	111	;'o'
   393  00FB6C  72                 	db	114	;'r'
   394  00FB6D  20                 	db	32
   395  00FB6E  72                 	db	114	;'r'
   396  00FB6F  65                 	db	101	;'e'
   397  00FB70  6D                 	db	109	;'m'
   398  00FB71  6F                 	db	111	;'o'
   399  00FB72  74                 	db	116	;'t'
   400  00FB73  65                 	db	101	;'e'
   401  00FB74  20                 	db	32
   402  00FB75  62                 	db	98	;'b'
   403  00FB76  75                 	db	117	;'u'
   404  00FB77  74                 	db	116	;'t'
   405  00FB78  74                 	db	116	;'t'
   406  00FB79  6F                 	db	111	;'o'
   407  00FB7A  6E                 	db	110	;'n'
   408  00FB7B  73                 	db	115	;'s'
   409  00FB7C  0D                 	db	13
   410  00FB7D  0A                 	db	10
   411  00FB7E  31                 	db	49	;'1'
   412  00FB7F  2D                 	db	45
   413  00FB80  34                 	db	52	;'4'
   414  00FB81  3A                 	db	58	;':'
   415  00FB82  20                 	db	32
   416  00FB83  54                 	db	84	;'T'
   417  00FB84  72                 	db	114	;'r'
   418  00FB85  61                 	db	97	;'a'
   419  00FB86  6E                 	db	110	;'n'
   420  00FB87  73                 	db	115	;'s'
   421  00FB88  6D                 	db	109	;'m'
   422  00FB89  69                 	db	105	;'i'
   423  00FB8A  74                 	db	116	;'t'
   424  00FB8B  20                 	db	32
   425  00FB8C  49                 	db	73	;'I'
   426  00FB8D  52                 	db	82	;'R'
   427  00FB8E  20                 	db	32
   428  00FB8F  70                 	db	112	;'p'
   429  00FB90  61                 	db	97	;'a'
   430  00FB91  63                 	db	99	;'c'
   431  00FB92  6B                 	db	107	;'k'
   432  00FB93  65                 	db	101	;'e'
   433  00FB94  74                 	db	116	;'t'
   434  00FB95  0D                 	db	13
   435  00FB96  0A                 	db	10
   436  00FB97  73                 	db	115	;'s'
   437  00FB98  3A                 	db	58	;':'
   438  00FB99  20                 	db	32
   439  00FB9A  52                 	db	82	;'R'
   440  00FB9B  65                 	db	101	;'e'
   441  00FB9C  63                 	db	99	;'c'
   442  00FB9D  6F                 	db	111	;'o'
   443  00FB9E  72                 	db	114	;'r'
   444  00FB9F  64                 	db	100	;'d'
   445  00FBA0  20                 	db	32
   446  00FBA1  62                 	db	98	;'b'
   447  00FBA2  75                 	db	117	;'u'
   448  00FBA3  74                 	db	116	;'t'
   449  00FBA4  74                 	db	116	;'t'
   450  00FBA5  6F                 	db	111	;'o'
   451  00FBA6  6E                 	db	110	;'n'
   452  00FBA7  20                 	db	32
   453  00FBA8  73                 	db	115	;'s'
   454  00FBA9  65                 	db	101	;'e'
   455  00FBAA  71                 	db	113	;'q'
   456  00FBAB  75                 	db	117	;'u'
   457  00FBAC  65                 	db	101	;'e'
   458  00FBAD  6E                 	db	110	;'n'
   459  00FBAE  63                 	db	99	;'c'
   460  00FBAF  65                 	db	101	;'e'
   461  00FBB0  0D                 	db	13
   462  00FBB1  0A                 	db	10
   463  00FBB2  53                 	db	83	;'S'
   464  00FBB3  3A                 	db	58	;':'
   465  00FBB4  20                 	db	32
   466  00FBB5  54                 	db	84	;'T'
   467  00FBB6  72                 	db	114	;'r'
   468  00FBB7  61                 	db	97	;'a'
   469  00FBB8  6E                 	db	110	;'n'
   470  00FBB9  73                 	db	115	;'s'
   471  00FBBA  6D                 	db	109	;'m'
   472  00FBBB  69                 	db	105	;'i'
   473  00FBBC  74                 	db	116	;'t'
   474  00FBBD  20                 	db	32
   475  00FBBE  72                 	db	114	;'r'
   476  00FBBF  65                 	db	101	;'e'
   477  00FBC0  63                 	db	99	;'c'
   478  00FBC1  6F                 	db	111	;'o'
   479  00FBC2  72                 	db	114	;'r'
   480  00FBC3  64                 	db	100	;'d'
   481  00FBC4  65                 	db	101	;'e'
   482  00FBC5  64                 	db	100	;'d'
   483  00FBC6  20                 	db	32
   484  00FBC7  62                 	db	98	;'b'
   485  00FBC8  75                 	db	117	;'u'
   486  00FBC9  74                 	db	116	;'t'
   487  00FBCA  74                 	db	116	;'t'
   488  00FBCB  6F                 	db	111	;'o'
   489  00FBCC  6E                 	db	110	;'n'
   490  00FBCD  20                 	db	32
   491  00FBCE  73                 	db	115	;'s'
   492  00FBCF  65                 	db	101	;'e'
   493  00FBD0  71                 	db	113	;'q'
   494  00FBD1  75                 	db	117	;'u'
   495  00FBD2  65                 	db	101	;'e'
   496  00FBD3  6E                 	db	110	;'n'
   497  00FBD4  63                 	db	99	;'c'
   498  00FBD5  65                 	db	101	;'e'
   499  00FBD6  0D                 	db	13
   500  00FBD7  0A                 	db	10
   501  00FBD8  69                 	db	105	;'i'
   502  00FBD9  3A                 	db	58	;':'
   503  00FBDA  20                 	db	32
   504  00FBDB  50                 	db	80	;'P'
   505  00FBDC  72                 	db	114	;'r'
   506  00FBDD  69                 	db	105	;'i'
   507  00FBDE  6E                 	db	110	;'n'
   508  00FBDF  74                 	db	116	;'t'
   509  00FBE0  20                 	db	32
   510  00FBE1  6F                 	db	111	;'o'
   511  00FBE2  75                 	db	117	;'u'
   512  00FBE3  74                 	db	116	;'t'
   513  00FBE4  20                 	db	32
   514  00FBE5  37                 	db	55	;'7'
   515  00FBE6  20                 	db	32
   516  00FBE7  64                 	db	100	;'d'
   517  00FBE8  75                 	db	117	;'u'
   518  00FBE9  72                 	db	114	;'r'
   519  00FBEA  61                 	db	97	;'a'
   520  00FBEB  74                 	db	116	;'t'
   521  00FBEC  69                 	db	105	;'i'
   522  00FBED  6F                 	db	111	;'o'
   523  00FBEE  6E                 	db	110	;'n'
   524  00FBEF  20                 	db	32
   525  00FBF0  72                 	db	114	;'r'
   526  00FBF1  65                 	db	101	;'e'
   527  00FBF2  66                 	db	102	;'f'
   528  00FBF3  65                 	db	101	;'e'
   529  00FBF4  72                 	db	114	;'r'
   530  00FBF5  65                 	db	101	;'e'
   531  00FBF6  6E                 	db	110	;'n'
   532  00FBF7  63                 	db	99	;'c'
   533  00FBF8  65                 	db	101	;'e'
   534  00FBF9  73                 	db	115	;'s'
   535  00FBFA  0D                 	db	13
   536  00FBFB  0A                 	db	10
   537  00FBFC  2D                 	db	45
   538  00FBFD  2D                 	db	45
   539  00FBFE  2D                 	db	45
   540  00FBFF  2D                 	db	45
   541  00FC00  2D                 	db	45
   542  00FC01  2D                 	db	45
   543  00FC02  2D                 	db	45
   544  00FC03  2D                 	db	45
   545  00FC04  2D                 	db	45
   546  00FC05  2D                 	db	45
   547  00FC06  2D                 	db	45
   548  00FC07  2D                 	db	45
   549  00FC08  2D                 	db	45
   550  00FC09  2D                 	db	45
   551  00FC0A  2D                 	db	45
   552  00FC0B  2D                 	db	45
   553  00FC0C  2D                 	db	45
   554  00FC0D  2D                 	db	45
   555  00FC0E  2D                 	db	45
   556  00FC0F  2D                 	db	45
   557  00FC10  2D                 	db	45
   558  00FC11  2D                 	db	45
   559  00FC12  2D                 	db	45
   560  00FC13  2D                 	db	45
   561  00FC14  2D                 	db	45
   562  00FC15  2D                 	db	45
   563  00FC16  2D                 	db	45
   564  00FC17  2D                 	db	45
   565  00FC18  2D                 	db	45
   566  00FC19  2D                 	db	45
   567  00FC1A  2D                 	db	45
   568  00FC1B  2D                 	db	45
   569  00FC1C  2D                 	db	45
   570  00FC1D  2D                 	db	45
   571  00FC1E  2D                 	db	45
   572  00FC1F  2D                 	db	45
   573  00FC20  2D                 	db	45
   574  00FC21  2D                 	db	45
   575  00FC22  2D                 	db	45
   576  00FC23  2D                 	db	45
   577  00FC24  2D                 	db	45
   578  00FC25  2D                 	db	45
   579  00FC26  2D                 	db	45
   580  00FC27  2D                 	db	45
   581  00FC28  2D                 	db	45
   582  00FC29  2D                 	db	45
   583  00FC2A  2D                 	db	45
   584  00FC2B  2D                 	db	45
   585  00FC2C  2D                 	db	45
   586  00FC2D  0D                 	db	13
   587  00FC2E  0A                 	db	10
   588  00FC2F  00                 	db	0
   589  00FC30                     STR_33:
   590                           
   591                           ; BSR set to: 0
   592  00FC30  2D                 	db	45
   593  00FC31  2D                 	db	45
   594  00FC32  2D                 	db	45
   595  00FC33  2D                 	db	45
   596  00FC34  2D                 	db	45
   597  00FC35  2D                 	db	45
   598  00FC36  2D                 	db	45
   599  00FC37  2D                 	db	45
   600  00FC38  2D                 	db	45
   601  00FC39  2D                 	db	45
   602  00FC3A  2D                 	db	45
   603  00FC3B  2D                 	db	45
   604  00FC3C  2D                 	db	45
   605  00FC3D  2D                 	db	45
   606  00FC3E  2D                 	db	45
   607  00FC3F  2D                 	db	45
   608  00FC40  2D                 	db	45
   609  00FC41  2D                 	db	45
   610  00FC42  2D                 	db	45
   611  00FC43  2D                 	db	45
   612  00FC44  2D                 	db	45
   613  00FC45  2D                 	db	45
   614  00FC46  2D                 	db	45
   615  00FC47  2D                 	db	45
   616  00FC48  2D                 	db	45
   617  00FC49  2D                 	db	45
   618  00FC4A  2D                 	db	45
   619  00FC4B  2D                 	db	45
   620  00FC4C  2D                 	db	45
   621  00FC4D  2D                 	db	45
   622  00FC4E  2D                 	db	45
   623  00FC4F  2D                 	db	45
   624  00FC50  2D                 	db	45
   625  00FC51  2D                 	db	45
   626  00FC52  2D                 	db	45
   627  00FC53  2D                 	db	45
   628  00FC54  2D                 	db	45
   629  00FC55  2D                 	db	45
   630  00FC56  2D                 	db	45
   631  00FC57  2D                 	db	45
   632  00FC58  2D                 	db	45
   633  00FC59  2D                 	db	45
   634  00FC5A  2D                 	db	45
   635  00FC5B  2D                 	db	45
   636  00FC5C  2D                 	db	45
   637  00FC5D  2D                 	db	45
   638  00FC5E  2D                 	db	45
   639  00FC5F  2D                 	db	45
   640  00FC60  2D                 	db	45
   641  00FC61  0D                 	db	13
   642  00FC62  0A                 	db	10
   643  00FC63  53                 	db	83	;'S'
   644  00FC64  74                 	db	116	;'t'
   645  00FC65  61                 	db	97	;'a'
   646  00FC66  72                 	db	114	;'r'
   647  00FC67  74                 	db	116	;'t'
   648  00FC68  3A                 	db	58	;':'
   649  00FC69  20                 	db	32
   650  00FC6A  09                 	db	9
   651  00FC6B  09                 	db	9
   652  00FC6C  4C                 	db	76	;'L'
   653  00FC6D  6F                 	db	111	;'o'
   654  00FC6E  3A                 	db	58	;':'
   655  00FC6F  20                 	db	32
   656  00FC70  25                 	db	37
   657  00FC71  75                 	db	117	;'u'
   658  00FC72  20                 	db	32
   659  00FC73  75                 	db	117	;'u'
   660  00FC74  53                 	db	83	;'S'
   661  00FC75  09                 	db	9
   662  00FC76  48                 	db	72	;'H'
   663  00FC77  69                 	db	105	;'i'
   664  00FC78  3A                 	db	58	;':'
   665  00FC79  20                 	db	32
   666  00FC7A  25                 	db	37
   667  00FC7B  75                 	db	117	;'u'
   668  00FC7C  20                 	db	32
   669  00FC7D  20                 	db	32
   670  00FC7E  75                 	db	117	;'u'
   671  00FC7F  53                 	db	83	;'S'
   672  00FC80  0D                 	db	13
   673  00FC81  0A                 	db	10
   674  00FC82  44                 	db	68	;'D'
   675  00FC83  61                 	db	97	;'a'
   676  00FC84  74                 	db	116	;'t'
   677  00FC85  61                 	db	97	;'a'
   678  00FC86  20                 	db	32
   679  00FC87  30                 	db	48	;'0'
   680  00FC88  3A                 	db	58	;':'
   681  00FC89  09                 	db	9
   682  00FC8A  09                 	db	9
   683  00FC8B  4C                 	db	76	;'L'
   684  00FC8C  6F                 	db	111	;'o'
   685  00FC8D  3A                 	db	58	;':'
   686  00FC8E  20                 	db	32
   687  00FC8F  25                 	db	37
   688  00FC90  75                 	db	117	;'u'
   689  00FC91  20                 	db	32
   690  00FC92  75                 	db	117	;'u'
   691  00FC93  53                 	db	83	;'S'
   692  00FC94  09                 	db	9
   693  00FC95  48                 	db	72	;'H'
   694  00FC96  69                 	db	105	;'i'
   695  00FC97  3A                 	db	58	;':'
   696  00FC98  20                 	db	32
   697  00FC99  25                 	db	37
   698  00FC9A  75                 	db	117	;'u'
   699  00FC9B  20                 	db	32
   700  00FC9C  75                 	db	117	;'u'
   701  00FC9D  53                 	db	83	;'S'
   702  00FC9E  0D                 	db	13
   703  00FC9F  0A                 	db	10
   704  00FCA0  44                 	db	68	;'D'
   705  00FCA1  61                 	db	97	;'a'
   706  00FCA2  74                 	db	116	;'t'
   707  00FCA3  61                 	db	97	;'a'
   708  00FCA4  20                 	db	32
   709  00FCA5  31                 	db	49	;'1'
   710  00FCA6  3A                 	db	58	;':'
   711  00FCA7  09                 	db	9
   712  00FCA8  09                 	db	9
   713  00FCA9  4C                 	db	76	;'L'
   714  00FCAA  6F                 	db	111	;'o'
   715  00FCAB  3A                 	db	58	;':'
   716  00FCAC  20                 	db	32
   717  00FCAD  25                 	db	37
   718  00FCAE  75                 	db	117	;'u'
   719  00FCAF  20                 	db	32
   720  00FCB0  75                 	db	117	;'u'
   721  00FCB1  53                 	db	83	;'S'
   722  00FCB2  09                 	db	9
   723  00FCB3  48                 	db	72	;'H'
   724  00FCB4  69                 	db	105	;'i'
   725  00FCB5  3A                 	db	58	;':'
   726  00FCB6  20                 	db	32
   727  00FCB7  25                 	db	37
   728  00FCB8  75                 	db	117	;'u'
   729  00FCB9  20                 	db	32
   730  00FCBA  75                 	db	117	;'u'
   731  00FCBB  53                 	db	83	;'S'
   732  00FCBC  0D                 	db	13
   733  00FCBD  0A                 	db	10
   734  00FCBE  53                 	db	83	;'S'
   735  00FCBF  74                 	db	116	;'t'
   736  00FCC0  6F                 	db	111	;'o'
   737  00FCC1  70                 	db	112	;'p'
   738  00FCC2  3A                 	db	58	;':'
   739  00FCC3  09                 	db	9
   740  00FCC4  09                 	db	9
   741  00FCC5  4C                 	db	76	;'L'
   742  00FCC6  6F                 	db	111	;'o'
   743  00FCC7  3A                 	db	58	;':'
   744  00FCC8  20                 	db	32
   745  00FCC9  25                 	db	37
   746  00FCCA  75                 	db	117	;'u'
   747  00FCCB  20                 	db	32
   748  00FCCC  75                 	db	117	;'u'
   749  00FCCD  53                 	db	83	;'S'
   750  00FCCE  0D                 	db	13
   751  00FCCF  0A                 	db	10
   752  00FCD0  48                 	db	72	;'H'
   753  00FCD1  61                 	db	97	;'a'
   754  00FCD2  6C                 	db	108	;'l'
   755  00FCD3  66                 	db	102	;'f'
   756  00FCD4  20                 	db	32
   757  00FCD5  62                 	db	98	;'b'
   758  00FCD6  69                 	db	105	;'i'
   759  00FCD7  74                 	db	116	;'t'
   760  00FCD8  73                 	db	115	;'s'
   761  00FCD9  3A                 	db	58	;':'
   762  00FCDA  09                 	db	9
   763  00FCDB  25                 	db	37
   764  00FCDC  75                 	db	117	;'u'
   765  00FCDD  20                 	db	32
   766  00FCDE  68                 	db	104	;'h'
   767  00FCDF  61                 	db	97	;'a'
   768  00FCE0  6C                 	db	108	;'l'
   769  00FCE1  66                 	db	102	;'f'
   770  00FCE2  20                 	db	32
   771  00FCE3  62                 	db	98	;'b'
   772  00FCE4  69                 	db	105	;'i'
   773  00FCE5  74                 	db	116	;'t'
   774  00FCE6  73                 	db	115	;'s'
   775  00FCE7  20                 	db	32
   776  00FCE8  70                 	db	112	;'p'
   777  00FCE9  65                 	db	101	;'e'
   778  00FCEA  72                 	db	114	;'r'
   779  00FCEB  20                 	db	32
   780  00FCEC  62                 	db	98	;'b'
   781  00FCED  75                 	db	117	;'u'
   782  00FCEE  74                 	db	116	;'t'
   783  00FCEF  74                 	db	116	;'t'
   784  00FCF0  6F                 	db	111	;'o'
   785  00FCF1  6E                 	db	110	;'n'
   786  00FCF2  0D                 	db	13
   787  00FCF3  0A                 	db	10
   788  00FCF4  2D                 	db	45
   789  00FCF5  2D                 	db	45
   790  00FCF6  2D                 	db	45
   791  00FCF7  2D                 	db	45
   792  00FCF8  2D                 	db	45
   793  00FCF9  2D                 	db	45
   794  00FCFA  2D                 	db	45
   795  00FCFB  2D                 	db	45
   796  00FCFC  2D                 	db	45
   797  00FCFD  2D                 	db	45
   798  00FCFE  2D                 	db	45
   799  00FCFF  2D                 	db	45
   800  00FD00  2D                 	db	45
   801  00FD01  2D                 	db	45
   802  00FD02  2D                 	db	45
   803  00FD03  2D                 	db	45
   804  00FD04  2D                 	db	45
   805  00FD05  2D                 	db	45
   806  00FD06  2D                 	db	45
   807  00FD07  2D                 	db	45
   808  00FD08  2D                 	db	45
   809  00FD09  2D                 	db	45
   810  00FD0A  2D                 	db	45
   811  00FD0B  2D                 	db	45
   812  00FD0C  2D                 	db	45
   813  00FD0D  2D                 	db	45
   814  00FD0E  2D                 	db	45
   815  00FD0F  2D                 	db	45
   816  00FD10  2D                 	db	45
   817  00FD11  2D                 	db	45
   818  00FD12  2D                 	db	45
   819  00FD13  2D                 	db	45
   820  00FD14  2D                 	db	45
   821  00FD15  2D                 	db	45
   822  00FD16  2D                 	db	45
   823  00FD17  2D                 	db	45
   824  00FD18  2D                 	db	45
   825  00FD19  2D                 	db	45
   826  00FD1A  2D                 	db	45
   827  00FD1B  2D                 	db	45
   828  00FD1C  2D                 	db	45
   829  00FD1D  2D                 	db	45
   830  00FD1E  2D                 	db	45
   831  00FD1F  2D                 	db	45
   832  00FD20  2D                 	db	45
   833  00FD21  2D                 	db	45
   834  00FD22  2D                 	db	45
   835  00FD23  2D                 	db	45
   836  00FD24  2D                 	db	45
   837  00FD25  0D                 	db	13
   838  00FD26  0A                 	db	10
   839  00FD27  00                 	db	0
   840  00FD28                     STR_12:
   841                           
   842                           ; BSR set to: 0
   843  00FD28  50                 	db	80	;'P'
   844  00FD29  72                 	db	114	;'r'
   845  00FD2A  65                 	db	101	;'e'
   846  00FD2B  73                 	db	115	;'s'
   847  00FD2C  73                 	db	115	;'s'
   848  00FD2D  20                 	db	32
   849  00FD2E  62                 	db	98	;'b'
   850  00FD2F  75                 	db	117	;'u'
   851  00FD30  74                 	db	116	;'t'
   852  00FD31  74                 	db	116	;'t'
   853  00FD32  6F                 	db	111	;'o'
   854  00FD33  6E                 	db	110	;'n'
   855  00FD34  73                 	db	115	;'s'
   856  00FD35  20                 	db	32
   857  00FD36  74                 	db	116	;'t'
   858  00FD37  6F                 	db	111	;'o'
   859  00FD38  20                 	db	32
   860  00FD39  72                 	db	114	;'r'
   861  00FD3A  65                 	db	101	;'e'
   862  00FD3B  63                 	db	99	;'c'
   863  00FD3C  6F                 	db	111	;'o'
   864  00FD3D  72                 	db	114	;'r'
   865  00FD3E  64                 	db	100	;'d'
   866  00FD3F  20                 	db	32
   867  00FD40  61                 	db	97	;'a'
   868  00FD41  20                 	db	32
   869  00FD42  73                 	db	115	;'s'
   870  00FD43  65                 	db	101	;'e'
   871  00FD44  71                 	db	113	;'q'
   872  00FD45  75                 	db	117	;'u'
   873  00FD46  65                 	db	101	;'e'
   874  00FD47  6E                 	db	110	;'n'
   875  00FD48  63                 	db	99	;'c'
   876  00FD49  65                 	db	101	;'e'
   877  00FD4A  20                 	db	32
   878  00FD4B  28                 	db	40
   879  00FD4C  6D                 	db	109	;'m'
   880  00FD4D  61                 	db	97	;'a'
   881  00FD4E  78                 	db	120	;'x'
   882  00FD4F  3A                 	db	58	;':'
   883  00FD50  20                 	db	32
   884  00FD51  25                 	db	37
   885  00FD52  75                 	db	117	;'u'
   886  00FD53  20                 	db	32
   887  00FD54  62                 	db	98	;'b'
   888  00FD55  75                 	db	117	;'u'
   889  00FD56  74                 	db	116	;'t'
   890  00FD57  74                 	db	116	;'t'
   891  00FD58  6F                 	db	111	;'o'
   892  00FD59  6E                 	db	110	;'n'
   893  00FD5A  73                 	db	115	;'s'
   894  00FD5B  29                 	db	41
   895  00FD5C  2E                 	db	46
   896  00FD5D  20                 	db	32
   897  00FD5E  50                 	db	80	;'P'
   898  00FD5F  72                 	db	114	;'r'
   899  00FD60  65                 	db	101	;'e'
   900  00FD61  73                 	db	115	;'s'
   901  00FD62  73                 	db	115	;'s'
   902  00FD63  20                 	db	32
   903  00FD64  61                 	db	97	;'a'
   904  00FD65  6E                 	db	110	;'n'
   905  00FD66  79                 	db	121	;'y'
   906  00FD67  20                 	db	32
   907  00FD68  6B                 	db	107	;'k'
   908  00FD69  65                 	db	101	;'e'
   909  00FD6A  79                 	db	121	;'y'
   910  00FD6B  20                 	db	32
   911  00FD6C  77                 	db	119	;'w'
   912  00FD6D  68                 	db	104	;'h'
   913  00FD6E  65                 	db	101	;'e'
   914  00FD6F  6E                 	db	110	;'n'
   915  00FD70  20                 	db	32
   916  00FD71  64                 	db	100	;'d'
   917  00FD72  6F                 	db	111	;'o'
   918  00FD73  6E                 	db	110	;'n'
   919  00FD74  65                 	db	101	;'e'
   920  00FD75  0D                 	db	13
   921  00FD76  0A                 	db	10
   922  00FD77  00                 	db	0
   923  00FD78                     STR_21:
   924                           
   925                           ; BSR set to: 0
   926  00FD78  49                 	db	73	;'I'
   927  00FD79  6E                 	db	110	;'n'
   928  00FD7A  73                 	db	115	;'s'
   929  00FD7B  74                 	db	116	;'t'
   930  00FD7C  61                 	db	97	;'a'
   931  00FD7D  6C                 	db	108	;'l'
   932  00FD7E  6C                 	db	108	;'l'
   933  00FD7F  20                 	db	32
   934  00FD80  61                 	db	97	;'a'
   935  00FD81  20                 	db	32
   936  00FD82  6A                 	db	106	;'j'
   937  00FD83  75                 	db	117	;'u'
   938  00FD84  6D                 	db	109	;'m'
   939  00FD85  70                 	db	112	;'p'
   940  00FD86  65                 	db	101	;'e'
   941  00FD87  72                 	db	114	;'r'
   942  00FD88  20                 	db	32
   943  00FD89  66                 	db	102	;'f'
   944  00FD8A  72                 	db	114	;'r'
   945  00FD8B  6F                 	db	111	;'o'
   946  00FD8C  6D                 	db	109	;'m'
   947  00FD8D  20                 	db	32
   948  00FD8E  52                 	db	82	;'R'
   949  00FD8F  43                 	db	67	;'C'
   950  00FD90  34                 	db	52	;'4'
   951  00FD91  20                 	db	32
   952  00FD92  74                 	db	116	;'t'
   953  00FD93  6F                 	db	111	;'o'
   954  00FD94  20                 	db	32
   955  00FD95  52                 	db	82	;'R'
   956  00FD96  43                 	db	67	;'C'
   957  00FD97  32                 	db	50	;'2'
   958  00FD98  20                 	db	32
   959  00FD99  6F                 	db	111	;'o'
   960  00FD9A  6E                 	db	110	;'n'
   961  00FD9B  6C                 	db	108	;'l'
   962  00FD9C  79                 	db	121	;'y'
   963  00FD9D  20                 	db	32
   964  00FD9E  61                 	db	97	;'a'
   965  00FD9F  66                 	db	102	;'f'
   966  00FDA0  74                 	db	116	;'t'
   967  00FDA1  65                 	db	101	;'e'
   968  00FDA2  72                 	db	114	;'r'
   969  00FDA3  20                 	db	32
   970  00FDA4  75                 	db	117	;'u'
   971  00FDA5  6E                 	db	110	;'n'
   972  00FDA6  70                 	db	112	;'p'
   973  00FDA7  6C                 	db	108	;'l'
   974  00FDA8  75                 	db	117	;'u'
   975  00FDA9  67                 	db	103	;'g'
   976  00FDAA  67                 	db	103	;'g'
   977  00FDAB  69                 	db	105	;'i'
   978  00FDAC  6E                 	db	110	;'n'
   979  00FDAD  67                 	db	103	;'g'
   980  00FDAE  20                 	db	32
   981  00FDAF  50                 	db	80	;'P'
   982  00FDB0  49                 	db	73	;'I'
   983  00FDB1  43                 	db	67	;'C'
   984  00FDB2  4B                 	db	75	;'K'
   985  00FDB3  69                 	db	105	;'i'
   986  00FDB4  74                 	db	116	;'t'
   987  00FDB5  34                 	db	52	;'4'
   988  00FDB6  0D                 	db	13
   989  00FDB7  0A                 	db	10
   990  00FDB8  00                 	db	0
   991  00FDB9                     STR_1:
   992                           
   993                           ; BSR set to: 0
   994  00FDB9  54                 	db	84	;'T'
   995  00FDBA  6F                 	db	111	;'o'
   996  00FDBB  20                 	db	32
   997  00FDBC  62                 	db	98	;'b'
   998  00FDBD  65                 	db	101	;'e'
   999  00FDBE  67                 	db	103	;'g'
  1000  00FDBF  69                 	db	105	;'i'
  1001  00FDC0  6E                 	db	110	;'n'
  1002  00FDC1  20                 	db	32
  1003  00FDC2  63                 	db	99	;'c'
  1004  00FDC3  6F                 	db	111	;'o'
  1005  00FDC4  75                 	db	117	;'u'
  1006  00FDC5  6E                 	db	110	;'n'
  1007  00FDC6  74                 	db	116	;'t'
  1008  00FDC7  69                 	db	105	;'i'
  1009  00FDC8  6E                 	db	110	;'n'
  1010  00FDC9  67                 	db	103	;'g'
  1011  00FDCA  20                 	db	32
  1012  00FDCB  65                 	db	101	;'e'
  1013  00FDCC  64                 	db	100	;'d'
  1014  00FDCD  67                 	db	103	;'g'
  1015  00FDCE  65                 	db	101	;'e'
  1016  00FDCF  73                 	db	115	;'s'
  1017  00FDD0  2C                 	db	44
  1018  00FDD1  20                 	db	32
  1019  00FDD2  70                 	db	112	;'p'
  1020  00FDD3  6C                 	db	108	;'l'
  1021  00FDD4  65                 	db	101	;'e'
  1022  00FDD5  61                 	db	97	;'a'
  1023  00FDD6  73                 	db	115	;'s'
  1024  00FDD7  65                 	db	101	;'e'
  1025  00FDD8  20                 	db	32
  1026  00FDD9  70                 	db	112	;'p'
  1027  00FDDA  72                 	db	114	;'r'
  1028  00FDDB  65                 	db	101	;'e'
  1029  00FDDC  73                 	db	115	;'s'
  1030  00FDDD  73                 	db	115	;'s'
  1031  00FDDE  20                 	db	32
  1032  00FDDF  61                 	db	97	;'a'
  1033  00FDE0  20                 	db	32
  1034  00FDE1  62                 	db	98	;'b'
  1035  00FDE2  75                 	db	117	;'u'
  1036  00FDE3  74                 	db	116	;'t'
  1037  00FDE4  74                 	db	116	;'t'
  1038  00FDE5  6F                 	db	111	;'o'
  1039  00FDE6  6E                 	db	110	;'n'
  1040  00FDE7  20                 	db	32
  1041  00FDE8  6F                 	db	111	;'o'
  1042  00FDE9  6E                 	db	110	;'n'
  1043  00FDEA  20                 	db	32
  1044  00FDEB  74                 	db	116	;'t'
  1045  00FDEC  68                 	db	104	;'h'
  1046  00FDED  65                 	db	101	;'e'
  1047  00FDEE  20                 	db	32
  1048  00FDEF  72                 	db	114	;'r'
  1049  00FDF0  65                 	db	101	;'e'
  1050  00FDF1  6D                 	db	109	;'m'
  1051  00FDF2  6F                 	db	111	;'o'
  1052  00FDF3  74                 	db	116	;'t'
  1053  00FDF4  65                 	db	101	;'e'
  1054  00FDF5  20                 	db	32
  1055  00FDF6  0D                 	db	13
  1056  00FDF7  0A                 	db	10
  1057  00FDF8  00                 	db	0
  1058  00FDF9                     STR_22:
  1059                           
  1060                           ; BSR set to: 0
  1061  00FDF9  43                 	db	67	;'C'
  1062  00FDFA  6F                 	db	111	;'o'
  1063  00FDFB  6E                 	db	110	;'n'
  1064  00FDFC  6E                 	db	110	;'n'
  1065  00FDFD  65                 	db	101	;'e'
  1066  00FDFE  63                 	db	99	;'c'
  1067  00FDFF  74                 	db	116	;'t'
  1068  00FE00  20                 	db	32
  1069  00FE01  61                 	db	97	;'a'
  1070  00FE02  20                 	db	32
  1071  00FE03  6A                 	db	106	;'j'
  1072  00FE04  75                 	db	117	;'u'
  1073  00FE05  6D                 	db	109	;'m'
  1074  00FE06  70                 	db	112	;'p'
  1075  00FE07  65                 	db	101	;'e'
  1076  00FE08  72                 	db	114	;'r'
  1077  00FE09  20                 	db	32
  1078  00FE0A  66                 	db	102	;'f'
  1079  00FE0B  72                 	db	114	;'r'
  1080  00FE0C  6F                 	db	111	;'o'
  1081  00FE0D  6D                 	db	109	;'m'
  1082  00FE0E  20                 	db	32
  1083  00FE0F  52                 	db	82	;'R'
  1084  00FE10  43                 	db	67	;'C'
  1085  00FE11  31                 	db	49	;'1'
  1086  00FE12  20                 	db	32
  1087  00FE13  74                 	db	116	;'t'
  1088  00FE14  6F                 	db	111	;'o'
  1089  00FE15  20                 	db	32
  1090  00FE16  49                 	db	73	;'I'
  1091  00FE17  52                 	db	82	;'R'
  1092  00FE18  20                 	db	32
  1093  00FE19  54                 	db	84	;'T'
  1094  00FE1A  72                 	db	114	;'r'
  1095  00FE1B  61                 	db	97	;'a'
  1096  00FE1C  6E                 	db	110	;'n'
  1097  00FE1D  73                 	db	115	;'s'
  1098  00FE1E  6D                 	db	109	;'m'
  1099  00FE1F  69                 	db	105	;'i'
  1100  00FE20  74                 	db	116	;'t'
  1101  00FE21  74                 	db	116	;'t'
  1102  00FE22  65                 	db	101	;'e'
  1103  00FE23  72                 	db	114	;'r'
  1104  00FE24  20                 	db	32
  1105  00FE25  50                 	db	80	;'P'
  1106  00FE26  49                 	db	73	;'I'
  1107  00FE27  4E                 	db	78	;'N'
  1108  00FE28  0D                 	db	13
  1109  00FE29  0A                 	db	10
  1110  00FE2A  00                 	db	0
  1111  00FE2B                     STR_4:
  1112                           
  1113                           ; BSR set to: 0
  1114  00FE2B  53                 	db	83	;'S'
  1115  00FE2C  65                 	db	101	;'e'
  1116  00FE2D  6E                 	db	110	;'n'
  1117  00FE2E  64                 	db	100	;'d'
  1118  00FE2F  20                 	db	32
  1119  00FE30  61                 	db	97	;'a'
  1120  00FE31  6E                 	db	110	;'n'
  1121  00FE32  20                 	db	32
  1122  00FE33  49                 	db	73	;'I'
  1123  00FE34  52                 	db	82	;'R'
  1124  00FE35  20                 	db	32
  1125  00FE36  73                 	db	115	;'s'
  1126  00FE37  69                 	db	105	;'i'
  1127  00FE38  67                 	db	103	;'g'
  1128  00FE39  6E                 	db	110	;'n'
  1129  00FE3A  61                 	db	97	;'a'
  1130  00FE3B  6C                 	db	108	;'l'
  1131  00FE3C  20                 	db	32
  1132  00FE3D  74                 	db	116	;'t'
  1133  00FE3E  6F                 	db	111	;'o'
  1134  00FE3F  20                 	db	32
  1135  00FE40  72                 	db	114	;'r'
  1136  00FE41  65                 	db	101	;'e'
  1137  00FE42  63                 	db	99	;'c'
  1138  00FE43  6F                 	db	111	;'o'
  1139  00FE44  72                 	db	114	;'r'
  1140  00FE45  64                 	db	100	;'d'
  1141  00FE46  20                 	db	32
  1142  00FE47  64                 	db	100	;'d'
  1143  00FE48  75                 	db	117	;'u'
  1144  00FE49  72                 	db	114	;'r'
  1145  00FE4A  61                 	db	97	;'a'
  1146  00FE4B  74                 	db	116	;'t'
  1147  00FE4C  69                 	db	105	;'i'
  1148  00FE4D  6F                 	db	111	;'o'
  1149  00FE4E  6E                 	db	110	;'n'
  1150  00FE4F  73                 	db	115	;'s'
  1151  00FE50  0D                 	db	13
  1152  00FE51  0A                 	db	10
  1153  00FE52  00                 	db	0
  1154  00FE53                     STR_5:
  1155                           
  1156                           ; BSR set to: 0
  1157  00FE53  50                 	db	80	;'P'
  1158  00FE54  72                 	db	114	;'r'
  1159  00FE55  65                 	db	101	;'e'
  1160  00FE56  73                 	db	115	;'s'
  1161  00FE57  73                 	db	115	;'s'
  1162  00FE58  20                 	db	32
  1163  00FE59  61                 	db	97	;'a'
  1164  00FE5A  20                 	db	32
  1165  00FE5B  62                 	db	98	;'b'
  1166  00FE5C  75                 	db	117	;'u'
  1167  00FE5D  74                 	db	116	;'t'
  1168  00FE5E  74                 	db	116	;'t'
  1169  00FE5F  6F                 	db	111	;'o'
  1170  00FE60  6E                 	db	110	;'n'
  1171  00FE61  20                 	db	32
  1172  00FE62  74                 	db	116	;'t'
  1173  00FE63  6F                 	db	111	;'o'
  1174  00FE64  20                 	db	32
  1175  00FE65  64                 	db	100	;'d'
  1176  00FE66  65                 	db	101	;'e'
  1177  00FE67  63                 	db	99	;'c'
  1178  00FE68  6F                 	db	111	;'o'
  1179  00FE69  64                 	db	100	;'d'
  1180  00FE6A  65                 	db	101	;'e'
  1181  00FE6B  20                 	db	32
  1182  00FE6C  77                 	db	119	;'w'
  1183  00FE6D  61                 	db	97	;'a'
  1184  00FE6E  76                 	db	118	;'v'
  1185  00FE6F  65                 	db	101	;'e'
  1186  00FE70  66                 	db	102	;'f'
  1187  00FE71  6F                 	db	111	;'o'
  1188  00FE72  72                 	db	114	;'r'
  1189  00FE73  6D                 	db	109	;'m'
  1190  00FE74  0D                 	db	13
  1191  00FE75  0A                 	db	10
  1192  00FE76  00                 	db	0
  1193  00FE77                     STR_11:
  1194                           
  1195                           ; BSR set to: 0
  1196  00FE77  50                 	db	80	;'P'
  1197  00FE78  72                 	db	114	;'r'
  1198  00FE79  6F                 	db	111	;'o'
  1199  00FE7A  64                 	db	100	;'d'
  1200  00FE7B  75                 	db	117	;'u'
  1201  00FE7C  63                 	db	99	;'c'
  1202  00FE7D  69                 	db	105	;'i'
  1203  00FE7E  6E                 	db	110	;'n'
  1204  00FE7F  67                 	db	103	;'g'
  1205  00FE80  20                 	db	32
  1206  00FE81  73                 	db	115	;'s'
  1207  00FE82  69                 	db	105	;'i'
  1208  00FE83  67                 	db	103	;'g'
  1209  00FE84  6E                 	db	110	;'n'
  1210  00FE85  61                 	db	97	;'a'
  1211  00FE86  6C                 	db	108	;'l'
  1212  00FE87  20                 	db	32
  1213  00FE88  66                 	db	102	;'f'
  1214  00FE89  6F                 	db	111	;'o'
  1215  00FE8A  72                 	db	114	;'r'
  1216  00FE8B  20                 	db	32
  1217  00FE8C  25                 	db	37
  1218  00FE8D  63                 	db	99	;'c'
  1219  00FE8E  20                 	db	32
  1220  00FE8F  62                 	db	98	;'b'
  1221  00FE90  75                 	db	117	;'u'
  1222  00FE91  74                 	db	116	;'t'
  1223  00FE92  74                 	db	116	;'t'
  1224  00FE93  6F                 	db	111	;'o'
  1225  00FE94  6E                 	db	110	;'n'
  1226  00FE95  0D                 	db	13
  1227  00FE96  0A                 	db	10
  1228  00FE97  00                 	db	0
  1229  00FE98                     STR_10:
  1230                           
  1231                           ; BSR set to: 0
  1232  00FE98  46                 	db	70	;'F'
  1233  00FE99  69                 	db	105	;'i'
  1234  00FE9A  6E                 	db	110	;'n'
  1235  00FE9B  69                 	db	105	;'i'
  1236  00FE9C  73                 	db	115	;'s'
  1237  00FE9D  68                 	db	104	;'h'
  1238  00FE9E  65                 	db	101	;'e'
  1239  00FE9F  64                 	db	100	;'d'
  1240  00FEA0  20                 	db	32
  1241  00FEA1  6C                 	db	108	;'l'
  1242  00FEA2  65                 	db	101	;'e'
  1243  00FEA3  61                 	db	97	;'a'
  1244  00FEA4  72                 	db	114	;'r'
  1245  00FEA5  6E                 	db	110	;'n'
  1246  00FEA6  69                 	db	105	;'i'
  1247  00FEA7  6E                 	db	110	;'n'
  1248  00FEA8  67                 	db	103	;'g'
  1249  00FEA9  20                 	db	32
  1250  00FEAA  62                 	db	98	;'b'
  1251  00FEAB  75                 	db	117	;'u'
  1252  00FEAC  74                 	db	116	;'t'
  1253  00FEAD  74                 	db	116	;'t'
  1254  00FEAE  6F                 	db	111	;'o'
  1255  00FEAF  6E                 	db	110	;'n'
  1256  00FEB0  73                 	db	115	;'s'
  1257  00FEB1  20                 	db	32
  1258  00FEB2  31                 	db	49	;'1'
  1259  00FEB3  2D                 	db	45
  1260  00FEB4  34                 	db	52	;'4'
  1261  00FEB5  0D                 	db	13
  1262  00FEB6  0A                 	db	10
  1263  00FEB7  00                 	db	0
  1264  00FEB8                     STR_16:
  1265                           
  1266                           ; BSR set to: 0
  1267  00FEB8  54                 	db	84	;'T'
  1268  00FEB9  72                 	db	114	;'r'
  1269  00FEBA  61                 	db	97	;'a'
  1270  00FEBB  6E                 	db	110	;'n'
  1271  00FEBC  73                 	db	115	;'s'
  1272  00FEBD  6D                 	db	109	;'m'
  1273  00FEBE  69                 	db	105	;'i'
  1274  00FEBF  74                 	db	116	;'t'
  1275  00FEC0  74                 	db	116	;'t'
  1276  00FEC1  69                 	db	105	;'i'
  1277  00FEC2  6E                 	db	110	;'n'
  1278  00FEC3  67                 	db	103	;'g'
  1279  00FEC4  20                 	db	32
  1280  00FEC5  62                 	db	98	;'b'
  1281  00FEC6  75                 	db	117	;'u'
  1282  00FEC7  74                 	db	116	;'t'
  1283  00FEC8  74                 	db	116	;'t'
  1284  00FEC9  6F                 	db	111	;'o'
  1285  00FECA  6E                 	db	110	;'n'
  1286  00FECB  20                 	db	32
  1287  00FECC  73                 	db	115	;'s'
  1288  00FECD  65                 	db	101	;'e'
  1289  00FECE  71                 	db	113	;'q'
  1290  00FECF  75                 	db	117	;'u'
  1291  00FED0  65                 	db	101	;'e'
  1292  00FED1  6E                 	db	110	;'n'
  1293  00FED2  63                 	db	99	;'c'
  1294  00FED3  65                 	db	101	;'e'
  1295  00FED4  3A                 	db	58	;':'
  1296  00FED5  0D                 	db	13
  1297  00FED6  0A                 	db	10
  1298  00FED7  00                 	db	0
  1299  00FED8                     STR_3:
  1300                           
  1301                           ; BSR set to: 0
  1302  00FED8  4E                 	db	78	;'N'
  1303  00FED9  75                 	db	117	;'u'
  1304  00FEDA  6D                 	db	109	;'m'
  1305  00FEDB  62                 	db	98	;'b'
  1306  00FEDC  65                 	db	101	;'e'
  1307  00FEDD  72                 	db	114	;'r'
  1308  00FEDE  20                 	db	32
  1309  00FEDF  6F                 	db	111	;'o'
  1310  00FEE0  66                 	db	102	;'f'
  1311  00FEE1  20                 	db	32
  1312  00FEE2  46                 	db	70	;'F'
  1313  00FEE3  61                 	db	97	;'a'
  1314  00FEE4  6C                 	db	108	;'l'
  1315  00FEE5  6C                 	db	108	;'l'
  1316  00FEE6  69                 	db	105	;'i'
  1317  00FEE7  6E                 	db	110	;'n'
  1318  00FEE8  67                 	db	103	;'g'
  1319  00FEE9  20                 	db	32
  1320  00FEEA  45                 	db	69	;'E'
  1321  00FEEB  64                 	db	100	;'d'
  1322  00FEEC  67                 	db	103	;'g'
  1323  00FEED  65                 	db	101	;'e'
  1324  00FEEE  73                 	db	115	;'s'
  1325  00FEEF  3A                 	db	58	;':'
  1326  00FEF0  20                 	db	32
  1327  00FEF1  25                 	db	37
  1328  00FEF2  75                 	db	117	;'u'
  1329  00FEF3  20                 	db	32
  1330  00FEF4  0D                 	db	13
  1331  00FEF5  0A                 	db	10
  1332  00FEF6  00                 	db	0
  1333  00FEF7                     STR_2:
  1334                           
  1335                           ; BSR set to: 0
  1336  00FEF7  4E                 	db	78	;'N'
  1337  00FEF8  75                 	db	117	;'u'
  1338  00FEF9  6D                 	db	109	;'m'
  1339  00FEFA  62                 	db	98	;'b'
  1340  00FEFB  65                 	db	101	;'e'
  1341  00FEFC  72                 	db	114	;'r'
  1342  00FEFD  20                 	db	32
  1343  00FEFE  6F                 	db	111	;'o'
  1344  00FEFF  66                 	db	102	;'f'
  1345  00FF00  20                 	db	32
  1346  00FF01  52                 	db	82	;'R'
  1347  00FF02  69                 	db	105	;'i'
  1348  00FF03  73                 	db	115	;'s'
  1349  00FF04  69                 	db	105	;'i'
  1350  00FF05  6E                 	db	110	;'n'
  1351  00FF06  67                 	db	103	;'g'
  1352  00FF07  20                 	db	32
  1353  00FF08  45                 	db	69	;'E'
  1354  00FF09  64                 	db	100	;'d'
  1355  00FF0A  67                 	db	103	;'g'
  1356  00FF0B  65                 	db	101	;'e'
  1357  00FF0C  73                 	db	115	;'s'
  1358  00FF0D  3A                 	db	58	;':'
  1359  00FF0E  20                 	db	32
  1360  00FF0F  25                 	db	37
  1361  00FF10  75                 	db	117	;'u'
  1362  00FF11  20                 	db	32
  1363  00FF12  0D                 	db	13
  1364  00FF13  0A                 	db	10
  1365  00FF14  00                 	db	0
  1366  00FF15                     STR_15:
  1367                           
  1368                           ; BSR set to: 0
  1369  00FF15  46                 	db	70	;'F'
  1370  00FF16  69                 	db	105	;'i'
  1371  00FF17  6E                 	db	110	;'n'
  1372  00FF18  69                 	db	105	;'i'
  1373  00FF19  73                 	db	115	;'s'
  1374  00FF1A  68                 	db	104	;'h'
  1375  00FF1B  65                 	db	101	;'e'
  1376  00FF1C  64                 	db	100	;'d'
  1377  00FF1D  20                 	db	32
  1378  00FF1E  72                 	db	114	;'r'
  1379  00FF1F  65                 	db	101	;'e'
  1380  00FF20  63                 	db	99	;'c'
  1381  00FF21  6F                 	db	111	;'o'
  1382  00FF22  72                 	db	114	;'r'
  1383  00FF23  64                 	db	100	;'d'
  1384  00FF24  69                 	db	105	;'i'
  1385  00FF25  6E                 	db	110	;'n'
  1386  00FF26  67                 	db	103	;'g'
  1387  00FF27  20                 	db	32
  1388  00FF28  73                 	db	115	;'s'
  1389  00FF29  65                 	db	101	;'e'
  1390  00FF2A  71                 	db	113	;'q'
  1391  00FF2B  75                 	db	117	;'u'
  1392  00FF2C  65                 	db	101	;'e'
  1393  00FF2D  6E                 	db	110	;'n'
  1394  00FF2E  63                 	db	99	;'c'
  1395  00FF2F  65                 	db	101	;'e'
  1396  00FF30  0D                 	db	13
  1397  00FF31  0A                 	db	10
  1398  00FF32  00                 	db	0
  1399  00FF33                     STR_7:
  1400                           
  1401                           ; BSR set to: 0
  1402  00FF33  4C                 	db	76	;'L'
  1403  00FF34  65                 	db	101	;'e'
  1404  00FF35  74                 	db	116	;'t'
  1405  00FF36  27                 	db	39
  1406  00FF37  73                 	db	115	;'s'
  1407  00FF38  20                 	db	32
  1408  00FF39  63                 	db	99	;'c'
  1409  00FF3A  6C                 	db	108	;'l'
  1410  00FF3B  6F                 	db	111	;'o'
  1411  00FF3C  6E                 	db	110	;'n'
  1412  00FF3D  65                 	db	101	;'e'
  1413  00FF3E  20                 	db	32
  1414  00FF3F  62                 	db	98	;'b'
  1415  00FF40  75                 	db	117	;'u'
  1416  00FF41  74                 	db	116	;'t'
  1417  00FF42  74                 	db	116	;'t'
  1418  00FF43  6F                 	db	111	;'o'
  1419  00FF44  6E                 	db	110	;'n'
  1420  00FF45  73                 	db	115	;'s'
  1421  00FF46  20                 	db	32
  1422  00FF47  31                 	db	49	;'1'
  1423  00FF48  2D                 	db	45
  1424  00FF49  34                 	db	52	;'4'
  1425  00FF4A  0D                 	db	13
  1426  00FF4B  0A                 	db	10
  1427  00FF4C  00                 	db	0
  1428  00FF4D                     STR_18:
  1429                           
  1430                           ; BSR set to: 0
  1431  00FF4D  46                 	db	70	;'F'
  1432  00FF4E  69                 	db	105	;'i'
  1433  00FF4F  6E                 	db	110	;'n'
  1434  00FF50  69                 	db	105	;'i'
  1435  00FF51  73                 	db	115	;'s'
  1436  00FF52  68                 	db	104	;'h'
  1437  00FF53  65                 	db	101	;'e'
  1438  00FF54  64                 	db	100	;'d'
  1439  00FF55  20                 	db	32
  1440  00FF56  74                 	db	116	;'t'
  1441  00FF57  72                 	db	114	;'r'
  1442  00FF58  61                 	db	97	;'a'
  1443  00FF59  6E                 	db	110	;'n'
  1444  00FF5A  73                 	db	115	;'s'
  1445  00FF5B  6D                 	db	109	;'m'
  1446  00FF5C  69                 	db	105	;'i'
  1447  00FF5D  74                 	db	116	;'t'
  1448  00FF5E  74                 	db	116	;'t'
  1449  00FF5F  69                 	db	105	;'i'
  1450  00FF60  6E                 	db	110	;'n'
  1451  00FF61  67                 	db	103	;'g'
  1452  00FF62  0D                 	db	13
  1453  00FF63  0A                 	db	10
  1454  00FF64  00                 	db	0
  1455  00FF65                     STR_8:
  1456                           
  1457                           ; BSR set to: 0
  1458  00FF65  50                 	db	80	;'P'
  1459  00FF66  72                 	db	114	;'r'
  1460  00FF67  65                 	db	101	;'e'
  1461  00FF68  73                 	db	115	;'s'
  1462  00FF69  73                 	db	115	;'s'
  1463  00FF6A  20                 	db	32
  1464  00FF6B  74                 	db	116	;'t'
  1465  00FF6C  68                 	db	104	;'h'
  1466  00FF6D  65                 	db	101	;'e'
  1467  00FF6E  20                 	db	32
  1468  00FF6F  25                 	db	37
  1469  00FF70  75                 	db	117	;'u'
  1470  00FF71  20                 	db	32
  1471  00FF72  62                 	db	98	;'b'
  1472  00FF73  75                 	db	117	;'u'
  1473  00FF74  74                 	db	116	;'t'
  1474  00FF75  74                 	db	116	;'t'
  1475  00FF76  6F                 	db	111	;'o'
  1476  00FF77  6E                 	db	110	;'n'
  1477  00FF78  0D                 	db	13
  1478  00FF79  0A                 	db	10
  1479  00FF7A  00                 	db	0
  1480  00FF7B                     STR_27:
  1481                           
  1482                           ; BSR set to: 0
  1483  00FF7B  55                 	db	85	;'U'
  1484  00FF7C  6E                 	db	110	;'n'
  1485  00FF7D  6B                 	db	107	;'k'
  1486  00FF7E  6E                 	db	110	;'n'
  1487  00FF7F  6F                 	db	111	;'o'
  1488  00FF80  77                 	db	119	;'w'
  1489  00FF81  6E                 	db	110	;'n'
  1490  00FF82  20                 	db	32
  1491  00FF83  6B                 	db	107	;'k'
  1492  00FF84  65                 	db	101	;'e'
  1493  00FF85  79                 	db	121	;'y'
  1494  00FF86  20                 	db	32
  1495  00FF87  25                 	db	37
  1496  00FF88  63                 	db	99	;'c'
  1497  00FF89  0D                 	db	13
  1498  00FF8A  0A                 	db	10
  1499  00FF8B  00                 	db	0
  1500  00FF8C                     STR_20:
  1501                           
  1502                           ; BSR set to: 0
  1503  00FF8C  46                 	db	70	;'F'
  1504  00FF8D  69                 	db	105	;'i'
  1505  00FF8E  6E                 	db	110	;'n'
  1506  00FF8F  61                 	db	97	;'a'
  1507  00FF90  6C                 	db	108	;'l'
  1508  00FF91  20                 	db	32
  1509  00FF92  50                 	db	80	;'P'
  1510  00FF93  72                 	db	114	;'r'
  1511  00FF94  6F                 	db	111	;'o'
  1512  00FF95  6A                 	db	106	;'j'
  1513  00FF96  65                 	db	101	;'e'
  1514  00FF97  63                 	db	99	;'c'
  1515  00FF98  74                 	db	116	;'t'
  1516  00FF99  0D                 	db	13
  1517  00FF9A  0A                 	db	10
  1518  00FF9B  00                 	db	0
  1519  00FF9C                     STR_19:
  1520                           
  1521                           ; BSR set to: 0
  1522  00FF9C  44                 	db	68	;'D'
  1523  00FF9D  65                 	db	101	;'e'
  1524  00FF9E  76                 	db	118	;'v'
  1525  00FF9F  27                 	db	39
  1526  00FFA0  32                 	db	50	;'2'
  1527  00FFA1  30                 	db	48	;'0'
  1528  00FFA2  20                 	db	32
  1529  00FFA3  42                 	db	66	;'B'
  1530  00FFA4  6F                 	db	111	;'o'
  1531  00FFA5  61                 	db	97	;'a'
  1532  00FFA6  72                 	db	114	;'r'
  1533  00FFA7  64                 	db	100	;'d'
  1534  00FFA8  0D                 	db	13
  1535  00FFA9  0A                 	db	10
  1536  00FFAA  00                 	db	0
  1537  00FFAB                     STR_9:
  1538                           
  1539                           ; BSR set to: 0
  1540  00FFAB  09                 	db	9
  1541  00FFAC  43                 	db	67	;'C'
  1542  00FFAD  6F                 	db	111	;'o'
  1543  00FFAE  64                 	db	100	;'d'
  1544  00FFAF  65                 	db	101	;'e'
  1545  00FFB0  3A                 	db	58	;':'
  1546  00FFB1  20                 	db	32
  1547  00FFB2  25                 	db	37
  1548  00FFB3  6C                 	db	108	;'l'
  1549  00FFB4  58                 	db	88	;'X'
  1550  00FFB5  20                 	db	32
  1551  00FFB6  0D                 	db	13
  1552  00FFB7  0A                 	db	10
  1553  00FFB8  00                 	db	0
  1554  00FFB9                     STR_13:
  1555                           
  1556                           ; BSR set to: 0
  1557  00FFB9  09                 	db	9
  1558  00FFBA  53                 	db	83	;'S'
  1559  00FFBB  65                 	db	101	;'e'
  1560  00FFBC  71                 	db	113	;'q'
  1561  00FFBD  75                 	db	117	;'u'
  1562  00FFBE  65                 	db	101	;'e'
  1563  00FFBF  6E                 	db	110	;'n'
  1564  00FFC0  63                 	db	99	;'c'
  1565  00FFC1  65                 	db	101	;'e'
  1566  00FFC2  3A                 	db	58	;':'
  1567  00FFC3  0D                 	db	13
  1568  00FFC4  0A                 	db	10
  1569  00FFC5  00                 	db	0
  1570  00FFC6                     STR_14:
  1571                           
  1572                           ; BSR set to: 0
  1573  00FFC6  09                 	db	9
  1574  00FFC7  09                 	db	9
  1575  00FFC8  20                 	db	32
  1576  00FFC9  2D                 	db	45
  1577  00FFCA  25                 	db	37
  1578  00FFCB  6C                 	db	108	;'l'
  1579  00FFCC  58                 	db	88	;'X'
  1580  00FFCD  20                 	db	32
  1581  00FFCE  0D                 	db	13
  1582  00FFCF  0A                 	db	10
  1583  00FFD0  00                 	db	0
  1584  00FFD1                     STR_17:
  1585                           
  1586                           ; BSR set to: 0
  1587  00FFD1  09                 	db	9
  1588  00FFD2  2D                 	db	45
  1589  00FFD3  25                 	db	37
  1590  00FFD4  6C                 	db	108	;'l'
  1591  00FFD5  58                 	db	88	;'X'
  1592  00FFD6  20                 	db	32
  1593  00FFD7  0D                 	db	13
  1594  00FFD8  0A                 	db	10
  1595  00FFD9  00                 	db	0
  1596  00FFDA                     STR_29:
  1597                           
  1598                           ; BSR set to: 0
  1599  00FFDA  25                 	db	37
  1600  00FFDB  75                 	db	117	;'u'
  1601  00FFDC  20                 	db	32
  1602  00FFDD  75                 	db	117	;'u'
  1603  00FFDE  73                 	db	115	;'s'
  1604  00FFDF  0D                 	db	13
  1605  00FFE0  0A                 	db	10
  1606  00FFE1  00                 	db	0
  1607  00FFE2                     STR_24:
  1608                           
  1609                           ; BSR set to: 0
  1610  00FFE2  6F                 	db	111	;'o'
  1611  00FFE3  3A                 	db	58	;':'
  1612  00FFE4  09                 	db	9
  1613  00FFE5  6F                 	db	111	;'o'
  1614  00FFE6  6B                 	db	107	;'k'
  1615  00FFE7  0D                 	db	13
  1616  00FFE8  0A                 	db	10
  1617  00FFE9  00                 	db	0
  1618  00FFEA                     STR_23:
  1619                           
  1620                           ; BSR set to: 0
  1621  00FFEA  0D                 	db	13
  1622  00FFEB  0A                 	db	10
  1623  00FFEC  3E                 	db	62	;'>'
  1624  00FFED  20                 	db	32
  1625  00FFEE  00                 	db	0
  1626  00FFEF                     STR_45:
  1627                           
  1628                           ; BSR set to: 0
  1629  00FFEF  6C                 	db	108	;'l'
  1630  00FFF0  58                 	db	88	;'X'
  1631  00FFF1  00                 	db	0
  1632  00FFF2                     STR_36:
  1633                           
  1634                           ; BSR set to: 0
  1635  00FFF2  6C                 	db	108	;'l'
  1636  00FFF3  75                 	db	117	;'u'
  1637  00FFF4  00                 	db	0
  1638  00FFF5                     STR_41:
  1639                           
  1640                           ; BSR set to: 0
  1641  00FFF5  6C                 	db	108	;'l'
  1642  00FFF6  78                 	db	120	;'x'
  1643  00FFF7  00                 	db	0
  1644  00FFF8                     STR_34:
  1645                           
  1646                           ; BSR set to: 0
  1647  00FFF8  25                 	db	37
  1648  00FFF9  75                 	db	117	;'u'
  1649  00FFFA  00                 	db	0
  1650  00FFFB                     STR_30:
  1651                           
  1652                           ; BSR set to: 0
  1653  00FFFB  30                 	db	48	;'0'
  1654  00FFFC  00                 	db	0
  1655  00FFFD                     STR_31:
  1656                           
  1657                           ; BSR set to: 0
  1658  00FFFD  31                 	db	49	;'1'
  1659  00FFFE  00                 	db	0
  1660  0000                     
  1661                           ; #config settings
  1662  00FFFF  00                 	db	0	; dummy byte at the end
  1663  0000                     
  1664                           	psect	cinit
  1665  002B26                     __pcinit:
  1666                           	opt callstack 0
  1667  002B26                     start_initialization:
  1668                           	opt callstack 0
  1669  002B26                     __initialization:
  1670                           	opt callstack 0
  1671                           
  1672                           ; Initialize objects allocated to BANK0 (14 bytes)
  1673                           ; load TBLPTR registers with __pidataBANK0
  1674  002B26  0E4A               	movlw	low __pidataBANK0
  1675  002B28  6EF6               	movwf	tblptrl,c
  1676  002B2A  0E2F               	movlw	high __pidataBANK0
  1677  002B2C  6EF7               	movwf	tblptrh,c
  1678  002B2E  0E00               	movlw	low (__pidataBANK0 shr (0+16))
  1679  002B30  6EF8               	movwf	tblptru,c
  1680  002B32  EE00  F0E9         	lfsr	0,__pdataBANK0
  1681  002B36  EE10 F00E          	lfsr	1,14
  1682  002B3A                     copy_data0:
  1683  002B3A  0009               	tblrd		*+
  1684  002B3C  CFF5 FFEE          	movff	tablat,postinc0
  1685  002B40  50E5               	movf	postdec1,w,c
  1686  002B42  50E1               	movf	fsr1l,w,c
  1687  002B44  E1FA               	bnz	copy_data0
  1688                           
  1689                           ; Clear objects allocated to BANK2 (132 bytes)
  1690  002B46  EE02  F000         	lfsr	0,__pbssBANK2
  1691  002B4A  0E84               	movlw	132
  1692  002B4C                     clear_0:
  1693  002B4C  6AEE               	clrf	postinc0,c
  1694  002B4E  06E8               	decf	wreg,f,c
  1695  002B50  E1FD               	bnz	clear_0
  1696                           
  1697                           ; Clear objects allocated to BANK1 (164 bytes)
  1698  002B52  EE01  F000         	lfsr	0,__pbssBANK1
  1699  002B56  0EA4               	movlw	164
  1700  002B58                     clear_1:
  1701  002B58  6AEE               	clrf	postinc0,c
  1702  002B5A  06E8               	decf	wreg,f,c
  1703  002B5C  E1FD               	bnz	clear_1
  1704                           
  1705                           ; Clear objects allocated to BANK0 (76 bytes)
  1706  002B5E  EE00  F060         	lfsr	0,__pbssBANK0
  1707  002B62  0E4C               	movlw	76
  1708  002B64                     clear_2:
  1709  002B64  6AEE               	clrf	postinc0,c
  1710  002B66  06E8               	decf	wreg,f,c
  1711  002B68  E1FD               	bnz	clear_2
  1712                           
  1713                           ; Clear objects allocated to COMRAM (4 bytes)
  1714  002B6A  6A5A               	clrf	(__pbssCOMRAM+3)& (0+255),c
  1715  002B6C  6A59               	clrf	(__pbssCOMRAM+2)& (0+255),c
  1716  002B6E  6A58               	clrf	(__pbssCOMRAM+1)& (0+255),c
  1717  002B70  6A57               	clrf	__pbssCOMRAM& (0+255),c
  1718  002B72                     end_of_initialization:
  1719                           	opt callstack 0
  1720  002B72                     __end_of__initialization:
  1721                           	opt callstack 0
  1722  002B72  905B               	bcf	int$flags,0,c	;clear compiler interrupt flag (level 1)
  1723  002B74  925B               	bcf	int$flags,1,c	;clear compiler interrupt flag (level 2)
  1724  002B76  0100               	movlb	0
  1725  002B78  EF35  F008         	goto	_main	;jump to C main() function
  1726                           
  1727                           	psect	bssCOMRAM
  1728  000057                     __pbssCOMRAM:
  1729                           	opt callstack 0
  1730  000057                     _prec:
  1731                           	opt callstack 0
  1732  000057                     	ds	2
  1733  000059                     _flags:
  1734                           	opt callstack 0
  1735  000059                     	ds	2
  1736                           
  1737                           	psect	bssBANK0
  1738  000060                     __pbssBANK0:
  1739                           	opt callstack 0
  1740  000060                     _numberButtonCodes:
  1741                           	opt callstack 0
  1742  000060                     	ds	16
  1743  000070                     _decodedValue:
  1744                           	opt callstack 0
  1745  000070                     	ds	4
  1746  000074                     _nout:
  1747                           	opt callstack 0
  1748  000074                     	ds	2
  1749  000076                     _width:
  1750                           	opt callstack 0
  1751  000076                     	ds	2
  1752  000078                     ECCP2_ISR@waitDuration:
  1753                           	opt callstack 0
  1754  000078                     	ds	2
  1755  00007A                     _tmrCounts:
  1756                           	opt callstack 0
  1757  00007A                     	ds	2
  1758  00007C                     _EUSART1_ErrorHandler:
  1759                           	opt callstack 0
  1760  00007C                     	ds	2
  1761  00007E                     _EUSART1_OverrunErrorHandler:
  1762                           	opt callstack 0
  1763  00007E                     	ds	2
  1764  000080                     _EUSART1_FramingErrorHandler:
  1765                           	opt callstack 0
  1766  000080                     	ds	2
  1767  000082                     _timer1ReloadVal:
  1768                           	opt callstack 0
  1769  000082                     	ds	2
  1770  000084                     ECCP2_ISR@sentLow:
  1771                           	opt callstack 0
  1772  000084                     	ds	1
  1773  000085                     ECCP2_ISR@shiftMag:
  1774                           	opt callstack 0
  1775  000085                     	ds	1
  1776  000086                     ECCP2_ISR@state:
  1777                           	opt callstack 0
  1778  000086                     	ds	1
  1779  000087                     _transmittingFinished:
  1780                           	opt callstack 0
  1781  000087                     	ds	1
  1782  000088                     _transmitting:
  1783                           	opt callstack 0
  1784  000088                     	ds	1
  1785  000089                     _negEdge:
  1786                           	opt callstack 0
  1787  000089                     	ds	1
  1788  00008A                     _posEdge:
  1789                           	opt callstack 0
  1790  00008A                     	ds	1
  1791  00008B                     _eusart1RxLastError:
  1792                           	opt callstack 0
  1793  00008B                     	ds	1
  1794  00008C                     _dbuf:
  1795                           	opt callstack 0
  1796  00008C                     	ds	32
  1797                           
  1798                           	psect	dataBANK0
  1799  0000E9                     __pdataBANK0:
  1800                           	opt callstack 0
  1801  0000E9                     _referenceDurations:
  1802                           	opt callstack 0
  1803  0000E9                     	ds	14
  1804                           
  1805                           	psect	bssBANK1
  1806  000100                     __pbssBANK1:
  1807                           	opt callstack 0
  1808  000100                     _bitDurations:
  1809                           	opt callstack 0
  1810  000100                     	ds	132
  1811  000184                     _buttonSequenceCodes:
  1812                           	opt callstack 0
  1813  000184                     	ds	32
  1814                           
  1815                           	psect	bssBANK2
  1816  000200                     __pbssBANK2:
  1817                           	opt callstack 0
  1818  000200                     _bitCounts:
  1819                           	opt callstack 0
  1820  000200                     	ds	132
  1821                           
  1822                           	psect	cstackBANK0
  1823  0000AC                     __pcstackBANK0:
  1824                           	opt callstack 0
  1825  0000AC                     vfpfcnvrt@c:
  1826                           	opt callstack 0
  1827                           
  1828                           ; 1 bytes @ 0x0
  1829  0000AC                     	ds	1
  1830  0000AD                     vfpfcnvrt@llu:
  1831                           	opt callstack 0
  1832                           
  1833                           ; 8 bytes @ 0x1
  1834  0000AD                     	ds	8
  1835  0000B5                     ?_vfprintf:
  1836                           	opt callstack 0
  1837  0000B5                     vfprintf@fp:
  1838                           	opt callstack 0
  1839                           
  1840                           ; 2 bytes @ 0x9
  1841  0000B5                     	ds	2
  1842  0000B7                     vfprintf@fmt:
  1843                           	opt callstack 0
  1844                           
  1845                           ; 2 bytes @ 0xB
  1846  0000B7                     	ds	2
  1847  0000B9                     vfprintf@ap:
  1848                           	opt callstack 0
  1849                           
  1850                           ; 2 bytes @ 0xD
  1851  0000B9                     	ds	2
  1852  0000BB                     ?_printf:
  1853                           	opt callstack 0
  1854  0000BB                     printf@fmt:
  1855                           	opt callstack 0
  1856                           
  1857                           ; 2 bytes @ 0xF
  1858  0000BB                     	ds	20
  1859  0000CF                     printf@ap:
  1860                           	opt callstack 0
  1861                           
  1862                           ; 2 bytes @ 0x23
  1863  0000CF                     	ds	2
  1864  0000D1                     ??_recordDurations:
  1865  0000D1                     ??_generalCases:
  1866  0000D1                     ?_decodeBits:
  1867                           	opt callstack 0
  1868  0000D1                     binaryPrint@value:
  1869                           	opt callstack 0
  1870                           
  1871                           ; 4 bytes @ 0x25
  1872  0000D1                     	ds	2
  1873  0000D3                     generalCases@cmd:
  1874                           	opt callstack 0
  1875                           
  1876                           ; 1 bytes @ 0x27
  1877  0000D3                     	ds	1
  1878  0000D4                     generalCases@i:
  1879                           	opt callstack 0
  1880                           
  1881                           ; 1 bytes @ 0x28
  1882  0000D4                     	ds	1
  1883  0000D5                     ??_decodeBits:
  1884  0000D5                     ??_binaryPrint:
  1885                           
  1886                           ; 1 bytes @ 0x29
  1887  0000D5                     	ds	4
  1888  0000D9                     decodeBits@printBinary:
  1889                           	opt callstack 0
  1890  0000D9                     binaryPrint@i:
  1891                           	opt callstack 0
  1892                           
  1893                           ; 2 bytes @ 0x2D
  1894  0000D9                     	ds	1
  1895  0000DA                     decodeBits@decodedVal:
  1896                           	opt callstack 0
  1897                           
  1898                           ; 4 bytes @ 0x2E
  1899  0000DA                     	ds	1
  1900  0000DB                     recordDurations@verbose:
  1901                           	opt callstack 0
  1902                           
  1903                           ; 1 bytes @ 0x2F
  1904  0000DB                     	ds	1
  1905  0000DC                     recordDurations@i:
  1906                           	opt callstack 0
  1907                           
  1908                           ; 1 bytes @ 0x30
  1909  0000DC                     	ds	2
  1910  0000DE                     decodeBits@durationLow:
  1911                           	opt callstack 0
  1912                           
  1913                           ; 2 bytes @ 0x32
  1914  0000DE                     	ds	2
  1915  0000E0                     decodeBits@durationHigh:
  1916                           	opt callstack 0
  1917                           
  1918                           ; 2 bytes @ 0x34
  1919  0000E0                     	ds	2
  1920  0000E2                     decodeBits@i:
  1921                           	opt callstack 0
  1922                           
  1923                           ; 1 bytes @ 0x36
  1924  0000E2                     	ds	1
  1925  0000E3                     ??_main:
  1926                           
  1927                           ; 1 bytes @ 0x37
  1928  0000E3                     	ds	4
  1929  0000E7                     main@cmd:
  1930                           	opt callstack 0
  1931                           
  1932                           ; 1 bytes @ 0x3B
  1933  0000E7                     	ds	1
  1934  0000E8                     main@i:
  1935                           	opt callstack 0
  1936                           
  1937                           ; 1 bytes @ 0x3C
  1938  0000E8                     	ds	1
  1939                           
  1940                           	psect	cstackCOMRAM
  1941  000001                     __pcstackCOMRAM:
  1942                           	opt callstack 0
  1943  000001                     ??_ECCP2_ISR:
  1944  000001                     
  1945                           ; 1 bytes @ 0x0
  1946  000001                     	ds	4
  1947  000005                     ?_strlen:
  1948                           	opt callstack 0
  1949  000005                     ?_isupper:
  1950                           	opt callstack 0
  1951  000005                     ?_isalpha:
  1952                           	opt callstack 0
  1953  000005                     ?_strncmp:
  1954                           	opt callstack 0
  1955  000005                     ?_islower:
  1956                           	opt callstack 0
  1957  000005                     ?___xxtofl:
  1958                           	opt callstack 0
  1959  000005                     ?___lodiv:
  1960                           	opt callstack 0
  1961  000005                     ?___lomod:
  1962                           	opt callstack 0
  1963  000005                     EUSART1_Write@txData:
  1964                           	opt callstack 0
  1965  000005                     EUSART1_SetFramingErrorHandler@interruptHandler:
  1966                           	opt callstack 0
  1967  000005                     EUSART1_SetOverrunErrorHandler@interruptHandler:
  1968                           	opt callstack 0
  1969  000005                     EUSART1_SetErrorHandler@interruptHandler:
  1970                           	opt callstack 0
  1971  000005                     isalpha@c:
  1972                           	opt callstack 0
  1973  000005                     isupper@c:
  1974                           	opt callstack 0
  1975  000005                     memset@dest:
  1976                           	opt callstack 0
  1977  000005                     strlen@s:
  1978                           	opt callstack 0
  1979  000005                     strncmp@_l:
  1980                           	opt callstack 0
  1981  000005                     islower@c:
  1982                           	opt callstack 0
  1983  000005                     ___xxtofl@val:
  1984                           	opt callstack 0
  1985  000005                     ___lodiv@dividend:
  1986                           	opt callstack 0
  1987  000005                     ___lomod@dividend:
  1988                           	opt callstack 0
  1989                           
  1990                           ; 8 bytes @ 0x4
  1991  000005                     	ds	1
  1992  000006                     putch@txData:
  1993                           	opt callstack 0
  1994                           
  1995                           ; 1 bytes @ 0x5
  1996  000006                     	ds	1
  1997  000007                     ??_isupper:
  1998  000007                     ??_isalpha:
  1999  000007                     ??_islower:
  2000  000007                     memset@c:
  2001                           	opt callstack 0
  2002  000007                     fputc@c:
  2003                           	opt callstack 0
  2004  000007                     strlen@a:
  2005                           	opt callstack 0
  2006  000007                     strncmp@_r:
  2007                           	opt callstack 0
  2008                           
  2009                           ; 2 bytes @ 0x6
  2010  000007                     	ds	2
  2011  000009                     ??___xxtofl:
  2012  000009                     memset@n:
  2013                           	opt callstack 0
  2014  000009                     fputc@fp:
  2015                           	opt callstack 0
  2016  000009                     strncmp@n:
  2017                           	opt callstack 0
  2018                           
  2019                           ; 2 bytes @ 0x8
  2020  000009                     	ds	2
  2021  00000B                     ??_memset:
  2022  00000B                     ??_fputc:
  2023  00000B                     ??_strncmp:
  2024  00000B                     ?_toupper:
  2025                           	opt callstack 0
  2026  00000B                     toupper@c:
  2027                           	opt callstack 0
  2028                           
  2029                           ; 2 bytes @ 0xA
  2030  00000B                     	ds	1
  2031  00000C                     strncmp@l:
  2032                           	opt callstack 0
  2033                           
  2034                           ; 2 bytes @ 0xB
  2035  00000C                     	ds	1
  2036  00000D                     ??_toupper:
  2037  00000D                     ___xxtofl@sign:
  2038                           	opt callstack 0
  2039  00000D                     memset@k:
  2040                           	opt callstack 0
  2041  00000D                     ___lodiv@divisor:
  2042                           	opt callstack 0
  2043  00000D                     ___lomod@divisor:
  2044                           	opt callstack 0
  2045                           
  2046                           ; 8 bytes @ 0xC
  2047  00000D                     	ds	1
  2048  00000E                     ___xxtofl@exp:
  2049                           	opt callstack 0
  2050  00000E                     strncmp@r:
  2051                           	opt callstack 0
  2052                           
  2053                           ; 2 bytes @ 0xD
  2054  00000E                     	ds	1
  2055  00000F                     memset@s:
  2056                           	opt callstack 0
  2057  00000F                     ___xxtofl@arg:
  2058                           	opt callstack 0
  2059                           
  2060                           ; 4 bytes @ 0xE
  2061  00000F                     	ds	1
  2062  000010                     fputs@s:
  2063                           	opt callstack 0
  2064                           
  2065                           ; 2 bytes @ 0xF
  2066  000010                     	ds	1
  2067  000011                     _toupper$1991:
  2068                           	opt callstack 0
  2069                           
  2070                           ; 2 bytes @ 0x10
  2071  000011                     	ds	1
  2072  000012                     fputs@fp:
  2073                           	opt callstack 0
  2074                           
  2075                           ; 2 bytes @ 0x11
  2076  000012                     	ds	1
  2077  000013                     ?___flmul:
  2078                           	opt callstack 0
  2079  000013                     ___flmul@b:
  2080                           	opt callstack 0
  2081                           
  2082                           ; 4 bytes @ 0x12
  2083  000013                     	ds	1
  2084  000014                     fputs@c:
  2085                           	opt callstack 0
  2086                           
  2087                           ; 1 bytes @ 0x13
  2088  000014                     	ds	1
  2089  000015                     ___lomod@counter:
  2090                           	opt callstack 0
  2091  000015                     fputs@i:
  2092                           	opt callstack 0
  2093  000015                     ___lodiv@quotient:
  2094                           	opt callstack 0
  2095                           
  2096                           ; 8 bytes @ 0x14
  2097  000015                     	ds	2
  2098  000017                     ?_pad:
  2099                           	opt callstack 0
  2100  000017                     pad@fp:
  2101                           	opt callstack 0
  2102  000017                     ___flmul@a:
  2103                           	opt callstack 0
  2104                           
  2105                           ; 4 bytes @ 0x16
  2106  000017                     	ds	2
  2107  000019                     pad@buf:
  2108                           	opt callstack 0
  2109                           
  2110                           ; 2 bytes @ 0x18
  2111  000019                     	ds	2
  2112  00001B                     ??___flmul:
  2113  00001B                     pad@p:
  2114                           	opt callstack 0
  2115                           
  2116                           ; 2 bytes @ 0x1A
  2117  00001B                     	ds	2
  2118  00001D                     ??_pad:
  2119  00001D                     ___lodiv@counter:
  2120                           	opt callstack 0
  2121                           
  2122                           ; 1 bytes @ 0x1C
  2123  00001D                     	ds	1
  2124  00001E                     pad@i:
  2125                           	opt callstack 0
  2126                           
  2127                           ; 2 bytes @ 0x1D
  2128  00001E                     	ds	1
  2129  00001F                     ___flmul@sign:
  2130                           	opt callstack 0
  2131                           
  2132                           ; 1 bytes @ 0x1E
  2133  00001F                     	ds	1
  2134  000020                     pad@w:
  2135                           	opt callstack 0
  2136  000020                     ___flmul@grs:
  2137                           	opt callstack 0
  2138                           
  2139                           ; 4 bytes @ 0x1F
  2140  000020                     	ds	2
  2141  000022                     ?_ctoa:
  2142                           	opt callstack 0
  2143  000022                     ?_utoa:
  2144                           	opt callstack 0
  2145  000022                     ?_xtoa:
  2146                           	opt callstack 0
  2147  000022                     ctoa@fp:
  2148                           	opt callstack 0
  2149  000022                     utoa@fp:
  2150                           	opt callstack 0
  2151  000022                     xtoa@fp:
  2152                           	opt callstack 0
  2153                           
  2154                           ; 2 bytes @ 0x21
  2155  000022                     	ds	2
  2156  000024                     ctoa@c:
  2157                           	opt callstack 0
  2158  000024                     ___flmul@aexp:
  2159                           	opt callstack 0
  2160  000024                     utoa@d:
  2161                           	opt callstack 0
  2162  000024                     xtoa@d:
  2163                           	opt callstack 0
  2164                           
  2165                           ; 8 bytes @ 0x23
  2166  000024                     	ds	1
  2167  000025                     ___flmul@bexp:
  2168                           	opt callstack 0
  2169  000025                     ctoa@w:
  2170                           	opt callstack 0
  2171                           
  2172                           ; 2 bytes @ 0x24
  2173  000025                     	ds	1
  2174  000026                     ___flmul@prod:
  2175                           	opt callstack 0
  2176                           
  2177                           ; 4 bytes @ 0x25
  2178  000026                     	ds	4
  2179  00002A                     ___flmul@temp:
  2180                           	opt callstack 0
  2181                           
  2182                           ; 2 bytes @ 0x29
  2183  00002A                     	ds	2
  2184  00002C                     ??_utoa:
  2185  00002C                     ?___fladd:
  2186                           	opt callstack 0
  2187  00002C                     xtoa@x:
  2188                           	opt callstack 0
  2189  00002C                     ___fladd@b:
  2190                           	opt callstack 0
  2191                           
  2192                           ; 4 bytes @ 0x2B
  2193  00002C                     	ds	1
  2194  00002D                     ??_xtoa:
  2195                           
  2196                           ; 1 bytes @ 0x2C
  2197  00002D                     	ds	3
  2198  000030                     ___fladd@a:
  2199                           	opt callstack 0
  2200                           
  2201                           ; 4 bytes @ 0x2F
  2202  000030                     	ds	4
  2203  000034                     ??___fladd:
  2204  000034                     utoa@p:
  2205                           	opt callstack 0
  2206                           
  2207                           ; 2 bytes @ 0x33
  2208  000034                     	ds	1
  2209  000035                     _xtoa$1433:
  2210                           	opt callstack 0
  2211                           
  2212                           ; 2 bytes @ 0x34
  2213  000035                     	ds	1
  2214  000036                     utoa@w:
  2215                           	opt callstack 0
  2216                           
  2217                           ; 2 bytes @ 0x35
  2218  000036                     	ds	1
  2219  000037                     _xtoa$1434:
  2220                           	opt callstack 0
  2221                           
  2222                           ; 2 bytes @ 0x36
  2223  000037                     	ds	1
  2224  000038                     ___fladd@signs:
  2225                           	opt callstack 0
  2226  000038                     utoa@n:
  2227                           	opt callstack 0
  2228                           
  2229                           ; 8 bytes @ 0x37
  2230  000038                     	ds	1
  2231  000039                     ___fladd@aexp:
  2232                           	opt callstack 0
  2233  000039                     xtoa@p:
  2234                           	opt callstack 0
  2235                           
  2236                           ; 2 bytes @ 0x38
  2237  000039                     	ds	1
  2238  00003A                     ___fladd@bexp:
  2239                           	opt callstack 0
  2240                           
  2241                           ; 1 bytes @ 0x39
  2242  00003A                     	ds	1
  2243  00003B                     ___fladd@grs:
  2244                           	opt callstack 0
  2245  00003B                     xtoa@w:
  2246                           	opt callstack 0
  2247                           
  2248                           ; 2 bytes @ 0x3A
  2249  00003B                     	ds	1
  2250  00003C                     ?___flsub:
  2251                           	opt callstack 0
  2252  00003C                     ___flsub@b:
  2253                           	opt callstack 0
  2254                           
  2255                           ; 4 bytes @ 0x3B
  2256  00003C                     	ds	1
  2257  00003D                     xtoa@n:
  2258                           	opt callstack 0
  2259                           
  2260                           ; 8 bytes @ 0x3C
  2261  00003D                     	ds	3
  2262  000040                     utoa@i:
  2263                           	opt callstack 0
  2264  000040                     ___flsub@a:
  2265                           	opt callstack 0
  2266                           
  2267                           ; 4 bytes @ 0x3F
  2268  000040                     	ds	4
  2269  000044                     ___flge@ff1:
  2270                           	opt callstack 0
  2271                           
  2272                           ; 4 bytes @ 0x43
  2273  000044                     	ds	1
  2274  000045                     xtoa@i:
  2275                           	opt callstack 0
  2276                           
  2277                           ; 2 bytes @ 0x44
  2278  000045                     	ds	2
  2279  000047                     xtoa@c:
  2280                           	opt callstack 0
  2281                           
  2282                           ; 2 bytes @ 0x46
  2283  000047                     	ds	1
  2284  000048                     ___flge@ff2:
  2285                           	opt callstack 0
  2286                           
  2287                           ; 4 bytes @ 0x47
  2288  000048                     	ds	1
  2289  000049                     ?_vfpfcnvrt:
  2290                           	opt callstack 0
  2291  000049                     vfpfcnvrt@fp:
  2292                           	opt callstack 0
  2293                           
  2294                           ; 2 bytes @ 0x48
  2295  000049                     	ds	2
  2296  00004B                     vfpfcnvrt@fmt:
  2297                           	opt callstack 0
  2298                           
  2299                           ; 2 bytes @ 0x4A
  2300  00004B                     	ds	1
  2301  00004C                     ??___flge:
  2302                           
  2303                           ; 1 bytes @ 0x4B
  2304  00004C                     	ds	1
  2305  00004D                     vfpfcnvrt@ap:
  2306                           	opt callstack 0
  2307                           
  2308                           ; 2 bytes @ 0x4C
  2309  00004D                     	ds	2
  2310  00004F                     ??_vfpfcnvrt:
  2311                           
  2312                           ; 1 bytes @ 0x4E
  2313  00004F                     	ds	6
  2314  000055                     vfprintf@cfmt:
  2315                           	opt callstack 0
  2316                           
  2317                           ; 2 bytes @ 0x54
  2318  000055                     	ds	2
  2319  000057                     
  2320                           ; 1 bytes @ 0x56
  2321 ;;
  2322 ;;Main: autosize = 0, tempsize = 4, incstack = 0, save=0
  2323 ;;
  2324 ;; *************** function _main *****************
  2325 ;; Defined at:
  2326 ;;		line 32 in file "main.c"
  2327 ;; Parameters:    Size  Location     Type
  2328 ;;		None
  2329 ;; Auto vars:     Size  Location     Type
  2330 ;;  i               1   60[BANK0 ] unsigned char 
  2331 ;;  cmd             1   59[BANK0 ] unsigned char 
  2332 ;; Return value:  Size  Location     Type
  2333 ;;                  1    wreg      void 
  2334 ;; Registers used:
  2335 ;;		wreg, fsr1l, fsr1h, fsr2l, fsr2h, status,2, status,0, tblptrl, tblptrh, tblptru, prodl, prodh, cstack
  2336 ;; Tracked objects:
  2337 ;;		On entry : 0/0
  2338 ;;		On exit  : 0/0
  2339 ;;		Unchanged: 0/0
  2340 ;; Data sizes:     COMRAM   BANK0   BANK1   BANK2   BANK3   BANK4   BANK5   BANK6   BANK7   BANK8   BANK9  BANK10  BANK1
      +1  BANK12  BANK13  BANK14  BANK15
  2341 ;;      Params:         0       0       0       0       0       0       0       0       0       0       0       0       
      +0       0       0       0       0
  2342 ;;      Locals:         0       2       0       0       0       0       0       0       0       0       0       0       
      +0       0       0       0       0
  2343 ;;      Temps:          0       4       0       0       0       0       0       0       0       0       0       0       
      +0       0       0       0       0
  2344 ;;      Totals:         0       6       0       0       0       0       0       0       0       0       0       0       
      +0       0       0       0       0
  2345 ;;Total ram usage:        6 bytes
  2346 ;; Hardware stack levels required when called:   15
  2347 ;; This function calls:
  2348 ;;		_EUSART1_Read
  2349 ;;		_EUSART1_is_rx_ready
  2350 ;;		_binaryPrint
  2351 ;;		_captureOne
  2352 ;;		_decodeBits
  2353 ;;		_generalCases
  2354 ;;		_initializeAll
  2355 ;;		_memset
  2356 ;;		_printSevenDurations
  2357 ;;		_printf
  2358 ;;		_recordDurations
  2359 ;;		_setSevenDurations
  2360 ;; This function is called by:
  2361 ;;		Startup code after reset
  2362 ;; This function uses a non-reentrant model
  2363 ;;
  2364                           
  2365                           	psect	text0
  2366  00106A                     __ptext0:
  2367                           	opt callstack 0
  2368  00106A                     _main:
  2369                           	opt callstack 16
  2370  00106A                     
  2371                           ;main.c: 33: ;main.c: 34:                     if(bitCounts[i] == 0){;main.c: 36:        
      +                                       }
  2372  00106A  EC67  F015         	call	_initializeAll	;wreg free
  2373  00106E                     
  2374                           ;main.c: 37: 
  2375  00106E  5066               	movf	102,w,c	;volatile
  2376  001070  0BF0               	andlw	-16
  2377  001072  0909               	iorlw	9
  2378  001074  6E66               	movwf	102,c	;volatile
  2379  001076                     l4740:
  2380                           
  2381                           ;main.c: 43:                     }
  2382  001076  EC9B  F017         	call	_EUSART1_is_rx_ready	;wreg free
  2383  00107A  0900               	iorlw	0
  2384  00107C  B4D8               	btfsc	status,2,c
  2385  00107E  EF43  F008         	goto	u4771
  2386  001082  EF45  F008         	goto	u4770
  2387  001086                     u4771:
  2388  001086  EF3B  F008         	goto	l4740
  2389  00108A                     u4770:
  2390  00108A                     
  2391                           ;main.c: 44:                 }
  2392  00108A  ECEF  F016         	call	_EUSART1_Read	;wreg free
  2393  00108E  0100               	movlb	0	; () banked
  2394  001090  6FE7               	movwf	main@cmd& (0+255),b
  2395                           
  2396                           ;main.c: 45:                 printf("Number of Rising Edges: %u \r\n", posEdge);
  2397  001092  EF1D  F00A         	goto	l4888
  2398  001096                     l4744:
  2399                           
  2400                           ; BSR set to: 0
  2401                           ;main.c: 50: 
  2402  001096  0E00               	movlw	0
  2403  001098  6F89               	movwf	_negEdge& (0+255),b
  2404                           
  2405                           ;main.c: 51: 
  2406  00109A  0E00               	movlw	0
  2407  00109C  6F8A               	movwf	_posEdge& (0+255),b
  2408  00109E                     
  2409                           ; BSR set to: 0
  2410                           ;main.c: 52:             case 't':
  2411  00109E  0EB9               	movlw	low STR_1
  2412  0010A0  6FBB               	movwf	printf@fmt& (0+255),b
  2413  0010A2  0EFD               	movlw	high STR_1
  2414  0010A4  6FBC               	movwf	(printf@fmt+1)& (0+255),b
  2415  0010A6  EC04  F017         	call	_printf	;wreg free
  2416  0010AA                     
  2417                           ;main.c: 58: 
  2418  0010AA  0E00               	movlw	0
  2419  0010AC  0100               	movlb	0	; () banked
  2420  0010AE  6FE8               	movwf	main@i& (0+255),b
  2421  0010B0                     l4754:
  2422                           
  2423                           ; BSR set to: 0
  2424                           ;main.c: 59: 
  2425  0010B0  EC18  F017         	call	_captureOne	;wreg free
  2426  0010B4                     
  2427                           ;main.c: 60: 
  2428  0010B4  0100               	movlb	0	; () banked
  2429  0010B6  51E8               	movf	main@i& (0+255),w,b
  2430  0010B8  0D02               	mullw	2
  2431  0010BA  0E00               	movlw	low _bitCounts
  2432  0010BC  24F3               	addwf	243,w,c
  2433  0010BE  6ED9               	movwf	fsr2l,c
  2434  0010C0  0E02               	movlw	high _bitCounts
  2435  0010C2  20F4               	addwfc	prodh,w,c
  2436  0010C4  6EDA               	movwf	fsr2h,c
  2437  0010C6  C07A  FFDE         	movff	_tmrCounts,postinc2
  2438  0010CA  C07B  FFDD         	movff	_tmrCounts+1,postdec2
  2439  0010CE                     
  2440                           ; BSR set to: 0
  2441                           ;main.c: 62:             case 'd':
  2442  0010CE  51E8               	movf	main@i& (0+255),w,b
  2443  0010D0  0D02               	mullw	2
  2444  0010D2  0E00               	movlw	low _bitCounts
  2445  0010D4  24F3               	addwf	243,w,c
  2446  0010D6  6ED9               	movwf	fsr2l,c
  2447  0010D8  0E02               	movlw	high _bitCounts
  2448  0010DA  20F4               	addwfc	prodh,w,c
  2449  0010DC  6EDA               	movwf	fsr2h,c
  2450  0010DE  50DE               	movf	postinc2,w,c
  2451  0010E0  10DE               	iorwf	postinc2,w,c
  2452  0010E2  A4D8               	btfss	status,2,c
  2453  0010E4  EF76  F008         	goto	u4781
  2454  0010E8  EF78  F008         	goto	u4780
  2455  0010EC                     u4781:
  2456  0010EC  EF7A  F008         	goto	l347
  2457  0010F0                     u4780:
  2458  0010F0  EF8E  F008         	goto	l4770
  2459  0010F4                     l347:
  2460                           
  2461                           ; BSR set to: 0
  2462                           ;main.c: 67:                 break;
  2463  0010F4  A1E8               	btfss	main@i& (0+255),0,b
  2464  0010F6  EF7F  F008         	goto	u4791
  2465  0010FA  EF81  F008         	goto	u4790
  2466  0010FE                     u4791:
  2467  0010FE  EF84  F008         	goto	l4766
  2468  001102                     u4790:
  2469  001102                     
  2470                           ; BSR set to: 0
  2471                           ;main.c: 68: 
  2472  001102  2B8A               	incf	_posEdge& (0+255),f,b
  2473  001104  EF85  F008         	goto	l348
  2474  001108                     l4766:
  2475                           
  2476                           ; BSR set to: 0
  2477                           ;main.c: 70: 
  2478  001108  2B89               	incf	_negEdge& (0+255),f,b
  2479  00110A                     l348:
  2480                           
  2481                           ; BSR set to: 0
  2482                           ;main.c: 72:             case 'l':
  2483  00110A  2BE8               	incf	main@i& (0+255),f,b
  2484  00110C                     
  2485                           ; BSR set to: 0
  2486  00110C  0E41               	movlw	65
  2487  00110E  65E8               	cpfsgt	main@i& (0+255),b
  2488  001110  EF8C  F008         	goto	u4801
  2489  001114  EF8E  F008         	goto	u4800
  2490  001118                     u4801:
  2491  001118  EF58  F008         	goto	l4754
  2492  00111C                     u4800:
  2493  00111C                     l4770:
  2494                           
  2495                           ; BSR set to: 0
  2496                           ;main.c: 73:                 printf("Let's clone buttons 1-4\r\n");
  2497  00111C  0EF7               	movlw	low STR_2
  2498  00111E  6FBB               	movwf	printf@fmt& (0+255),b
  2499  001120  0EFE               	movlw	high STR_2
  2500  001122  6FBC               	movwf	(printf@fmt+1)& (0+255),b
  2501  001124  C08A  F0BD         	movff	_posEdge,?_printf+2
  2502  001128  6BBE               	clrf	(?_printf+3)& (0+255),b
  2503  00112A  EC04  F017         	call	_printf	;wreg free
  2504                           
  2505                           ;main.c: 74:                 for(i = 0; i < 4; i++) {
  2506  00112E  0ED8               	movlw	low STR_3
  2507  001130  0100               	movlb	0	; () banked
  2508  001132  6FBB               	movwf	printf@fmt& (0+255),b
  2509  001134  0EFE               	movlw	high STR_3
  2510  001136  6FBC               	movwf	(printf@fmt+1)& (0+255),b
  2511  001138  C089  F0BD         	movff	_negEdge,?_printf+2
  2512  00113C  6BBE               	clrf	(?_printf+3)& (0+255),b
  2513  00113E  EC04  F017         	call	_printf	;wreg free
  2514                           
  2515                           ;main.c: 75:                     printf("Press the %u button\r\n", i+1);
  2516  001142  EF3B  F008         	goto	l4740
  2517  001146                     l4772:
  2518                           
  2519                           ; BSR set to: 0
  2520                           ;main.c: 81:                 printf("Finished learning buttons 1-4\r\n");
  2521  001146  0E2B               	movlw	low STR_4
  2522  001148  6FBB               	movwf	printf@fmt& (0+255),b
  2523  00114A  0EFE               	movlw	high STR_4
  2524  00114C  6FBC               	movwf	(printf@fmt+1)& (0+255),b
  2525  00114E  EC04  F017         	call	_printf	;wreg free
  2526  001152                     
  2527                           ;main.c: 82:                 break;
  2528  001152  0E01               	movlw	1
  2529  001154  ECB9  F011         	call	_recordDurations
  2530  001158                     
  2531                           ;main.c: 83: 
  2532  001158  EC6A  F016         	call	_setSevenDurations	;wreg free
  2533  00115C                     l4778:
  2534                           
  2535                           ;main.c: 84: 
  2536  00115C  ECBE  F015         	call	_printSevenDurations	;wreg free
  2537                           
  2538                           ;main.c: 85: 
  2539  001160  EF3B  F008         	goto	l4740
  2540  001164                     l4780:
  2541                           
  2542                           ; BSR set to: 0
  2543                           ;main.c: 91:                 printf("Producing signal for %c button\r\n", cmd);
  2544  001164  0E53               	movlw	low STR_5
  2545  001166  6FBB               	movwf	printf@fmt& (0+255),b
  2546  001168  0EFE               	movlw	high STR_5
  2547  00116A  6FBC               	movwf	(printf@fmt+1)& (0+255),b
  2548  00116C  EC04  F017         	call	_printf	;wreg free
  2549  001170                     
  2550                           ;main.c: 92:                 decodedValue = numberButtonCodes[((uint8_t)(i))-1];
  2551  001170  0E00               	movlw	0
  2552  001172  ECB9  F011         	call	_recordDurations
  2553  001176                     
  2554                           ;main.c: 93:                 CCP2CONbits.CCP2M = 0b0010;
  2555  001176  0E00               	movlw	0
  2556  001178  EC20  F000         	call	_decodeBits
  2557  00117C  C0D1  F070         	movff	?_decodeBits,_decodedValue
  2558  001180  C0D2  F071         	movff	?_decodeBits+1,_decodedValue+1
  2559  001184  C0D3  F072         	movff	?_decodeBits+2,_decodedValue+2
  2560  001188  C0D4  F073         	movff	?_decodeBits+3,_decodedValue+3
  2561                           
  2562                           ;main.c: 94:                 transmitting = 1;
  2563  00118C  0EAC               	movlw	low (STR_9+1)
  2564  00118E  0100               	movlb	0	; () banked
  2565  001190  6FBB               	movwf	printf@fmt& (0+255),b
  2566  001192  0EFF               	movlw	high (STR_9+1)
  2567  001194  6FBC               	movwf	(printf@fmt+1)& (0+255),b
  2568  001196  C070  F0BD         	movff	_decodedValue,?_printf+2
  2569  00119A  C071  F0BE         	movff	_decodedValue+1,?_printf+3
  2570  00119E  C072  F0BF         	movff	_decodedValue+2,?_printf+4
  2571  0011A2  C073  F0C0         	movff	_decodedValue+3,?_printf+5
  2572  0011A6  EC04  F017         	call	_printf	;wreg free
  2573                           
  2574                           ;main.c: 95:                 transmittingFinished = 0;
  2575  0011AA  EF3B  F008         	goto	l4740
  2576  0011AE                     l4786:
  2577                           
  2578                           ; BSR set to: 0
  2579                           ;main.c: 101: 
  2580  0011AE  0E33               	movlw	low STR_7
  2581  0011B0  6FBB               	movwf	printf@fmt& (0+255),b
  2582  0011B2  0EFF               	movlw	high STR_7
  2583  0011B4  6FBC               	movwf	(printf@fmt+1)& (0+255),b
  2584  0011B6  EC04  F017         	call	_printf	;wreg free
  2585  0011BA                     
  2586                           ;main.c: 102: 
  2587  0011BA  0E00               	movlw	0
  2588  0011BC  0100               	movlb	0	; () banked
  2589  0011BE  6FE8               	movwf	main@i& (0+255),b
  2590  0011C0                     l4794:
  2591                           
  2592                           ; BSR set to: 0
  2593                           ;main.c: 103: 
  2594  0011C0  0E65               	movlw	low STR_8
  2595  0011C2  6FBB               	movwf	printf@fmt& (0+255),b
  2596  0011C4  0EFF               	movlw	high STR_8
  2597  0011C6  6FBC               	movwf	(printf@fmt+1)& (0+255),b
  2598  0011C8  0E01               	movlw	1
  2599  0011CA  25E8               	addwf	main@i& (0+255),w,b
  2600  0011CC  6FBD               	movwf	(?_printf+2)& (0+255),b
  2601  0011CE  6BBE               	clrf	(?_printf+3)& (0+255),b
  2602  0011D0  0E00               	movlw	0
  2603  0011D2  23BE               	addwfc	(?_printf+3)& (0+255),f,b
  2604  0011D4  EC04  F017         	call	_printf	;wreg free
  2605  0011D8                     
  2606                           ;main.c: 104: 
  2607  0011D8  0E00               	movlw	0
  2608  0011DA  ECB9  F011         	call	_recordDurations
  2609  0011DE                     
  2610                           ;main.c: 105:             case 's':
  2611  0011DE  0E00               	movlw	0
  2612  0011E0  EC20  F000         	call	_decodeBits
  2613  0011E4  C0D1  F070         	movff	?_decodeBits,_decodedValue
  2614  0011E8  C0D2  F071         	movff	?_decodeBits+1,_decodedValue+1
  2615  0011EC  C0D3  F072         	movff	?_decodeBits+2,_decodedValue+2
  2616  0011F0  C0D4  F073         	movff	?_decodeBits+3,_decodedValue+3
  2617                           
  2618                           ;main.c: 106:                 printf("Press buttons to record a sequence (max: %u button
      +                          s). Press any key when done\r\n", 8);
  2619  0011F4  0EAB               	movlw	low STR_9
  2620  0011F6  0100               	movlb	0	; () banked
  2621  0011F8  6FBB               	movwf	printf@fmt& (0+255),b
  2622  0011FA  0EFF               	movlw	high STR_9
  2623  0011FC  6FBC               	movwf	(printf@fmt+1)& (0+255),b
  2624  0011FE  C070  F0BD         	movff	_decodedValue,?_printf+2
  2625  001202  C071  F0BE         	movff	_decodedValue+1,?_printf+3
  2626  001206  C072  F0BF         	movff	_decodedValue+2,?_printf+4
  2627  00120A  C073  F0C0         	movff	_decodedValue+3,?_printf+5
  2628  00120E  EC04  F017         	call	_printf	;wreg free
  2629  001212                     
  2630                           ;main.c: 107:                 memset(buttonSequenceCodes, 0, sizeof(buttonSequenceCodes)
      +                          );
  2631  001212  0100               	movlb	0	; () banked
  2632  001214  51E8               	movf	main@i& (0+255),w,b
  2633  001216  0D04               	mullw	4
  2634  001218  0E60               	movlw	low _numberButtonCodes
  2635  00121A  24F3               	addwf	243,w,c
  2636  00121C  6ED9               	movwf	fsr2l,c
  2637  00121E  0E00               	movlw	high _numberButtonCodes
  2638  001220  20F4               	addwfc	prodh,w,c
  2639  001222  6EDA               	movwf	fsr2h,c
  2640  001224  C070  FFDE         	movff	_decodedValue,postinc2
  2641  001228  C071  FFDE         	movff	_decodedValue+1,postinc2
  2642  00122C  C072  FFDE         	movff	_decodedValue+2,postinc2
  2643  001230  C073  FFDE         	movff	_decodedValue+3,postinc2
  2644  001234                     
  2645                           ; BSR set to: 0
  2646                           ;main.c: 108:                 printf("\tSequence:\r\n");
  2647  001234  2BE8               	incf	main@i& (0+255),f,b
  2648  001236                     
  2649                           ; BSR set to: 0
  2650  001236  0E03               	movlw	3
  2651  001238  65E8               	cpfsgt	main@i& (0+255),b
  2652  00123A  EF21  F009         	goto	u4811
  2653  00123E  EF23  F009         	goto	u4810
  2654  001242                     u4811:
  2655  001242  EFE0  F008         	goto	l4794
  2656  001246                     u4810:
  2657  001246                     
  2658                           ; BSR set to: 0
  2659                           ;main.c: 109:                 for(i = 0; i < 8; i++) {
  2660  001246  0E98               	movlw	low STR_10
  2661  001248  6FBB               	movwf	printf@fmt& (0+255),b
  2662  00124A  0EFE               	movlw	high STR_10
  2663  00124C  6FBC               	movwf	(printf@fmt+1)& (0+255),b
  2664  00124E  EC04  F017         	call	_printf	;wreg free
  2665                           
  2666                           ;main.c: 110:                     if((EUSART1_is_rx_ready()))
  2667  001252  EF3B  F008         	goto	l4740
  2668  001256                     l359:
  2669  001256                     l4808:
  2670                           
  2671                           ; BSR set to: 0
  2672                           ;main.c: 119: 
  2673  001256  0E77               	movlw	low STR_11
  2674  001258  6FBB               	movwf	printf@fmt& (0+255),b
  2675  00125A  0EFE               	movlw	high STR_11
  2676  00125C  6FBC               	movwf	(printf@fmt+1)& (0+255),b
  2677  00125E  C0E7  F0BD         	movff	main@cmd,?_printf+2
  2678  001262  6BBE               	clrf	(?_printf+3)& (0+255),b
  2679  001264  EC04  F017         	call	_printf	;wreg free
  2680  001268                     
  2681                           ;main.c: 120:                 break;
  2682  001268  0100               	movlb	0	; () banked
  2683  00126A  51E8               	movf	main@i& (0+255),w,b
  2684  00126C  6FE3               	movwf	??_main& (0+255),b
  2685  00126E  6BE4               	clrf	(??_main+1)& (0+255),b
  2686  001270  90D8               	bcf	status,0,c
  2687  001272  37E3               	rlcf	??_main& (0+255),f,b
  2688  001274  37E4               	rlcf	(??_main+1)& (0+255),f,b
  2689  001276  90D8               	bcf	status,0,c
  2690  001278  37E3               	rlcf	??_main& (0+255),f,b
  2691  00127A  37E4               	rlcf	(??_main+1)& (0+255),f,b
  2692  00127C  0E5C               	movlw	low (_numberButtonCodes+65532)
  2693  00127E  25E3               	addwf	??_main& (0+255),w,b
  2694  001280  6ED9               	movwf	fsr2l,c
  2695  001282  0E00               	movlw	high (_numberButtonCodes+65532)
  2696  001284  21E4               	addwfc	(??_main+1)& (0+255),w,b
  2697  001286  6EDA               	movwf	fsr2h,c
  2698  001288  CFDE F070          	movff	postinc2,_decodedValue
  2699  00128C  CFDE F071          	movff	postinc2,_decodedValue+1
  2700  001290  CFDE F072          	movff	postinc2,_decodedValue+2
  2701  001294  CFDE F073          	movff	postinc2,_decodedValue+3
  2702  001298                     
  2703                           ; BSR set to: 0
  2704                           ;main.c: 121: 
  2705  001298  5066               	movf	102,w,c	;volatile
  2706  00129A  0BF0               	andlw	-16
  2707  00129C  0902               	iorlw	2
  2708  00129E  6E66               	movwf	102,c	;volatile
  2709  0012A0                     
  2710                           ; BSR set to: 0
  2711                           ;main.c: 122: 
  2712  0012A0  0E01               	movlw	1
  2713  0012A2  6F88               	movwf	_transmitting& (0+255),b
  2714  0012A4                     
  2715                           ; BSR set to: 0
  2716                           ;main.c: 123: 
  2717  0012A4  0E00               	movlw	0
  2718  0012A6  6F87               	movwf	_transmittingFinished& (0+255),b
  2719  0012A8                     l4818:
  2720                           
  2721                           ; BSR set to: 0
  2722  0012A8  5187               	movf	_transmittingFinished& (0+255),w,b
  2723  0012AA  B4D8               	btfsc	status,2,c
  2724  0012AC  EF5A  F009         	goto	u4821
  2725  0012B0  EF5C  F009         	goto	u4820
  2726  0012B4                     u4821:
  2727  0012B4  EF54  F009         	goto	l4818
  2728  0012B8                     u4820:
  2729  0012B8                     
  2730                           ; BSR set to: 0
  2731                           ;main.c: 127:                     if(!buttonSequenceCodes[i])
  2732  0012B8  5066               	movf	102,w,c	;volatile
  2733  0012BA  0BF0               	andlw	-16
  2734  0012BC  0909               	iorlw	9
  2735  0012BE  6E66               	movwf	102,c	;volatile
  2736                           
  2737                           ;main.c: 128:                         break;
  2738  0012C0  EF3B  F008         	goto	l4740
  2739  0012C4                     l4822:
  2740                           
  2741                           ; BSR set to: 0
  2742                           ;main.c: 134: 
  2743  0012C4  0E28               	movlw	low STR_12
  2744  0012C6  6FBB               	movwf	printf@fmt& (0+255),b
  2745  0012C8  0EFD               	movlw	high STR_12
  2746  0012CA  6FBC               	movwf	(printf@fmt+1)& (0+255),b
  2747  0012CC  0E00               	movlw	0
  2748  0012CE  6FBE               	movwf	(?_printf+3)& (0+255),b
  2749  0012D0  0E08               	movlw	8
  2750  0012D2  6FBD               	movwf	(?_printf+2)& (0+255),b
  2751  0012D4  EC04  F017         	call	_printf	;wreg free
  2752  0012D8                     
  2753                           ;main.c: 135:             case 'b':
  2754  0012D8  0E84               	movlw	low _buttonSequenceCodes
  2755  0012DA  6E05               	movwf	memset@dest^0,c
  2756  0012DC  0E01               	movlw	high _buttonSequenceCodes
  2757  0012DE  6E06               	movwf	(memset@dest+1)^0,c
  2758  0012E0  0E00               	movlw	0
  2759  0012E2  6E08               	movwf	(memset@c+1)^0,c
  2760  0012E4  0E00               	movlw	0
  2761  0012E6  6E07               	movwf	memset@c^0,c
  2762  0012E8  0E00               	movlw	0
  2763  0012EA  6E0A               	movwf	(memset@n+1)^0,c
  2764  0012EC  0E20               	movlw	32
  2765  0012EE  6E09               	movwf	memset@n^0,c
  2766  0012F0  EC7C  F010         	call	_memset	;wreg free
  2767  0012F4                     
  2768                           ;main.c: 136:                 for(i = 0; i < 4; i++)
  2769  0012F4  0EB9               	movlw	low STR_13
  2770  0012F6  0100               	movlb	0	; () banked
  2771  0012F8  6FBB               	movwf	printf@fmt& (0+255),b
  2772  0012FA  0EFF               	movlw	high STR_13
  2773  0012FC  6FBC               	movwf	(printf@fmt+1)& (0+255),b
  2774  0012FE  EC04  F017         	call	_printf	;wreg free
  2775  001302                     
  2776                           ;main.c: 137:                     binaryPrint(numberButtonCodes[i]);
  2777  001302  0E00               	movlw	0
  2778  001304  0100               	movlb	0	; () banked
  2779  001306  6FE8               	movwf	main@i& (0+255),b
  2780  001308                     l4834:
  2781                           
  2782                           ; BSR set to: 0
  2783                           ;main.c: 138:                 break;
  2784  001308  EC9B  F017         	call	_EUSART1_is_rx_ready	;wreg free
  2785  00130C  0900               	iorlw	0
  2786  00130E  B4D8               	btfsc	status,2,c
  2787  001310  EF8C  F009         	goto	u4831
  2788  001314  EF8E  F009         	goto	u4830
  2789  001318                     u4831:
  2790  001318  EF90  F009         	goto	l4838
  2791  00131C                     u4830:
  2792  00131C  EFB7  F009         	goto	l4846
  2793  001320                     l4838:
  2794                           
  2795                           ;main.c: 140: 
  2796  001320  0E00               	movlw	0
  2797  001322  ECB9  F011         	call	_recordDurations
  2798                           
  2799                           ;main.c: 141: 
  2800  001326  0E00               	movlw	0
  2801  001328  EC20  F000         	call	_decodeBits
  2802  00132C  C0D1  F070         	movff	?_decodeBits,_decodedValue
  2803  001330  C0D2  F071         	movff	?_decodeBits+1,_decodedValue+1
  2804  001334  C0D3  F072         	movff	?_decodeBits+2,_decodedValue+2
  2805  001338  C0D4  F073         	movff	?_decodeBits+3,_decodedValue+3
  2806  00133C                     
  2807                           ;main.c: 142: 
  2808  00133C  0EC6               	movlw	low STR_14
  2809  00133E  0100               	movlb	0	; () banked
  2810  001340  6FBB               	movwf	printf@fmt& (0+255),b
  2811  001342  0EFF               	movlw	high STR_14
  2812  001344  6FBC               	movwf	(printf@fmt+1)& (0+255),b
  2813  001346  C070  F0BD         	movff	_decodedValue,?_printf+2
  2814  00134A  C071  F0BE         	movff	_decodedValue+1,?_printf+3
  2815  00134E  C072  F0BF         	movff	_decodedValue+2,?_printf+4
  2816  001352  C073  F0C0         	movff	_decodedValue+3,?_printf+5
  2817  001356  EC04  F017         	call	_printf	;wreg free
  2818  00135A                     
  2819                           ;main.c: 143:             case 'i':
  2820  00135A  0100               	movlb	0	; () banked
  2821  00135C  2BE8               	incf	main@i& (0+255),f,b
  2822  00135E                     
  2823                           ; BSR set to: 0
  2824  00135E  0E07               	movlw	7
  2825  001360  65E8               	cpfsgt	main@i& (0+255),b
  2826  001362  EFB5  F009         	goto	u4841
  2827  001366  EFB7  F009         	goto	u4840
  2828  00136A                     u4841:
  2829  00136A  EF84  F009         	goto	l4834
  2830  00136E                     u4840:
  2831  00136E                     l4846:
  2832                           
  2833                           ;main.c: 144: 
  2834  00136E  ECEF  F016         	call	_EUSART1_Read	;wreg free
  2835  001372                     
  2836                           ;main.c: 146:                 break;
  2837  001372  0E15               	movlw	low STR_15
  2838  001374  0100               	movlb	0	; () banked
  2839  001376  6FBB               	movwf	printf@fmt& (0+255),b
  2840  001378  0EFF               	movlw	high STR_15
  2841  00137A  6FBC               	movwf	(printf@fmt+1)& (0+255),b
  2842  00137C  EC04  F017         	call	_printf	;wreg free
  2843                           
  2844                           ;main.c: 148: 
  2845  001380  EF3B  F008         	goto	l4740
  2846  001384                     l4850:
  2847                           
  2848                           ; BSR set to: 0
  2849                           ;main.c: 153:     break;
  2850  001384  0EB8               	movlw	low STR_16
  2851  001386  6FBB               	movwf	printf@fmt& (0+255),b
  2852  001388  0EFE               	movlw	high STR_16
  2853  00138A  6FBC               	movwf	(printf@fmt+1)& (0+255),b
  2854  00138C  EC04  F017         	call	_printf	;wreg free
  2855  001390                     
  2856                           ;main.c: 154:    }
  2857  001390  0E00               	movlw	0
  2858  001392  0100               	movlb	0	; () banked
  2859  001394  6FE8               	movwf	main@i& (0+255),b
  2860  001396                     l4858:
  2861                           
  2862                           ; BSR set to: 0
  2863                           ;main.c: 155:   }
  2864  001396  51E8               	movf	main@i& (0+255),w,b
  2865  001398  0D04               	mullw	4
  2866  00139A  0E84               	movlw	low _buttonSequenceCodes
  2867  00139C  24F3               	addwf	243,w,c
  2868  00139E  6ED9               	movwf	fsr2l,c
  2869  0013A0  0E01               	movlw	high _buttonSequenceCodes
  2870  0013A2  20F4               	addwfc	prodh,w,c
  2871  0013A4  6EDA               	movwf	fsr2h,c
  2872  0013A6  50DE               	movf	postinc2,w,c
  2873  0013A8  10DE               	iorwf	postinc2,w,c
  2874  0013AA  10DE               	iorwf	postinc2,w,c
  2875  0013AC  10DE               	iorwf	postinc2,w,c
  2876  0013AE  A4D8               	btfss	status,2,c
  2877  0013B0  EFDC  F009         	goto	u4851
  2878  0013B4  EFDE  F009         	goto	u4850
  2879  0013B8                     u4851:
  2880  0013B8  EFE0  F009         	goto	l4862
  2881  0013BC                     u4850:
  2882  0013BC  EFF0  F009         	goto	l4868
  2883  0013C0                     l4862:
  2884                           
  2885                           ; BSR set to: 0
  2886                           ;main.c: 157: }
  2887  0013C0  0ED1               	movlw	low STR_17
  2888  0013C2  6FBB               	movwf	printf@fmt& (0+255),b
  2889  0013C4  0EFF               	movlw	high STR_17
  2890  0013C6  6FBC               	movwf	(printf@fmt+1)& (0+255),b
  2891  0013C8  EC04  F017         	call	_printf	;wreg free
  2892  0013CC  0100               	movlb	0	; () banked
  2893  0013CE  2BE8               	incf	main@i& (0+255),f,b
  2894  0013D0                     
  2895                           ; BSR set to: 0
  2896  0013D0  0E07               	movlw	7
  2897  0013D2  65E8               	cpfsgt	main@i& (0+255),b
  2898  0013D4  EFEE  F009         	goto	u4861
  2899  0013D8  EFF0  F009         	goto	u4860
  2900  0013DC                     u4861:
  2901  0013DC  EFCB  F009         	goto	l4858
  2902  0013E0                     u4860:
  2903  0013E0                     l4868:
  2904                           
  2905                           ; BSR set to: 0
  2906  0013E0  0E4D               	movlw	low STR_18
  2907  0013E2  6FBB               	movwf	printf@fmt& (0+255),b
  2908  0013E4  0EFF               	movlw	high STR_18
  2909  0013E6  6FBC               	movwf	(printf@fmt+1)& (0+255),b
  2910  0013E8  EC04  F017         	call	_printf	;wreg free
  2911  0013EC  EF3B  F008         	goto	l4740
  2912  0013F0                     l4870:
  2913                           
  2914                           ; BSR set to: 0
  2915  0013F0  0E00               	movlw	0
  2916  0013F2  6FE8               	movwf	main@i& (0+255),b
  2917  0013F4                     l4876:
  2918                           
  2919                           ; BSR set to: 0
  2920  0013F4  51E8               	movf	main@i& (0+255),w,b
  2921  0013F6  0D04               	mullw	4
  2922  0013F8  0E60               	movlw	low _numberButtonCodes
  2923  0013FA  24F3               	addwf	243,w,c
  2924  0013FC  6ED9               	movwf	fsr2l,c
  2925  0013FE  0E00               	movlw	high _numberButtonCodes
  2926  001400  20F4               	addwfc	prodh,w,c
  2927  001402  6EDA               	movwf	fsr2h,c
  2928  001404  CFDE F0D1          	movff	postinc2,binaryPrint@value
  2929  001408  CFDE F0D2          	movff	postinc2,binaryPrint@value+1
  2930  00140C  CFDE F0D3          	movff	postinc2,binaryPrint@value+2
  2931  001410  CFDE F0D4          	movff	postinc2,binaryPrint@value+3
  2932  001414  EC9C  F014         	call	_binaryPrint	;wreg free
  2933  001418  0100               	movlb	0	; () banked
  2934  00141A  2BE8               	incf	main@i& (0+255),f,b
  2935  00141C                     
  2936                           ; BSR set to: 0
  2937  00141C  0E03               	movlw	3
  2938  00141E  65E8               	cpfsgt	main@i& (0+255),b
  2939  001420  EF14  F00A         	goto	u4871
  2940  001424  EF16  F00A         	goto	u4870
  2941  001428                     u4871:
  2942  001428  EFFA  F009         	goto	l4876
  2943  00142C                     u4870:
  2944  00142C  EF3B  F008         	goto	l4740
  2945  001430                     l4884:
  2946                           
  2947                           ; BSR set to: 0
  2948  001430  51E7               	movf	main@cmd& (0+255),w,b
  2949  001432  EC8D  F013         	call	_generalCases
  2950  001436  EF3B  F008         	goto	l4740
  2951  00143A                     l4888:
  2952                           
  2953                           ; BSR set to: 0
  2954  00143A  51E7               	movf	main@cmd& (0+255),w,b
  2955  00143C  6FE3               	movwf	??_main& (0+255),b
  2956  00143E  6BE4               	clrf	(??_main+1)& (0+255),b
  2957                           
  2958                           ; Switch on 2 bytes has been partitioned into a top level switch of size 1, and 1 sub-sw
      +                          itches
  2959                           ; Switch size 1, requested type "simple"
  2960                           ; Number of cases is 1, Range of values is 0 to 0
  2961                           ; switch strategies available:
  2962                           ; Name         Instructions Cycles
  2963                           ; simple_byte            4     3 (average)
  2964                           ;	Chosen strategy is simple_byte
  2965  001440  51E4               	movf	(??_main+1)& (0+255),w,b
  2966  001442  0A00               	xorlw	0	; case 0
  2967  001444  B4D8               	btfsc	status,2,c
  2968  001446  EF27  F00A         	goto	l4976
  2969  00144A  EF18  F00A         	goto	l4884
  2970  00144E                     l4976:
  2971                           
  2972                           ; BSR set to: 0
  2973                           ; Switch size 1, requested type "simple"
  2974                           ; Number of cases is 12, Range of values is 49 to 116
  2975                           ; switch strategies available:
  2976                           ; Name         Instructions Cycles
  2977                           ; simple_byte           37    19 (average)
  2978                           ;	Chosen strategy is simple_byte
  2979  00144E  51E3               	movf	??_main& (0+255),w,b
  2980  001450  0A31               	xorlw	49	; case 49
  2981  001452  B4D8               	btfsc	status,2,c
  2982  001454  EF2B  F009         	goto	l359
  2983  001458  0A03               	xorlw	3	; case 50
  2984  00145A  B4D8               	btfsc	status,2,c
  2985  00145C  EF2B  F009         	goto	l4808
  2986  001460  0A01               	xorlw	1	; case 51
  2987  001462  B4D8               	btfsc	status,2,c
  2988  001464  EF2B  F009         	goto	l4808
  2989  001468  0A07               	xorlw	7	; case 52
  2990  00146A  B4D8               	btfsc	status,2,c
  2991  00146C  EF2B  F009         	goto	l4808
  2992  001470  0A67               	xorlw	103	; case 83
  2993  001472  B4D8               	btfsc	status,2,c
  2994  001474  EFC2  F009         	goto	l4850
  2995  001478  0A31               	xorlw	49	; case 98
  2996  00147A  B4D8               	btfsc	status,2,c
  2997  00147C  EFF8  F009         	goto	l4870
  2998  001480  0A01               	xorlw	1	; case 99
  2999  001482  B4D8               	btfsc	status,2,c
  3000  001484  EF4B  F008         	goto	l4744
  3001  001488  0A07               	xorlw	7	; case 100
  3002  00148A  B4D8               	btfsc	status,2,c
  3003  00148C  EFB2  F008         	goto	l4780
  3004  001490  0A0D               	xorlw	13	; case 105
  3005  001492  B4D8               	btfsc	status,2,c
  3006  001494  EFAE  F008         	goto	l4778
  3007  001498  0A05               	xorlw	5	; case 108
  3008  00149A  B4D8               	btfsc	status,2,c
  3009  00149C  EFD7  F008         	goto	l4786
  3010  0014A0  0A1F               	xorlw	31	; case 115
  3011  0014A2  B4D8               	btfsc	status,2,c
  3012  0014A4  EF62  F009         	goto	l4822
  3013  0014A8  0A07               	xorlw	7	; case 116
  3014  0014AA  B4D8               	btfsc	status,2,c
  3015  0014AC  EFA3  F008         	goto	l4772
  3016  0014B0  EF18  F00A         	goto	l4884
  3017  0014B4  EF1E  F000         	goto	start
  3018  0014B8                     __end_of_main:
  3019                           	opt callstack 0
  3020                           
  3021 ;; *************** function _setSevenDurations *****************
  3022 ;; Defined at:
  3023 ;;		line 34 in file "func.c"
  3024 ;; Parameters:    Size  Location     Type
  3025 ;;		None
  3026 ;; Auto vars:     Size  Location     Type
  3027 ;;		None
  3028 ;; Return value:  Size  Location     Type
  3029 ;;                  1    wreg      void 
  3030 ;; Registers used:
  3031 ;;		None
  3032 ;; Tracked objects:
  3033 ;;		On entry : 0/0
  3034 ;;		On exit  : 0/0
  3035 ;;		Unchanged: 0/0
  3036 ;; Data sizes:     COMRAM   BANK0   BANK1   BANK2   BANK3   BANK4   BANK5   BANK6   BANK7   BANK8   BANK9  BANK10  BANK1
      +1  BANK12  BANK13  BANK14  BANK15
  3037 ;;      Params:         0       0       0       0       0       0       0       0       0       0       0       0       
      +0       0       0       0       0
  3038 ;;      Locals:         0       0       0       0       0       0       0       0       0       0       0       0       
      +0       0       0       0       0
  3039 ;;      Temps:          0       0       0       0       0       0       0       0       0       0       0       0       
      +0       0       0       0       0
  3040 ;;      Totals:         0       0       0       0       0       0       0       0       0       0       0       0       
      +0       0       0       0       0
  3041 ;;Total ram usage:        0 bytes
  3042 ;; Hardware stack levels used:    1
  3043 ;; Hardware stack levels required when called:    3
  3044 ;; This function calls:
  3045 ;;		Nothing
  3046 ;; This function is called by:
  3047 ;;		_main
  3048 ;; This function uses a non-reentrant model
  3049 ;;
  3050                           
  3051                           	psect	text1
  3052  002CD4                     __ptext1:
  3053                           	opt callstack 0
  3054  002CD4                     _setSevenDurations:
  3055                           	opt callstack 27
  3056  002CD4                     
  3057                           ;func.c: 35:     referenceDurations.startLow = bitDurations[0];
  3058  002CD4  C100  F0E9         	movff	_bitDurations,_referenceDurations
  3059  002CD8  C101  F0EA         	movff	_bitDurations+1,_referenceDurations+1
  3060                           
  3061                           ;func.c: 36:     referenceDurations.startHigh = bitDurations[1];
  3062  002CDC  C102  F0EB         	movff	_bitDurations+2,_referenceDurations+2
  3063  002CE0  C103  F0EC         	movff	_bitDurations+3,_referenceDurations+3
  3064                           
  3065                           ;func.c: 37:     referenceDurations.dataZeroLow = bitDurations[2];
  3066  002CE4  C104  F0ED         	movff	_bitDurations+4,_referenceDurations+4
  3067  002CE8  C105  F0EE         	movff	_bitDurations+5,_referenceDurations+5
  3068                           
  3069                           ;func.c: 38:     referenceDurations.dataZeroHigh = bitDurations[3];
  3070  002CEC  C106  F0EF         	movff	_bitDurations+6,_referenceDurations+6
  3071  002CF0  C107  F0F0         	movff	_bitDurations+7,_referenceDurations+7
  3072                           
  3073                           ;func.c: 39:     referenceDurations.dataOneLow = bitDurations[4];
  3074  002CF4  C108  F0F1         	movff	_bitDurations+8,_referenceDurations+8
  3075  002CF8  C109  F0F2         	movff	_bitDurations+9,_referenceDurations+9
  3076                           
  3077                           ;func.c: 40:     referenceDurations.dataOneHigh = bitDurations[5];
  3078  002CFC  C10A  F0F3         	movff	_bitDurations+10,_referenceDurations+10
  3079  002D00  C10B  F0F4         	movff	_bitDurations+11,_referenceDurations+11
  3080                           
  3081                           ;func.c: 41:     referenceDurations.stopLow = bitDurations[32];
  3082  002D04  C140  F0F5         	movff	_bitDurations+64,_referenceDurations+12
  3083  002D08  C141  F0F6         	movff	_bitDurations+65,_referenceDurations+13
  3084  002D0C  0012               	return		;funcret
  3085  002D0E                     __end_of_setSevenDurations:
  3086                           	opt callstack 0
  3087                           
  3088 ;; *************** function _recordDurations *****************
  3089 ;; Defined at:
  3090 ;;		line 20 in file "func.c"
  3091 ;; Parameters:    Size  Location     Type
  3092 ;;  verbose         1    wreg     _Bool 
  3093 ;; Auto vars:     Size  Location     Type
  3094 ;;  verbose         1   47[BANK0 ] _Bool 
  3095 ;;  i               1   48[BANK0 ] unsigned char 
  3096 ;; Return value:  Size  Location     Type
  3097 ;;                  1    wreg      void 
  3098 ;; Registers used:
  3099 ;;		wreg, fsr1l, fsr1h, fsr2l, fsr2h, status,2, status,0, tblptrl, tblptrh, tblptru, prodl, prodh, cstack
  3100 ;; Tracked objects:
  3101 ;;		On entry : 0/0
  3102 ;;		On exit  : 0/0
  3103 ;;		Unchanged: 0/0
  3104 ;; Data sizes:     COMRAM   BANK0   BANK1   BANK2   BANK3   BANK4   BANK5   BANK6   BANK7   BANK8   BANK9  BANK10  BANK1
      +1  BANK12  BANK13  BANK14  BANK15
  3105 ;;      Params:         0       0       0       0       0       0       0       0       0       0       0       0       
      +0       0       0       0       0
  3106 ;;      Locals:         0       2       0       0       0       0       0       0       0       0       0       0       
      +0       0       0       0       0
  3107 ;;      Temps:          0      10       0       0       0       0       0       0       0       0       0       0       
      +0       0       0       0       0
  3108 ;;      Totals:         0      12       0       0       0       0       0       0       0       0       0       0       
      +0       0       0       0       0
  3109 ;;Total ram usage:       12 bytes
  3110 ;; Hardware stack levels used:    1
  3111 ;; Hardware stack levels required when called:   12
  3112 ;; This function calls:
  3113 ;;		_ECCP_SET_FALLING
  3114 ;;		_captureOne
  3115 ;;		_printf
  3116 ;; This function is called by:
  3117 ;;		_main
  3118 ;; This function uses a non-reentrant model
  3119 ;;
  3120                           
  3121                           	psect	text2
  3122  002372                     __ptext2:
  3123                           	opt callstack 0
  3124  002372                     _recordDurations:
  3125                           	opt callstack 18
  3126                           
  3127                           ;incstack = 0
  3128                           ;recordDurations@verbose stored from wreg
  3129  002372  0100               	movlb	0	; () banked
  3130  002374  6FDB               	movwf	recordDurations@verbose& (0+255),b
  3131  002376                     
  3132                           ;func.c: 21:     ECCP_SET_FALLING();
  3133  002376  ECB1  F017         	call	_ECCP_SET_FALLING	;wreg free
  3134  00237A                     
  3135                           ;func.c: 22:     uint8_t i;;func.c: 23:     for(i = 0; i < 33*2; i++) {
  3136  00237A  0E00               	movlw	0
  3137  00237C  0100               	movlb	0	; () banked
  3138  00237E  6FDC               	movwf	recordDurations@i& (0+255),b
  3139  002380                     l4610:
  3140                           
  3141                           ; BSR set to: 0
  3142                           ;func.c: 24:         captureOne();
  3143  002380  EC18  F017         	call	_captureOne	;wreg free
  3144  002384                     
  3145                           ;func.c: 25:         bitCounts[i] = tmrCounts;
  3146  002384  0100               	movlb	0	; () banked
  3147  002386  51DC               	movf	recordDurations@i& (0+255),w,b
  3148  002388  0D02               	mullw	2
  3149  00238A  0E00               	movlw	low _bitCounts
  3150  00238C  24F3               	addwf	243,w,c
  3151  00238E  6ED9               	movwf	fsr2l,c
  3152  002390  0E02               	movlw	high _bitCounts
  3153  002392  20F4               	addwfc	prodh,w,c
  3154  002394  6EDA               	movwf	fsr2h,c
  3155  002396  C07A  FFDE         	movff	_tmrCounts,postinc2
  3156  00239A  C07B  FFDD         	movff	_tmrCounts+1,postdec2
  3157  00239E                     
  3158                           ; BSR set to: 0
  3159                           ;func.c: 26:     }
  3160  00239E  2BDC               	incf	recordDurations@i& (0+255),f,b
  3161  0023A0                     
  3162                           ; BSR set to: 0
  3163  0023A0  0E41               	movlw	65
  3164  0023A2  65DC               	cpfsgt	recordDurations@i& (0+255),b
  3165  0023A4  EFD6  F011         	goto	u4581
  3166  0023A8  EFD8  F011         	goto	u4580
  3167  0023AC                     u4581:
  3168  0023AC  EFC0  F011         	goto	l4610
  3169  0023B0                     u4580:
  3170  0023B0                     
  3171                           ; BSR set to: 0
  3172                           ;func.c: 27:     for(i = 0; i < 33*2 - 1; i++) {
  3173  0023B0  0E00               	movlw	0
  3174  0023B2  6FDC               	movwf	recordDurations@i& (0+255),b
  3175  0023B4                     l4624:
  3176                           
  3177                           ; BSR set to: 0
  3178                           ;func.c: 28:         bitDurations[i] = (bitCounts[i+1] - bitCounts[i]) * (8)/(16);
  3179  0023B4  0EFF               	movlw	255
  3180  0023B6  6FD1               	movwf	??_recordDurations& (0+255),b
  3181  0023B8  0E0F               	movlw	15
  3182  0023BA  6FD2               	movwf	(??_recordDurations+1)& (0+255),b
  3183  0023BC  51DC               	movf	recordDurations@i& (0+255),w,b
  3184  0023BE  0D02               	mullw	2
  3185  0023C0  0E00               	movlw	low _bitCounts
  3186  0023C2  24F3               	addwf	243,w,c
  3187  0023C4  6ED9               	movwf	fsr2l,c
  3188  0023C6  0E02               	movlw	high _bitCounts
  3189  0023C8  20F4               	addwfc	prodh,w,c
  3190  0023CA  6EDA               	movwf	fsr2h,c
  3191  0023CC  CFDE F0D3          	movff	postinc2,??_recordDurations+2
  3192  0023D0  CFDD F0D4          	movff	postdec2,??_recordDurations+3
  3193  0023D4  51DC               	movf	recordDurations@i& (0+255),w,b
  3194  0023D6  6FD5               	movwf	(??_recordDurations+4)& (0+255),b
  3195  0023D8  6BD6               	clrf	(??_recordDurations+5)& (0+255),b
  3196  0023DA  90D8               	bcf	status,0,c
  3197  0023DC  37D5               	rlcf	(??_recordDurations+4)& (0+255),f,b
  3198  0023DE  37D6               	rlcf	(??_recordDurations+5)& (0+255),f,b
  3199  0023E0  0E02               	movlw	low (_bitCounts+2)
  3200  0023E2  25D5               	addwf	(??_recordDurations+4)& (0+255),w,b
  3201  0023E4  6ED9               	movwf	fsr2l,c
  3202  0023E6  0E02               	movlw	high (_bitCounts+2)
  3203  0023E8  21D6               	addwfc	(??_recordDurations+5)& (0+255),w,b
  3204  0023EA  6EDA               	movwf	fsr2h,c
  3205  0023EC  CFDE F0D7          	movff	postinc2,??_recordDurations+6
  3206  0023F0  CFDD F0D8          	movff	postdec2,??_recordDurations+7
  3207  0023F4  51D3               	movf	(??_recordDurations+2)& (0+255),w,b
  3208  0023F6  5FD7               	subwf	(??_recordDurations+6)& (0+255),f,b
  3209  0023F8  51D4               	movf	(??_recordDurations+3)& (0+255),w,b
  3210  0023FA  5BD8               	subwfb	(??_recordDurations+7)& (0+255),f,b
  3211  0023FC  90D8               	bcf	status,0,c
  3212  0023FE  31D8               	rrcf	(??_recordDurations+7)& (0+255),w,b
  3213  002400  6FDA               	movwf	(??_recordDurations+9)& (0+255),b
  3214  002402  31D7               	rrcf	(??_recordDurations+6)& (0+255),w,b
  3215  002404  6FD9               	movwf	(??_recordDurations+8)& (0+255),b
  3216  002406  51D1               	movf	??_recordDurations& (0+255),w,b
  3217  002408  17D9               	andwf	(??_recordDurations+8)& (0+255),f,b
  3218  00240A  51D2               	movf	(??_recordDurations+1)& (0+255),w,b
  3219  00240C  17DA               	andwf	(??_recordDurations+9)& (0+255),f,b
  3220  00240E  51DC               	movf	recordDurations@i& (0+255),w,b
  3221  002410  0D02               	mullw	2
  3222  002412  0E00               	movlw	low _bitDurations
  3223  002414  24F3               	addwf	243,w,c
  3224  002416  6ED9               	movwf	fsr2l,c
  3225  002418  0E01               	movlw	high _bitDurations
  3226  00241A  20F4               	addwfc	prodh,w,c
  3227  00241C  6EDA               	movwf	fsr2h,c
  3228  00241E  C0D9  FFDE         	movff	??_recordDurations+8,postinc2
  3229  002422  C0DA  FFDD         	movff	??_recordDurations+9,postdec2
  3230  002426                     
  3231                           ; BSR set to: 0
  3232                           ;func.c: 29:         if(verbose)
  3233  002426  51DB               	movf	recordDurations@verbose& (0+255),w,b
  3234  002428  B4D8               	btfsc	status,2,c
  3235  00242A  EF19  F012         	goto	u4591
  3236  00242E  EF1B  F012         	goto	u4590
  3237  002432                     u4591:
  3238  002432  EF2D  F012         	goto	l4630
  3239  002436                     u4590:
  3240  002436                     
  3241                           ; BSR set to: 0
  3242                           ;func.c: 30:             printf("%u us\r\n", bitDurations[i]);
  3243  002436  0EDA               	movlw	low STR_29
  3244  002438  6FBB               	movwf	printf@fmt& (0+255),b
  3245  00243A  0EFF               	movlw	high STR_29
  3246  00243C  6FBC               	movwf	(printf@fmt+1)& (0+255),b
  3247  00243E  51DC               	movf	recordDurations@i& (0+255),w,b
  3248  002440  0D02               	mullw	2
  3249  002442  0E00               	movlw	low _bitDurations
  3250  002444  24F3               	addwf	243,w,c
  3251  002446  6ED9               	movwf	fsr2l,c
  3252  002448  0E01               	movlw	high _bitDurations
  3253  00244A  20F4               	addwfc	prodh,w,c
  3254  00244C  6EDA               	movwf	fsr2h,c
  3255  00244E  CFDE F0BD          	movff	postinc2,?_printf+2
  3256  002452  CFDD F0BE          	movff	postdec2,?_printf+3
  3257  002456  EC04  F017         	call	_printf	;wreg free
  3258  00245A                     l4630:
  3259                           
  3260                           ;func.c: 31:     }
  3261  00245A  0100               	movlb	0	; () banked
  3262  00245C  2BDC               	incf	recordDurations@i& (0+255),f,b
  3263  00245E                     
  3264                           ; BSR set to: 0
  3265  00245E  0E40               	movlw	64
  3266  002460  65DC               	cpfsgt	recordDurations@i& (0+255),b
  3267  002462  EF35  F012         	goto	u4601
  3268  002466  EF37  F012         	goto	u4600
  3269  00246A                     u4601:
  3270  00246A  EFDA  F011         	goto	l4624
  3271  00246E                     u4600:
  3272  00246E                     
  3273                           ; BSR set to: 0
  3274  00246E  0012               	return		;funcret
  3275  002470                     __end_of_recordDurations:
  3276                           	opt callstack 0
  3277                           
  3278 ;; *************** function _captureOne *****************
  3279 ;; Defined at:
  3280 ;;		line 12 in file "func.c"
  3281 ;; Parameters:    Size  Location     Type
  3282 ;;		None
  3283 ;; Auto vars:     Size  Location     Type
  3284 ;;		None
  3285 ;; Return value:  Size  Location     Type
  3286 ;;                  1    wreg      void 
  3287 ;; Registers used:
  3288 ;;		wreg, status,2, status,0, cstack
  3289 ;; Tracked objects:
  3290 ;;		On entry : 0/0
  3291 ;;		On exit  : 0/0
  3292 ;;		Unchanged: 0/0
  3293 ;; Data sizes:     COMRAM   BANK0   BANK1   BANK2   BANK3   BANK4   BANK5   BANK6   BANK7   BANK8   BANK9  BANK10  BANK1
      +1  BANK12  BANK13  BANK14  BANK15
  3294 ;;      Params:         0       0       0       0       0       0       0       0       0       0       0       0       
      +0       0       0       0       0
  3295 ;;      Locals:         0       0       0       0       0       0       0       0       0       0       0       0       
      +0       0       0       0       0
  3296 ;;      Temps:          0       0       0       0       0       0       0       0       0       0       0       0       
      +0       0       0       0       0
  3297 ;;      Totals:         0       0       0       0       0       0       0       0       0       0       0       0       
      +0       0       0       0       0
  3298 ;;Total ram usage:        0 bytes
  3299 ;; Hardware stack levels used:    1
  3300 ;; Hardware stack levels required when called:    5
  3301 ;; This function calls:
  3302 ;;		_ECCP1_IsCapturedDataReady
  3303 ;;		_ECCP_TRIGGER_TOGGLE
  3304 ;; This function is called by:
  3305 ;;		_main
  3306 ;;		_recordDurations
  3307 ;; This function uses a non-reentrant model
  3308 ;;
  3309                           
  3310                           	psect	text3
  3311  002E30                     __ptext3:
  3312                           	opt callstack 0
  3313  002E30                     _captureOne:
  3314                           	opt callstack 24
  3315  002E30                     
  3316                           ;func.c: 14:     PIR1bits.CCP1IF = 0;
  3317  002E30  949E               	bcf	158,2,c	;volatile
  3318  002E32                     l3538:
  3319  002E32  EC7D  F017         	call	_ECCP1_IsCapturedDataReady	;wreg free
  3320  002E36  0900               	iorlw	0
  3321  002E38  B4D8               	btfsc	status,2,c
  3322  002E3A  EF21  F017         	goto	u3141
  3323  002E3E  EF23  F017         	goto	u3140
  3324  002E42                     u3141:
  3325  002E42  EF19  F017         	goto	l3538
  3326  002E46                     u3140:
  3327  002E46                     
  3328                           ;func.c: 16:     ECCP_TRIGGER_TOGGLE();
  3329  002E46  EC2A  F017         	call	_ECCP_TRIGGER_TOGGLE	;wreg free
  3330  002E4A                     
  3331                           ;func.c: 17:     tmrCounts = CCPR1;
  3332  002E4A  CFBE F07A          	movff	4030,_tmrCounts	;volatile
  3333  002E4E  CFBF F07B          	movff	4031,_tmrCounts+1	;volatile
  3334  002E52  0012               	return		;funcret
  3335  002E54                     __end_of_captureOne:
  3336                           	opt callstack 0
  3337                           
  3338 ;; *************** function _ECCP_TRIGGER_TOGGLE *****************
  3339 ;; Defined at:
  3340 ;;		line 35 in file "helpers.c"
  3341 ;; Parameters:    Size  Location     Type
  3342 ;;		None
  3343 ;; Auto vars:     Size  Location     Type
  3344 ;;		None
  3345 ;; Return value:  Size  Location     Type
  3346 ;;                  1    wreg      void 
  3347 ;; Registers used:
  3348 ;;		wreg, status,2, status,0, cstack
  3349 ;; Tracked objects:
  3350 ;;		On entry : 0/0
  3351 ;;		On exit  : 0/0
  3352 ;;		Unchanged: 0/0
  3353 ;; Data sizes:     COMRAM   BANK0   BANK1   BANK2   BANK3   BANK4   BANK5   BANK6   BANK7   BANK8   BANK9  BANK10  BANK1
      +1  BANK12  BANK13  BANK14  BANK15
  3354 ;;      Params:         0       0       0       0       0       0       0       0       0       0       0       0       
      +0       0       0       0       0
  3355 ;;      Locals:         0       0       0       0       0       0       0       0       0       0       0       0       
      +0       0       0       0       0
  3356 ;;      Temps:          0       0       0       0       0       0       0       0       0       0       0       0       
      +0       0       0       0       0
  3357 ;;      Totals:         0       0       0       0       0       0       0       0       0       0       0       0       
      +0       0       0       0       0
  3358 ;;Total ram usage:        0 bytes
  3359 ;; Hardware stack levels used:    1
  3360 ;; Hardware stack levels required when called:    4
  3361 ;; This function calls:
  3362 ;;		_ECCP_SET_FALLING
  3363 ;;		_ECCP_SET_RISING
  3364 ;; This function is called by:
  3365 ;;		_captureOne
  3366 ;; This function uses a non-reentrant model
  3367 ;;
  3368                           
  3369                           	psect	text4
  3370  002E54                     __ptext4:
  3371                           	opt callstack 0
  3372  002E54                     _ECCP_TRIGGER_TOGGLE:
  3373                           	opt callstack 24
  3374  002E54                     
  3375                           ;helpers.c: 36:     if(CCP1CONbits.CCP1M == 0b0100) {
  3376  002E54  50BD               	movf	189,w,c	;volatile
  3377  002E56  0B0F               	andlw	15
  3378  002E58  0A04               	xorlw	4
  3379  002E5A  A4D8               	btfss	status,2,c
  3380  002E5C  EF32  F017         	goto	u2661
  3381  002E60  EF34  F017         	goto	u2660
  3382  002E64                     u2661:
  3383  002E64  EF38  F017         	goto	l3262
  3384  002E68                     u2660:
  3385  002E68                     
  3386                           ;helpers.c: 37:         ECCP_SET_RISING();
  3387  002E68  ECAC  F017         	call	_ECCP_SET_RISING	;wreg free
  3388                           
  3389                           ;helpers.c: 38:     } else {
  3390  002E6C  EF3A  F017         	goto	l430
  3391  002E70                     l3262:
  3392                           
  3393                           ;helpers.c: 39:         ECCP_SET_FALLING();
  3394  002E70  ECB1  F017         	call	_ECCP_SET_FALLING	;wreg free
  3395  002E74                     l430:
  3396  002E74  0012               	return		;funcret
  3397  002E76                     __end_of_ECCP_TRIGGER_TOGGLE:
  3398                           	opt callstack 0
  3399                           
  3400 ;; *************** function _ECCP_SET_RISING *****************
  3401 ;; Defined at:
  3402 ;;		line 27 in file "helpers.c"
  3403 ;; Parameters:    Size  Location     Type
  3404 ;;		None
  3405 ;; Auto vars:     Size  Location     Type
  3406 ;;		None
  3407 ;; Return value:  Size  Location     Type
  3408 ;;                  1    wreg      void 
  3409 ;; Registers used:
  3410 ;;		wreg, status,2
  3411 ;; Tracked objects:
  3412 ;;		On entry : 0/0
  3413 ;;		On exit  : 0/0
  3414 ;;		Unchanged: 0/0
  3415 ;; Data sizes:     COMRAM   BANK0   BANK1   BANK2   BANK3   BANK4   BANK5   BANK6   BANK7   BANK8   BANK9  BANK10  BANK1
      +1  BANK12  BANK13  BANK14  BANK15
  3416 ;;      Params:         0       0       0       0       0       0       0       0       0       0       0       0       
      +0       0       0       0       0
  3417 ;;      Locals:         0       0       0       0       0       0       0       0       0       0       0       0       
      +0       0       0       0       0
  3418 ;;      Temps:          0       0       0       0       0       0       0       0       0       0       0       0       
      +0       0       0       0       0
  3419 ;;      Totals:         0       0       0       0       0       0       0       0       0       0       0       0       
      +0       0       0       0       0
  3420 ;;Total ram usage:        0 bytes
  3421 ;; Hardware stack levels used:    1
  3422 ;; Hardware stack levels required when called:    3
  3423 ;; This function calls:
  3424 ;;		Nothing
  3425 ;; This function is called by:
  3426 ;;		_ECCP_TRIGGER_TOGGLE
  3427 ;; This function uses a non-reentrant model
  3428 ;;
  3429                           
  3430                           	psect	text5
  3431  002F58                     __ptext5:
  3432                           	opt callstack 0
  3433  002F58                     _ECCP_SET_RISING:
  3434                           	opt callstack 24
  3435  002F58                     
  3436                           ;helpers.c: 28:     CCP1CONbits.CCP1M = 0b0101;
  3437  002F58  50BD               	movf	189,w,c	;volatile
  3438  002F5A  0BF0               	andlw	-16
  3439  002F5C  0905               	iorlw	5
  3440  002F5E  6EBD               	movwf	189,c	;volatile
  3441  002F60  0012               	return		;funcret
  3442  002F62                     __end_of_ECCP_SET_RISING:
  3443                           	opt callstack 0
  3444                           
  3445 ;; *************** function _ECCP_SET_FALLING *****************
  3446 ;; Defined at:
  3447 ;;		line 31 in file "helpers.c"
  3448 ;; Parameters:    Size  Location     Type
  3449 ;;		None
  3450 ;; Auto vars:     Size  Location     Type
  3451 ;;		None
  3452 ;; Return value:  Size  Location     Type
  3453 ;;                  1    wreg      void 
  3454 ;; Registers used:
  3455 ;;		wreg, status,2
  3456 ;; Tracked objects:
  3457 ;;		On entry : 0/0
  3458 ;;		On exit  : 0/0
  3459 ;;		Unchanged: 0/0
  3460 ;; Data sizes:     COMRAM   BANK0   BANK1   BANK2   BANK3   BANK4   BANK5   BANK6   BANK7   BANK8   BANK9  BANK10  BANK1
      +1  BANK12  BANK13  BANK14  BANK15
  3461 ;;      Params:         0       0       0       0       0       0       0       0       0       0       0       0       
      +0       0       0       0       0
  3462 ;;      Locals:         0       0       0       0       0       0       0       0       0       0       0       0       
      +0       0       0       0       0
  3463 ;;      Temps:          0       0       0       0       0       0       0       0       0       0       0       0       
      +0       0       0       0       0
  3464 ;;      Totals:         0       0       0       0       0       0       0       0       0       0       0       0       
      +0       0       0       0       0
  3465 ;;Total ram usage:        0 bytes
  3466 ;; Hardware stack levels used:    1
  3467 ;; Hardware stack levels required when called:    3
  3468 ;; This function calls:
  3469 ;;		Nothing
  3470 ;; This function is called by:
  3471 ;;		_ECCP_TRIGGER_TOGGLE
  3472 ;;		_recordDurations
  3473 ;; This function uses a non-reentrant model
  3474 ;;
  3475                           
  3476                           	psect	text6
  3477  002F62                     __ptext6:
  3478                           	opt callstack 0
  3479  002F62                     _ECCP_SET_FALLING:
  3480                           	opt callstack 24
  3481  002F62                     
  3482                           ;helpers.c: 32:     CCP1CONbits.CCP1M = 0b0100;
  3483  002F62  50BD               	movf	189,w,c	;volatile
  3484  002F64  0BF0               	andlw	-16
  3485  002F66  0904               	iorlw	4
  3486  002F68  6EBD               	movwf	189,c	;volatile
  3487  002F6A  0012               	return		;funcret
  3488  002F6C                     __end_of_ECCP_SET_FALLING:
  3489                           	opt callstack 0
  3490                           
  3491 ;; *************** function _ECCP1_IsCapturedDataReady *****************
  3492 ;; Defined at:
  3493 ;;		line 76 in file "mcc_generated_files/eccp1.c"
  3494 ;; Parameters:    Size  Location     Type
  3495 ;;		None
  3496 ;; Auto vars:     Size  Location     Type
  3497 ;;		None
  3498 ;; Return value:  Size  Location     Type
  3499 ;;                  1    wreg      _Bool 
  3500 ;; Registers used:
  3501 ;;		wreg
  3502 ;; Tracked objects:
  3503 ;;		On entry : 0/0
  3504 ;;		On exit  : 0/0
  3505 ;;		Unchanged: 0/0
  3506 ;; Data sizes:     COMRAM   BANK0   BANK1   BANK2   BANK3   BANK4   BANK5   BANK6   BANK7   BANK8   BANK9  BANK10  BANK1
      +1  BANK12  BANK13  BANK14  BANK15
  3507 ;;      Params:         0       0       0       0       0       0       0       0       0       0       0       0       
      +0       0       0       0       0
  3508 ;;      Locals:         0       0       0       0       0       0       0       0       0       0       0       0       
      +0       0       0       0       0
  3509 ;;      Temps:          0       0       0       0       0       0       0       0       0       0       0       0       
      +0       0       0       0       0
  3510 ;;      Totals:         0       0       0       0       0       0       0       0       0       0       0       0       
      +0       0       0       0       0
  3511 ;;Total ram usage:        0 bytes
  3512 ;; Hardware stack levels used:    1
  3513 ;; Hardware stack levels required when called:    3
  3514 ;; This function calls:
  3515 ;;		Nothing
  3516 ;; This function is called by:
  3517 ;;		_captureOne
  3518 ;; This function uses a non-reentrant model
  3519 ;;
  3520                           
  3521                           	psect	text7
  3522  002EFA                     __ptext7:
  3523                           	opt callstack 0
  3524  002EFA                     _ECCP1_IsCapturedDataReady:
  3525                           	opt callstack 25
  3526  002EFA                     
  3527                           ;mcc_generated_files/eccp1.c: 79:     return (PIR1bits.CCP1IF);
  3528  002EFA  B49E               	btfsc	158,2,c	;volatile
  3529  002EFC  EF82  F017         	goto	u2651
  3530  002F00  EF85  F017         	goto	u2650
  3531  002F04                     u2651:
  3532  002F04  0E01               	movlw	1
  3533  002F06  EF86  F017         	goto	u2656
  3534  002F0A                     u2650:
  3535  002F0A  0E00               	movlw	0
  3536  002F0C                     u2656:
  3537  002F0C  0012               	return		;funcret
  3538  002F0E                     __end_of_ECCP1_IsCapturedDataReady:
  3539                           	opt callstack 0
  3540                           
  3541 ;; *************** function _memset *****************
  3542 ;; Defined at:
  3543 ;;		line 4 in file "C:\Program Files (x86)\Microchip\xc8\v2.10\pic\sources\c99\common\memset.c"
  3544 ;; Parameters:    Size  Location     Type
  3545 ;;  dest            2    4[COMRAM] PTR void 
  3546 ;;		 -> buttonSequenceCodes(32), 
  3547 ;;  c               2    6[COMRAM] int 
  3548 ;;  n               2    8[COMRAM] unsigned int 
  3549 ;; Auto vars:     Size  Location     Type
  3550 ;;  s               2   14[COMRAM] PTR unsigned char 
  3551 ;;		 -> buttonSequenceCodes(32), 
  3552 ;;  k               2   12[COMRAM] unsigned int 
  3553 ;; Return value:  Size  Location     Type
  3554 ;;                  2    4[COMRAM] PTR void 
  3555 ;; Registers used:
  3556 ;;		wreg, fsr2l, fsr2h, status,2, status,0
  3557 ;; Tracked objects:
  3558 ;;		On entry : 0/0
  3559 ;;		On exit  : 0/0
  3560 ;;		Unchanged: 0/0
  3561 ;; Data sizes:     COMRAM   BANK0   BANK1   BANK2   BANK3   BANK4   BANK5   BANK6   BANK7   BANK8   BANK9  BANK10  BANK1
      +1  BANK12  BANK13  BANK14  BANK15
  3562 ;;      Params:         6       0       0       0       0       0       0       0       0       0       0       0       
      +0       0       0       0       0
  3563 ;;      Locals:         4       0       0       0       0       0       0       0       0       0       0       0       
      +0       0       0       0       0
  3564 ;;      Temps:          2       0       0       0       0       0       0       0       0       0       0       0       
      +0       0       0       0       0
  3565 ;;      Totals:        12       0       0       0       0       0       0       0       0       0       0       0       
      +0       0       0       0       0
  3566 ;;Total ram usage:       12 bytes
  3567 ;; Hardware stack levels used:    1
  3568 ;; Hardware stack levels required when called:    3
  3569 ;; This function calls:
  3570 ;;		Nothing
  3571 ;; This function is called by:
  3572 ;;		_main
  3573 ;; This function uses a non-reentrant model
  3574 ;;
  3575                           
  3576                           	psect	text8
  3577  0020F8                     __ptext8:
  3578                           	opt callstack 0
  3579  0020F8                     _memset:
  3580                           	opt callstack 27
  3581  0020F8  C005  F00F         	movff	memset@dest,memset@s
  3582  0020FC  C006  F010         	movff	memset@dest+1,memset@s+1
  3583  002100  5009               	movf	memset@n^0,w,c
  3584  002102  100A               	iorwf	(memset@n+1)^0,w,c
  3585  002104  A4D8               	btfss	status,2,c
  3586  002106  EF87  F010         	goto	u3681
  3587  00210A  EF89  F010         	goto	u3680
  3588  00210E                     u3681:
  3589  00210E  EF8B  F010         	goto	l3888
  3590  002112                     u3680:
  3591  002112  EF36  F011         	goto	l1395
  3592  002116                     l3888:
  3593  002116  C00F  FFD9         	movff	memset@s,fsr2l
  3594  00211A  C010  FFDA         	movff	memset@s+1,fsr2h
  3595  00211E  C007  FFDF         	movff	memset@c,indf2
  3596  002122  5009               	movf	memset@n^0,w,c
  3597  002124  240F               	addwf	memset@s^0,w,c
  3598  002126  6E0B               	movwf	??_memset^0,c
  3599  002128  500A               	movf	(memset@n+1)^0,w,c
  3600  00212A  2010               	addwfc	(memset@s+1)^0,w,c
  3601  00212C  6E0C               	movwf	(??_memset+1)^0,c
  3602  00212E  0EFF               	movlw	255
  3603  002130  240B               	addwf	??_memset^0,w,c
  3604  002132  6ED9               	movwf	fsr2l,c
  3605  002134  0EFF               	movlw	255
  3606  002136  200C               	addwfc	(??_memset+1)^0,w,c
  3607  002138  6EDA               	movwf	fsr2h,c
  3608  00213A  C007  FFDF         	movff	memset@c,indf2
  3609  00213E  500A               	movf	(memset@n+1)^0,w,c
  3610  002140  E107               	bnz	u3691
  3611  002142  0E03               	movlw	3
  3612  002144  5C09               	subwf	memset@n^0,w,c
  3613  002146  B0D8               	btfsc	status,0,c
  3614  002148  EFA8  F010         	goto	u3691
  3615  00214C  EFAA  F010         	goto	u3690
  3616  002150                     u3691:
  3617  002150  EFAC  F010         	goto	l3894
  3618  002154                     u3690:
  3619  002154  EF36  F011         	goto	l1395
  3620  002158                     l3894:
  3621  002158  EE20 F001          	lfsr	2,1
  3622  00215C  500F               	movf	memset@s^0,w,c
  3623  00215E  26D9               	addwf	fsr2l,f,c
  3624  002160  5010               	movf	(memset@s+1)^0,w,c
  3625  002162  22DA               	addwfc	fsr2h,f,c
  3626  002164  C007  FFDF         	movff	memset@c,indf2
  3627  002168  EE20 F002          	lfsr	2,2
  3628  00216C  500F               	movf	memset@s^0,w,c
  3629  00216E  26D9               	addwf	fsr2l,f,c
  3630  002170  5010               	movf	(memset@s+1)^0,w,c
  3631  002172  22DA               	addwfc	fsr2h,f,c
  3632  002174  C007  FFDF         	movff	memset@c,indf2
  3633  002178  5009               	movf	memset@n^0,w,c
  3634  00217A  240F               	addwf	memset@s^0,w,c
  3635  00217C  6E0B               	movwf	??_memset^0,c
  3636  00217E  500A               	movf	(memset@n+1)^0,w,c
  3637  002180  2010               	addwfc	(memset@s+1)^0,w,c
  3638  002182  6E0C               	movwf	(??_memset+1)^0,c
  3639  002184  0EFE               	movlw	254
  3640  002186  240B               	addwf	??_memset^0,w,c
  3641  002188  6ED9               	movwf	fsr2l,c
  3642  00218A  0EFF               	movlw	255
  3643  00218C  200C               	addwfc	(??_memset+1)^0,w,c
  3644  00218E  6EDA               	movwf	fsr2h,c
  3645  002190  C007  FFDF         	movff	memset@c,indf2
  3646  002194  5009               	movf	memset@n^0,w,c
  3647  002196  240F               	addwf	memset@s^0,w,c
  3648  002198  6E0B               	movwf	??_memset^0,c
  3649  00219A  500A               	movf	(memset@n+1)^0,w,c
  3650  00219C  2010               	addwfc	(memset@s+1)^0,w,c
  3651  00219E  6E0C               	movwf	(??_memset+1)^0,c
  3652  0021A0  0EFD               	movlw	253
  3653  0021A2  240B               	addwf	??_memset^0,w,c
  3654  0021A4  6ED9               	movwf	fsr2l,c
  3655  0021A6  0EFF               	movlw	255
  3656  0021A8  200C               	addwfc	(??_memset+1)^0,w,c
  3657  0021AA  6EDA               	movwf	fsr2h,c
  3658  0021AC  C007  FFDF         	movff	memset@c,indf2
  3659  0021B0  500A               	movf	(memset@n+1)^0,w,c
  3660  0021B2  E107               	bnz	u3701
  3661  0021B4  0E07               	movlw	7
  3662  0021B6  5C09               	subwf	memset@n^0,w,c
  3663  0021B8  B0D8               	btfsc	status,0,c
  3664  0021BA  EFE1  F010         	goto	u3701
  3665  0021BE  EFE3  F010         	goto	u3700
  3666  0021C2                     u3701:
  3667  0021C2  EFE5  F010         	goto	l3900
  3668  0021C6                     u3700:
  3669  0021C6  EF36  F011         	goto	l1395
  3670  0021CA                     l3900:
  3671  0021CA  EE20 F003          	lfsr	2,3
  3672  0021CE  500F               	movf	memset@s^0,w,c
  3673  0021D0  26D9               	addwf	fsr2l,f,c
  3674  0021D2  5010               	movf	(memset@s+1)^0,w,c
  3675  0021D4  22DA               	addwfc	fsr2h,f,c
  3676  0021D6  C007  FFDF         	movff	memset@c,indf2
  3677  0021DA  5009               	movf	memset@n^0,w,c
  3678  0021DC  240F               	addwf	memset@s^0,w,c
  3679  0021DE  6E0B               	movwf	??_memset^0,c
  3680  0021E0  500A               	movf	(memset@n+1)^0,w,c
  3681  0021E2  2010               	addwfc	(memset@s+1)^0,w,c
  3682  0021E4  6E0C               	movwf	(??_memset+1)^0,c
  3683  0021E6  0EFC               	movlw	252
  3684  0021E8  240B               	addwf	??_memset^0,w,c
  3685  0021EA  6ED9               	movwf	fsr2l,c
  3686  0021EC  0EFF               	movlw	255
  3687  0021EE  200C               	addwfc	(??_memset+1)^0,w,c
  3688  0021F0  6EDA               	movwf	fsr2h,c
  3689  0021F2  C007  FFDF         	movff	memset@c,indf2
  3690  0021F6  500A               	movf	(memset@n+1)^0,w,c
  3691  0021F8  E107               	bnz	u3711
  3692  0021FA  0E09               	movlw	9
  3693  0021FC  5C09               	subwf	memset@n^0,w,c
  3694  0021FE  B0D8               	btfsc	status,0,c
  3695  002200  EF04  F011         	goto	u3711
  3696  002204  EF06  F011         	goto	u3710
  3697  002208                     u3711:
  3698  002208  EF08  F011         	goto	l3906
  3699  00220C                     u3710:
  3700  00220C  EF36  F011         	goto	l1395
  3701  002210                     l3906:
  3702  002210  C00F  F00B         	movff	memset@s,??_memset
  3703  002214  C010  F00C         	movff	memset@s+1,??_memset+1
  3704  002218  1E0B               	comf	??_memset^0,f,c
  3705  00221A  1E0C               	comf	(??_memset+1)^0,f,c
  3706  00221C  4A0B               	infsnz	??_memset^0,f,c
  3707  00221E  2A0C               	incf	(??_memset+1)^0,f,c
  3708  002220  0E03               	movlw	3
  3709  002222  140B               	andwf	??_memset^0,w,c
  3710  002224  6E0D               	movwf	memset@k^0,c
  3711  002226  6A0E               	clrf	(memset@k+1)^0,c
  3712  002228  500D               	movf	memset@k^0,w,c
  3713  00222A  260F               	addwf	memset@s^0,f,c
  3714  00222C  500E               	movf	(memset@k+1)^0,w,c
  3715  00222E  2210               	addwfc	(memset@s+1)^0,f,c
  3716  002230  500D               	movf	memset@k^0,w,c
  3717  002232  5E09               	subwf	memset@n^0,f,c
  3718  002234  500E               	movf	(memset@k+1)^0,w,c
  3719  002236  5A0A               	subwfb	(memset@n+1)^0,f,c
  3720  002238  0EFC               	movlw	252
  3721  00223A  1609               	andwf	memset@n^0,f,c
  3722  00223C  0EFF               	movlw	255
  3723  00223E  160A               	andwf	(memset@n+1)^0,f,c
  3724  002240  EF2D  F011         	goto	l3914
  3725  002244                     l3908:
  3726  002244  C00F  FFD9         	movff	memset@s,fsr2l
  3727  002248  C010  FFDA         	movff	memset@s+1,fsr2h
  3728  00224C  C007  FFDF         	movff	memset@c,indf2
  3729  002250  0609               	decf	memset@n^0,f,c
  3730  002252  A0D8               	btfss	status,0,c
  3731  002254  060A               	decf	(memset@n+1)^0,f,c
  3732  002256  4A0F               	infsnz	memset@s^0,f,c
  3733  002258  2A10               	incf	(memset@s+1)^0,f,c
  3734  00225A                     l3914:
  3735  00225A  5009               	movf	memset@n^0,w,c
  3736  00225C  100A               	iorwf	(memset@n+1)^0,w,c
  3737  00225E  A4D8               	btfss	status,2,c
  3738  002260  EF34  F011         	goto	u3721
  3739  002264  EF36  F011         	goto	u3720
  3740  002268                     u3721:
  3741  002268  EF22  F011         	goto	l3908
  3742  00226C                     u3720:
  3743  00226C                     l1395:
  3744  00226C  0012               	return		;funcret
  3745  00226E                     __end_of_memset:
  3746                           	opt callstack 0
  3747                           
  3748 ;; *************** function _initializeAll *****************
  3749 ;; Defined at:
  3750 ;;		line 12 in file "helpers.c"
  3751 ;; Parameters:    Size  Location     Type
  3752 ;;		None
  3753 ;; Auto vars:     Size  Location     Type
  3754 ;;		None
  3755 ;; Return value:  Size  Location     Type
  3756 ;;                  1    wreg      void 
  3757 ;; Registers used:
  3758 ;;		wreg, fsr1l, fsr1h, fsr2l, fsr2h, status,2, status,0, tblptrl, tblptrh, tblptru, cstack
  3759 ;; Tracked objects:
  3760 ;;		On entry : 0/0
  3761 ;;		On exit  : 0/0
  3762 ;;		Unchanged: 0/0
  3763 ;; Data sizes:     COMRAM   BANK0   BANK1   BANK2   BANK3   BANK4   BANK5   BANK6   BANK7   BANK8   BANK9  BANK10  BANK1
      +1  BANK12  BANK13  BANK14  BANK15
  3764 ;;      Params:         0       0       0       0       0       0       0       0       0       0       0       0       
      +0       0       0       0       0
  3765 ;;      Locals:         0       0       0       0       0       0       0       0       0       0       0       0       
      +0       0       0       0       0
  3766 ;;      Temps:          0       0       0       0       0       0       0       0       0       0       0       0       
      +0       0       0       0       0
  3767 ;;      Totals:         0       0       0       0       0       0       0       0       0       0       0       0       
      +0       0       0       0       0
  3768 ;;Total ram usage:        0 bytes
  3769 ;; Hardware stack levels used:    1
  3770 ;; Hardware stack levels required when called:   12
  3771 ;; This function calls:
  3772 ;;		_ECCP1_Initialize
  3773 ;;		_ECCP2_Initialize
  3774 ;;		_SYSTEM_Initialize
  3775 ;;		_printf
  3776 ;; This function is called by:
  3777 ;;		_main
  3778 ;; This function uses a non-reentrant model
  3779 ;;
  3780                           
  3781                           	psect	text9
  3782  002ACE                     __ptext9:
  3783                           	opt callstack 0
  3784  002ACE                     _initializeAll:
  3785                           	opt callstack 18
  3786  002ACE                     
  3787                           ;helpers.c: 13:     SYSTEM_Initialize();
  3788  002ACE  EC3B  F017         	call	_SYSTEM_Initialize	;wreg free
  3789  002AD2                     
  3790                           ;helpers.c: 14:     ECCP1_Initialize();
  3791  002AD2  EC87  F017         	call	_ECCP1_Initialize	;wreg free
  3792  002AD6                     
  3793                           ;helpers.c: 15:     ECCP2_Initialize();
  3794  002AD6  EC66  F017         	call	_ECCP2_Initialize	;wreg free
  3795  002ADA                     
  3796                           ;helpers.c: 16:     (INTCONbits.GIE = 1);
  3797  002ADA  8EF2               	bsf	242,7,c	;volatile
  3798  002ADC                     
  3799                           ;helpers.c: 17:     (INTCONbits.PEIE = 1);
  3800  002ADC  8CF2               	bsf	242,6,c	;volatile
  3801  002ADE                     
  3802                           ;helpers.c: 20:  printf("Dev'20 Board\r\n");
  3803  002ADE  0E9C               	movlw	low STR_19
  3804  002AE0  0100               	movlb	0	; () banked
  3805  002AE2  6FBB               	movwf	printf@fmt& (0+255),b
  3806  002AE4  0EFF               	movlw	high STR_19
  3807  002AE6  6FBC               	movwf	(printf@fmt+1)& (0+255),b
  3808  002AE8  EC04  F017         	call	_printf	;wreg free
  3809  002AEC                     
  3810                           ;helpers.c: 21:     printf("Final Project\r\n");
  3811  002AEC  0E8C               	movlw	low STR_20
  3812  002AEE  0100               	movlb	0	; () banked
  3813  002AF0  6FBB               	movwf	printf@fmt& (0+255),b
  3814  002AF2  0EFF               	movlw	high STR_20
  3815  002AF4  6FBC               	movwf	(printf@fmt+1)& (0+255),b
  3816  002AF6  EC04  F017         	call	_printf	;wreg free
  3817  002AFA                     
  3818                           ;helpers.c: 22:     printf("Install a jumper from RC4 to RC2 only after unplugging PICKi
      +                          t4\r\n");
  3819  002AFA  0E78               	movlw	low STR_21
  3820  002AFC  0100               	movlb	0	; () banked
  3821  002AFE  6FBB               	movwf	printf@fmt& (0+255),b
  3822  002B00  0EFD               	movlw	high STR_21
  3823  002B02  6FBC               	movwf	(printf@fmt+1)& (0+255),b
  3824  002B04  EC04  F017         	call	_printf	;wreg free
  3825  002B08                     
  3826                           ;helpers.c: 23:     printf("Connect a jumper from RC1 to IR Transmitter PIN\r\n");
  3827  002B08  0EF9               	movlw	low STR_22
  3828  002B0A  0100               	movlb	0	; () banked
  3829  002B0C  6FBB               	movwf	printf@fmt& (0+255),b
  3830  002B0E  0EFD               	movlw	high STR_22
  3831  002B10  6FBC               	movwf	(printf@fmt+1)& (0+255),b
  3832  002B12  EC04  F017         	call	_printf	;wreg free
  3833  002B16                     
  3834                           ;helpers.c: 24:  printf("\r\n> ");
  3835  002B16  0EEA               	movlw	low STR_23
  3836  002B18  0100               	movlb	0	; () banked
  3837  002B1A  6FBB               	movwf	printf@fmt& (0+255),b
  3838  002B1C  0EFF               	movlw	high STR_23
  3839  002B1E  6FBC               	movwf	(printf@fmt+1)& (0+255),b
  3840  002B20  EC04  F017         	call	_printf	;wreg free
  3841  002B24  0012               	return		;funcret
  3842  002B26                     __end_of_initializeAll:
  3843                           	opt callstack 0
  3844                           
  3845 ;; *************** function _SYSTEM_Initialize *****************
  3846 ;; Defined at:
  3847 ;;		line 50 in file "mcc_generated_files/mcc.c"
  3848 ;; Parameters:    Size  Location     Type
  3849 ;;		None
  3850 ;; Auto vars:     Size  Location     Type
  3851 ;;		None
  3852 ;; Return value:  Size  Location     Type
  3853 ;;                  1    wreg      void 
  3854 ;; Registers used:
  3855 ;;		wreg, status,2, status,0, cstack
  3856 ;; Tracked objects:
  3857 ;;		On entry : 0/0
  3858 ;;		On exit  : 0/0
  3859 ;;		Unchanged: 0/0
  3860 ;; Data sizes:     COMRAM   BANK0   BANK1   BANK2   BANK3   BANK4   BANK5   BANK6   BANK7   BANK8   BANK9  BANK10  BANK1
      +1  BANK12  BANK13  BANK14  BANK15
  3861 ;;      Params:         0       0       0       0       0       0       0       0       0       0       0       0       
      +0       0       0       0       0
  3862 ;;      Locals:         0       0       0       0       0       0       0       0       0       0       0       0       
      +0       0       0       0       0
  3863 ;;      Temps:          0       0       0       0       0       0       0       0       0       0       0       0       
      +0       0       0       0       0
  3864 ;;      Totals:         0       0       0       0       0       0       0       0       0       0       0       0       
      +0       0       0       0       0
  3865 ;;Total ram usage:        0 bytes
  3866 ;; Hardware stack levels used:    1
  3867 ;; Hardware stack levels required when called:    5
  3868 ;; This function calls:
  3869 ;;		_ECCP1_Initialize
  3870 ;;		_ECCP2_Initialize
  3871 ;;		_EUSART1_Initialize
  3872 ;;		_INTERRUPT_Initialize
  3873 ;;		_OSCILLATOR_Initialize
  3874 ;;		_PIN_MANAGER_Initialize
  3875 ;;		_TMR1_Initialize
  3876 ;; This function is called by:
  3877 ;;		_initializeAll
  3878 ;; This function uses a non-reentrant model
  3879 ;;
  3880                           
  3881                           	psect	text10
  3882  002E76                     __ptext10:
  3883                           	opt callstack 0
  3884  002E76                     _SYSTEM_Initialize:
  3885                           	opt callstack 24
  3886  002E76                     
  3887                           ;mcc_generated_files/mcc.c: 53:     INTERRUPT_Initialize();
  3888  002E76  ECCD  F017         	call	_INTERRUPT_Initialize	;wreg free
  3889  002E7A                     
  3890                           ;mcc_generated_files/mcc.c: 54:     PIN_MANAGER_Initialize();
  3891  002E7A  ECDA  F016         	call	_PIN_MANAGER_Initialize	;wreg free
  3892  002E7E                     
  3893                           ;mcc_generated_files/mcc.c: 55:     OSCILLATOR_Initialize();
  3894  002E7E  EC58  F017         	call	_OSCILLATOR_Initialize	;wreg free
  3895  002E82                     
  3896                           ;mcc_generated_files/mcc.c: 56:     ECCP2_Initialize();
  3897  002E82  EC66  F017         	call	_ECCP2_Initialize	;wreg free
  3898  002E86                     
  3899                           ;mcc_generated_files/mcc.c: 57:     ECCP1_Initialize();
  3900  002E86  EC87  F017         	call	_ECCP1_Initialize	;wreg free
  3901  002E8A                     
  3902                           ;mcc_generated_files/mcc.c: 58:     TMR1_Initialize();
  3903  002E8A  EC4A  F017         	call	_TMR1_Initialize	;wreg free
  3904  002E8E                     
  3905                           ;mcc_generated_files/mcc.c: 59:     EUSART1_Initialize();
  3906  002E8E  EC2C  F016         	call	_EUSART1_Initialize	;wreg free
  3907  002E92  0012               	return		;funcret
  3908  002E94                     __end_of_SYSTEM_Initialize:
  3909                           	opt callstack 0
  3910                           
  3911 ;; *************** function _TMR1_Initialize *****************
  3912 ;; Defined at:
  3913 ;;		line 63 in file "mcc_generated_files/tmr1.c"
  3914 ;; Parameters:    Size  Location     Type
  3915 ;;		None
  3916 ;; Auto vars:     Size  Location     Type
  3917 ;;		None
  3918 ;; Return value:  Size  Location     Type
  3919 ;;                  1    wreg      void 
  3920 ;; Registers used:
  3921 ;;		wreg, status,2
  3922 ;; Tracked objects:
  3923 ;;		On entry : 0/0
  3924 ;;		On exit  : 0/0
  3925 ;;		Unchanged: 0/0
  3926 ;; Data sizes:     COMRAM   BANK0   BANK1   BANK2   BANK3   BANK4   BANK5   BANK6   BANK7   BANK8   BANK9  BANK10  BANK1
      +1  BANK12  BANK13  BANK14  BANK15
  3927 ;;      Params:         0       0       0       0       0       0       0       0       0       0       0       0       
      +0       0       0       0       0
  3928 ;;      Locals:         0       0       0       0       0       0       0       0       0       0       0       0       
      +0       0       0       0       0
  3929 ;;      Temps:          0       0       0       0       0       0       0       0       0       0       0       0       
      +0       0       0       0       0
  3930 ;;      Totals:         0       0       0       0       0       0       0       0       0       0       0       0       
      +0       0       0       0       0
  3931 ;;Total ram usage:        0 bytes
  3932 ;; Hardware stack levels used:    1
  3933 ;; Hardware stack levels required when called:    3
  3934 ;; This function calls:
  3935 ;;		Nothing
  3936 ;; This function is called by:
  3937 ;;		_SYSTEM_Initialize
  3938 ;; This function uses a non-reentrant model
  3939 ;;
  3940                           
  3941                           	psect	text11
  3942  002E94                     __ptext11:
  3943                           	opt callstack 0
  3944  002E94                     _TMR1_Initialize:
  3945                           	opt callstack 25
  3946  002E94                     
  3947                           ;mcc_generated_files/tmr1.c: 68:     T1GCON = 0x00;
  3948  002E94  0E00               	movlw	0
  3949  002E96  6ECC               	movwf	204,c	;volatile
  3950                           
  3951                           ;mcc_generated_files/tmr1.c: 71:     TMR1H = 0xE0;
  3952  002E98  0EE0               	movlw	224
  3953  002E9A  6ECF               	movwf	207,c	;volatile
  3954                           
  3955                           ;mcc_generated_files/tmr1.c: 74:     TMR1L = 0x00;
  3956  002E9C  0E00               	movlw	0
  3957  002E9E  6ECE               	movwf	206,c	;volatile
  3958  002EA0                     
  3959                           ;mcc_generated_files/tmr1.c: 77:     timer1ReloadVal=TMR1;
  3960  002EA0  CFCE F082          	movff	4046,_timer1ReloadVal	;volatile
  3961  002EA4  CFCF F083          	movff	4047,_timer1ReloadVal+1	;volatile
  3962  002EA8                     
  3963                           ;mcc_generated_files/tmr1.c: 80:     PIR1bits.TMR1IF = 0;
  3964  002EA8  909E               	bcf	158,0,c	;volatile
  3965                           
  3966                           ;mcc_generated_files/tmr1.c: 83:     T1CON = 0x31;
  3967  002EAA  0E31               	movlw	49
  3968  002EAC  6ECD               	movwf	205,c	;volatile
  3969  002EAE  0012               	return		;funcret
  3970  002EB0                     __end_of_TMR1_Initialize:
  3971                           	opt callstack 0
  3972                           
  3973 ;; *************** function _PIN_MANAGER_Initialize *****************
  3974 ;; Defined at:
  3975 ;;		line 55 in file "mcc_generated_files/pin_manager.c"
  3976 ;; Parameters:    Size  Location     Type
  3977 ;;		None
  3978 ;; Auto vars:     Size  Location     Type
  3979 ;;		None
  3980 ;; Return value:  Size  Location     Type
  3981 ;;                  1    wreg      void 
  3982 ;; Registers used:
  3983 ;;		wreg, status,2
  3984 ;; Tracked objects:
  3985 ;;		On entry : 0/0
  3986 ;;		On exit  : 0/0
  3987 ;;		Unchanged: 0/0
  3988 ;; Data sizes:     COMRAM   BANK0   BANK1   BANK2   BANK3   BANK4   BANK5   BANK6   BANK7   BANK8   BANK9  BANK10  BANK1
      +1  BANK12  BANK13  BANK14  BANK15
  3989 ;;      Params:         0       0       0       0       0       0       0       0       0       0       0       0       
      +0       0       0       0       0
  3990 ;;      Locals:         0       0       0       0       0       0       0       0       0       0       0       0       
      +0       0       0       0       0
  3991 ;;      Temps:          0       0       0       0       0       0       0       0       0       0       0       0       
      +0       0       0       0       0
  3992 ;;      Totals:         0       0       0       0       0       0       0       0       0       0       0       0       
      +0       0       0       0       0
  3993 ;;Total ram usage:        0 bytes
  3994 ;; Hardware stack levels used:    1
  3995 ;; Hardware stack levels required when called:    3
  3996 ;; This function calls:
  3997 ;;		Nothing
  3998 ;; This function is called by:
  3999 ;;		_SYSTEM_Initialize
  4000 ;; This function uses a non-reentrant model
  4001 ;;
  4002                           
  4003                           	psect	text12
  4004  002DB4                     __ptext12:
  4005                           	opt callstack 0
  4006  002DB4                     _PIN_MANAGER_Initialize:
  4007                           	opt callstack 25
  4008  002DB4                     
  4009                           ;mcc_generated_files/pin_manager.c: 60:     LATA = 0x00;
  4010  002DB4  0E00               	movlw	0
  4011  002DB6  6E89               	movwf	137,c	;volatile
  4012                           
  4013                           ;mcc_generated_files/pin_manager.c: 61:     LATB = 0x00;
  4014  002DB8  0E00               	movlw	0
  4015  002DBA  6E8A               	movwf	138,c	;volatile
  4016                           
  4017                           ;mcc_generated_files/pin_manager.c: 62:     LATC = 0x00;
  4018  002DBC  0E00               	movlw	0
  4019  002DBE  6E8B               	movwf	139,c	;volatile
  4020  002DC0                     
  4021                           ;mcc_generated_files/pin_manager.c: 67:     TRISA = 0xFF;
  4022  002DC0  6892               	setf	146,c	;volatile
  4023  002DC2                     
  4024                           ;mcc_generated_files/pin_manager.c: 68:     TRISB = 0xFF;
  4025  002DC2  6893               	setf	147,c	;volatile
  4026                           
  4027                           ;mcc_generated_files/pin_manager.c: 69:     TRISC = 0xBD;
  4028  002DC4  0EBD               	movlw	189
  4029  002DC6  6E94               	movwf	148,c	;volatile
  4030                           
  4031                           ;mcc_generated_files/pin_manager.c: 74:     ANSELC = 0x38;
  4032  002DC8  0E38               	movlw	56
  4033  002DCA  010F               	movlb	15	; () banked
  4034  002DCC  6F3A               	movwf	58,b	;volatile
  4035                           
  4036                           ;mcc_generated_files/pin_manager.c: 75:     ANSELB = 0x3F;
  4037  002DCE  0E3F               	movlw	63
  4038  002DD0  6F39               	movwf	57,b	;volatile
  4039                           
  4040                           ;mcc_generated_files/pin_manager.c: 76:     ANSELA = 0x2F;
  4041  002DD2  0E2F               	movlw	47
  4042  002DD4  6F38               	movwf	56,b	;volatile
  4043                           
  4044                           ;mcc_generated_files/pin_manager.c: 81:     WPUB = 0x00;
  4045  002DD6  0E00               	movlw	0
  4046  002DD8  6E61               	movwf	97,c	;volatile
  4047  002DDA                     
  4048                           ; BSR set to: 15
  4049                           ;mcc_generated_files/pin_manager.c: 82:     INTCON2bits.nRBPU = 1;
  4050  002DDA  8EF1               	bsf	241,7,c	;volatile
  4051  002DDC                     
  4052                           ; BSR set to: 15
  4053  002DDC  0012               	return		;funcret
  4054  002DDE                     __end_of_PIN_MANAGER_Initialize:
  4055                           	opt callstack 0
  4056                           
  4057 ;; *************** function _OSCILLATOR_Initialize *****************
  4058 ;; Defined at:
  4059 ;;		line 62 in file "mcc_generated_files/mcc.c"
  4060 ;; Parameters:    Size  Location     Type
  4061 ;;		None
  4062 ;; Auto vars:     Size  Location     Type
  4063 ;;		None
  4064 ;; Return value:  Size  Location     Type
  4065 ;;                  1    wreg      void 
  4066 ;; Registers used:
  4067 ;;		wreg, status,2
  4068 ;; Tracked objects:
  4069 ;;		On entry : 0/0
  4070 ;;		On exit  : 0/0
  4071 ;;		Unchanged: 0/0
  4072 ;; Data sizes:     COMRAM   BANK0   BANK1   BANK2   BANK3   BANK4   BANK5   BANK6   BANK7   BANK8   BANK9  BANK10  BANK1
      +1  BANK12  BANK13  BANK14  BANK15
  4073 ;;      Params:         0       0       0       0       0       0       0       0       0       0       0       0       
      +0       0       0       0       0
  4074 ;;      Locals:         0       0       0       0       0       0       0       0       0       0       0       0       
      +0       0       0       0       0
  4075 ;;      Temps:          0       0       0       0       0       0       0       0       0       0       0       0       
      +0       0       0       0       0
  4076 ;;      Totals:         0       0       0       0       0       0       0       0       0       0       0       0       
      +0       0       0       0       0
  4077 ;;Total ram usage:        0 bytes
  4078 ;; Hardware stack levels used:    1
  4079 ;; Hardware stack levels required when called:    3
  4080 ;; This function calls:
  4081 ;;		Nothing
  4082 ;; This function is called by:
  4083 ;;		_SYSTEM_Initialize
  4084 ;; This function uses a non-reentrant model
  4085 ;;
  4086                           
  4087                           	psect	text13
  4088  002EB0                     __ptext13:
  4089                           	opt callstack 0
  4090  002EB0                     _OSCILLATOR_Initialize:
  4091                           	opt callstack 25
  4092  002EB0                     
  4093                           ;mcc_generated_files/mcc.c: 65:     OSCCON = 0x70;
  4094  002EB0  0E70               	movlw	112
  4095  002EB2  6ED3               	movwf	211,c	;volatile
  4096                           
  4097                           ;mcc_generated_files/mcc.c: 67:     OSCCON2 = 0x04;
  4098  002EB4  0E04               	movlw	4
  4099  002EB6  6ED2               	movwf	210,c	;volatile
  4100                           
  4101                           ;mcc_generated_files/mcc.c: 69:     OSCTUNE = 0x40;
  4102  002EB8  0E40               	movlw	64
  4103  002EBA  6E9B               	movwf	155,c	;volatile
  4104  002EBC                     l191:
  4105                           
  4106                           ;mcc_generated_files/mcc.c: 71:     while(PLLRDY == 0)
  4107  002EBC  AED2               	btfss	4050,7,c	;volatile
  4108  002EBE  EF63  F017         	goto	u2641
  4109  002EC2  EF65  F017         	goto	u2640
  4110  002EC6                     u2641:
  4111  002EC6  EF5E  F017         	goto	l191
  4112  002ECA                     u2640:
  4113  002ECA  0012               	return		;funcret
  4114  002ECC                     __end_of_OSCILLATOR_Initialize:
  4115                           	opt callstack 0
  4116                           
  4117 ;; *************** function _INTERRUPT_Initialize *****************
  4118 ;; Defined at:
  4119 ;;		line 52 in file "mcc_generated_files/interrupt_manager.c"
  4120 ;; Parameters:    Size  Location     Type
  4121 ;;		None
  4122 ;; Auto vars:     Size  Location     Type
  4123 ;;		None
  4124 ;; Return value:  Size  Location     Type
  4125 ;;                  1    wreg      void 
  4126 ;; Registers used:
  4127 ;;		None
  4128 ;; Tracked objects:
  4129 ;;		On entry : 0/0
  4130 ;;		On exit  : 0/0
  4131 ;;		Unchanged: 0/0
  4132 ;; Data sizes:     COMRAM   BANK0   BANK1   BANK2   BANK3   BANK4   BANK5   BANK6   BANK7   BANK8   BANK9  BANK10  BANK1
      +1  BANK12  BANK13  BANK14  BANK15
  4133 ;;      Params:         0       0       0       0       0       0       0       0       0       0       0       0       
      +0       0       0       0       0
  4134 ;;      Locals:         0       0       0       0       0       0       0       0       0       0       0       0       
      +0       0       0       0       0
  4135 ;;      Temps:          0       0       0       0       0       0       0       0       0       0       0       0       
      +0       0       0       0       0
  4136 ;;      Totals:         0       0       0       0       0       0       0       0       0       0       0       0       
      +0       0       0       0       0
  4137 ;;Total ram usage:        0 bytes
  4138 ;; Hardware stack levels used:    1
  4139 ;; Hardware stack levels required when called:    3
  4140 ;; This function calls:
  4141 ;;		Nothing
  4142 ;; This function is called by:
  4143 ;;		_SYSTEM_Initialize
  4144 ;; This function uses a non-reentrant model
  4145 ;;
  4146                           
  4147                           	psect	text14
  4148  002F9A                     __ptext14:
  4149                           	opt callstack 0
  4150  002F9A                     _INTERRUPT_Initialize:
  4151                           	opt callstack 25
  4152  002F9A                     
  4153                           ;mcc_generated_files/interrupt_manager.c: 55:     RCONbits.IPEN = 0;
  4154  002F9A  9ED0               	bcf	208,7,c	;volatile
  4155  002F9C  0012               	return		;funcret
  4156  002F9E                     __end_of_INTERRUPT_Initialize:
  4157                           	opt callstack 0
  4158                           
  4159 ;; *************** function _EUSART1_Initialize *****************
  4160 ;; Defined at:
  4161 ;;		line 66 in file "mcc_generated_files/eusart1.c"
  4162 ;; Parameters:    Size  Location     Type
  4163 ;;		None
  4164 ;; Auto vars:     Size  Location     Type
  4165 ;;		None
  4166 ;; Return value:  Size  Location     Type
  4167 ;;                  1    wreg      void 
  4168 ;; Registers used:
  4169 ;;		wreg, status,2, status,0, cstack
  4170 ;; Tracked objects:
  4171 ;;		On entry : 0/0
  4172 ;;		On exit  : 0/0
  4173 ;;		Unchanged: 0/0
  4174 ;; Data sizes:     COMRAM   BANK0   BANK1   BANK2   BANK3   BANK4   BANK5   BANK6   BANK7   BANK8   BANK9  BANK10  BANK1
      +1  BANK12  BANK13  BANK14  BANK15
  4175 ;;      Params:         0       0       0       0       0       0       0       0       0       0       0       0       
      +0       0       0       0       0
  4176 ;;      Locals:         0       0       0       0       0       0       0       0       0       0       0       0       
      +0       0       0       0       0
  4177 ;;      Temps:          0       0       0       0       0       0       0       0       0       0       0       0       
      +0       0       0       0       0
  4178 ;;      Totals:         0       0       0       0       0       0       0       0       0       0       0       0       
      +0       0       0       0       0
  4179 ;;Total ram usage:        0 bytes
  4180 ;; Hardware stack levels used:    1
  4181 ;; Hardware stack levels required when called:    4
  4182 ;; This function calls:
  4183 ;;		_EUSART1_SetErrorHandler
  4184 ;;		_EUSART1_SetFramingErrorHandler
  4185 ;;		_EUSART1_SetOverrunErrorHandler
  4186 ;; This function is called by:
  4187 ;;		_SYSTEM_Initialize
  4188 ;; This function uses a non-reentrant model
  4189 ;;
  4190                           
  4191                           	psect	text15
  4192  002C58                     __ptext15:
  4193                           	opt callstack 0
  4194  002C58                     _EUSART1_Initialize:
  4195                           	opt callstack 24
  4196  002C58                     
  4197                           ;mcc_generated_files/eusart1.c: 71:     BAUDCON1 = 0x08;
  4198  002C58  0E08               	movlw	8
  4199  002C5A  6EB8               	movwf	184,c	;volatile
  4200                           
  4201                           ;mcc_generated_files/eusart1.c: 74:     RCSTA1 = 0x90;
  4202  002C5C  0E90               	movlw	144
  4203  002C5E  6EAB               	movwf	171,c	;volatile
  4204                           
  4205                           ;mcc_generated_files/eusart1.c: 77:     TXSTA1 = 0x24;
  4206  002C60  0E24               	movlw	36
  4207  002C62  6EAC               	movwf	172,c	;volatile
  4208                           
  4209                           ;mcc_generated_files/eusart1.c: 80:     SPBRG1 = 0x82;
  4210  002C64  0E82               	movlw	130
  4211  002C66  6EAF               	movwf	175,c	;volatile
  4212                           
  4213                           ;mcc_generated_files/eusart1.c: 83:     SPBRGH1 = 0x06;
  4214  002C68  0E06               	movlw	6
  4215  002C6A  6EB0               	movwf	176,c	;volatile
  4216  002C6C                     
  4217                           ;mcc_generated_files/eusart1.c: 86:     EUSART1_SetFramingErrorHandler(EUSART1_DefaultFr
      +                          amingErrorHandler);
  4218  002C6C  0E00               	movlw	0
  4219  002C6E  6E05               	movwf	EUSART1_SetFramingErrorHandler@interruptHandler^0,c
  4220  002C70  0E00               	movlw	0
  4221  002C72  6E06               	movwf	(EUSART1_SetFramingErrorHandler@interruptHandler+1)^0,c
  4222  002C74  ECBB  F017         	call	_EUSART1_SetFramingErrorHandler	;wreg free
  4223  002C78                     
  4224                           ;mcc_generated_files/eusart1.c: 87:     EUSART1_SetOverrunErrorHandler(EUSART1_DefaultOv
      +                          errunErrorHandler);
  4225  002C78  0E00               	movlw	0
  4226  002C7A  6E05               	movwf	EUSART1_SetOverrunErrorHandler@interruptHandler^0,c
  4227  002C7C  0E00               	movlw	0
  4228  002C7E  6E06               	movwf	(EUSART1_SetOverrunErrorHandler@interruptHandler+1)^0,c
  4229  002C80  ECB6  F017         	call	_EUSART1_SetOverrunErrorHandler	;wreg free
  4230  002C84                     
  4231                           ;mcc_generated_files/eusart1.c: 88:     EUSART1_SetErrorHandler(EUSART1_DefaultErrorHand
      +                          ler);
  4232  002C84  0E00               	movlw	0
  4233  002C86  6E05               	movwf	EUSART1_SetErrorHandler@interruptHandler^0,c
  4234  002C88  0E00               	movlw	0
  4235  002C8A  6E06               	movwf	(EUSART1_SetErrorHandler@interruptHandler+1)^0,c
  4236  002C8C  ECC0  F017         	call	_EUSART1_SetErrorHandler	;wreg free
  4237  002C90                     
  4238                           ;mcc_generated_files/eusart1.c: 90:     eusart1RxLastError.status = 0;
  4239  002C90  0E00               	movlw	0
  4240  002C92  0100               	movlb	0	; () banked
  4241  002C94  6F8B               	movwf	_eusart1RxLastError& (0+255),b	;volatile
  4242  002C96                     
  4243                           ; BSR set to: 0
  4244  002C96  0012               	return		;funcret
  4245  002C98                     __end_of_EUSART1_Initialize:
  4246                           	opt callstack 0
  4247                           
  4248 ;; *************** function _EUSART1_SetOverrunErrorHandler *****************
  4249 ;; Defined at:
  4250 ;;		line 170 in file "mcc_generated_files/eusart1.c"
  4251 ;; Parameters:    Size  Location     Type
  4252 ;;  interruptHan    2    4[COMRAM] PTR FTN()void 
  4253 ;;		 -> EUSART1_DefaultOverrunErrorHandler(1), 
  4254 ;; Auto vars:     Size  Location     Type
  4255 ;;		None
  4256 ;; Return value:  Size  Location     Type
  4257 ;;                  1    wreg      void 
  4258 ;; Registers used:
  4259 ;;		wreg, status,2, status,0
  4260 ;; Tracked objects:
  4261 ;;		On entry : 0/0
  4262 ;;		On exit  : 0/0
  4263 ;;		Unchanged: 0/0
  4264 ;; Data sizes:     COMRAM   BANK0   BANK1   BANK2   BANK3   BANK4   BANK5   BANK6   BANK7   BANK8   BANK9  BANK10  BANK1
      +1  BANK12  BANK13  BANK14  BANK15
  4265 ;;      Params:         2       0       0       0       0       0       0       0       0       0       0       0       
      +0       0       0       0       0
  4266 ;;      Locals:         0       0       0       0       0       0       0       0       0       0       0       0       
      +0       0       0       0       0
  4267 ;;      Temps:          0       0       0       0       0       0       0       0       0       0       0       0       
      +0       0       0       0       0
  4268 ;;      Totals:         2       0       0       0       0       0       0       0       0       0       0       0       
      +0       0       0       0       0
  4269 ;;Total ram usage:        2 bytes
  4270 ;; Hardware stack levels used:    1
  4271 ;; Hardware stack levels required when called:    3
  4272 ;; This function calls:
  4273 ;;		Nothing
  4274 ;; This function is called by:
  4275 ;;		_EUSART1_Initialize
  4276 ;; This function uses a non-reentrant model
  4277 ;;
  4278                           
  4279                           	psect	text16
  4280  002F6C                     __ptext16:
  4281                           	opt callstack 0
  4282  002F6C                     _EUSART1_SetOverrunErrorHandler:
  4283                           	opt callstack 24
  4284  002F6C                     
  4285                           ;mcc_generated_files/eusart1.c: 171:     EUSART1_OverrunErrorHandler = interruptHandler;
  4286  002F6C  C005  F07E         	movff	EUSART1_SetOverrunErrorHandler@interruptHandler,_EUSART1_OverrunErrorHandler
  4287  002F70  C006  F07F         	movff	EUSART1_SetOverrunErrorHandler@interruptHandler+1,_EUSART1_OverrunErrorHandler+1
  4288  002F74  0012               	return		;funcret
  4289  002F76                     __end_of_EUSART1_SetOverrunErrorHandler:
  4290                           	opt callstack 0
  4291                           
  4292 ;; *************** function _EUSART1_SetFramingErrorHandler *****************
  4293 ;; Defined at:
  4294 ;;		line 166 in file "mcc_generated_files/eusart1.c"
  4295 ;; Parameters:    Size  Location     Type
  4296 ;;  interruptHan    2    4[COMRAM] PTR FTN()void 
  4297 ;;		 -> EUSART1_DefaultFramingErrorHandler(1), 
  4298 ;; Auto vars:     Size  Location     Type
  4299 ;;		None
  4300 ;; Return value:  Size  Location     Type
  4301 ;;                  1    wreg      void 
  4302 ;; Registers used:
  4303 ;;		wreg, status,2, status,0
  4304 ;; Tracked objects:
  4305 ;;		On entry : 0/0
  4306 ;;		On exit  : 0/0
  4307 ;;		Unchanged: 0/0
  4308 ;; Data sizes:     COMRAM   BANK0   BANK1   BANK2   BANK3   BANK4   BANK5   BANK6   BANK7   BANK8   BANK9  BANK10  BANK1
      +1  BANK12  BANK13  BANK14  BANK15
  4309 ;;      Params:         2       0       0       0       0       0       0       0       0       0       0       0       
      +0       0       0       0       0
  4310 ;;      Locals:         0       0       0       0       0       0       0       0       0       0       0       0       
      +0       0       0       0       0
  4311 ;;      Temps:          0       0       0       0       0       0       0       0       0       0       0       0       
      +0       0       0       0       0
  4312 ;;      Totals:         2       0       0       0       0       0       0       0       0       0       0       0       
      +0       0       0       0       0
  4313 ;;Total ram usage:        2 bytes
  4314 ;; Hardware stack levels used:    1
  4315 ;; Hardware stack levels required when called:    3
  4316 ;; This function calls:
  4317 ;;		Nothing
  4318 ;; This function is called by:
  4319 ;;		_EUSART1_Initialize
  4320 ;; This function uses a non-reentrant model
  4321 ;;
  4322                           
  4323                           	psect	text17
  4324  002F76                     __ptext17:
  4325                           	opt callstack 0
  4326  002F76                     _EUSART1_SetFramingErrorHandler:
  4327                           	opt callstack 24
  4328  002F76                     
  4329                           ;mcc_generated_files/eusart1.c: 167:     EUSART1_FramingErrorHandler = interruptHandler;
  4330  002F76  C005  F080         	movff	EUSART1_SetFramingErrorHandler@interruptHandler,_EUSART1_FramingErrorHandler
  4331  002F7A  C006  F081         	movff	EUSART1_SetFramingErrorHandler@interruptHandler+1,_EUSART1_FramingErrorHandler+1
  4332  002F7E  0012               	return		;funcret
  4333  002F80                     __end_of_EUSART1_SetFramingErrorHandler:
  4334                           	opt callstack 0
  4335                           
  4336 ;; *************** function _EUSART1_SetErrorHandler *****************
  4337 ;; Defined at:
  4338 ;;		line 174 in file "mcc_generated_files/eusart1.c"
  4339 ;; Parameters:    Size  Location     Type
  4340 ;;  interruptHan    2    4[COMRAM] PTR FTN()void 
  4341 ;;		 -> EUSART1_DefaultErrorHandler(1), 
  4342 ;; Auto vars:     Size  Location     Type
  4343 ;;		None
  4344 ;; Return value:  Size  Location     Type
  4345 ;;                  1    wreg      void 
  4346 ;; Registers used:
  4347 ;;		wreg, status,2, status,0
  4348 ;; Tracked objects:
  4349 ;;		On entry : 0/0
  4350 ;;		On exit  : 0/0
  4351 ;;		Unchanged: 0/0
  4352 ;; Data sizes:     COMRAM   BANK0   BANK1   BANK2   BANK3   BANK4   BANK5   BANK6   BANK7   BANK8   BANK9  BANK10  BANK1
      +1  BANK12  BANK13  BANK14  BANK15
  4353 ;;      Params:         2       0       0       0       0       0       0       0       0       0       0       0       
      +0       0       0       0       0
  4354 ;;      Locals:         0       0       0       0       0       0       0       0       0       0       0       0       
      +0       0       0       0       0
  4355 ;;      Temps:          0       0       0       0       0       0       0       0       0       0       0       0       
      +0       0       0       0       0
  4356 ;;      Totals:         2       0       0       0       0       0       0       0       0       0       0       0       
      +0       0       0       0       0
  4357 ;;Total ram usage:        2 bytes
  4358 ;; Hardware stack levels used:    1
  4359 ;; Hardware stack levels required when called:    3
  4360 ;; This function calls:
  4361 ;;		Nothing
  4362 ;; This function is called by:
  4363 ;;		_EUSART1_Initialize
  4364 ;; This function uses a non-reentrant model
  4365 ;;
  4366                           
  4367                           	psect	text18
  4368  002F80                     __ptext18:
  4369                           	opt callstack 0
  4370  002F80                     _EUSART1_SetErrorHandler:
  4371                           	opt callstack 24
  4372  002F80                     
  4373                           ;mcc_generated_files/eusart1.c: 175:     EUSART1_ErrorHandler = interruptHandler;
  4374  002F80  C005  F07C         	movff	EUSART1_SetErrorHandler@interruptHandler,_EUSART1_ErrorHandler
  4375  002F84  C006  F07D         	movff	EUSART1_SetErrorHandler@interruptHandler+1,_EUSART1_ErrorHandler+1
  4376  002F88  0012               	return		;funcret
  4377  002F8A                     __end_of_EUSART1_SetErrorHandler:
  4378                           	opt callstack 0
  4379                           
  4380 ;; *************** function _ECCP2_Initialize *****************
  4381 ;; Defined at:
  4382 ;;		line 59 in file "mcc_generated_files/eccp2.c"
  4383 ;; Parameters:    Size  Location     Type
  4384 ;;		None
  4385 ;; Auto vars:     Size  Location     Type
  4386 ;;		None
  4387 ;; Return value:  Size  Location     Type
  4388 ;;                  1    wreg      void 
  4389 ;; Registers used:
  4390 ;;		wreg, status,2
  4391 ;; Tracked objects:
  4392 ;;		On entry : 0/0
  4393 ;;		On exit  : 0/0
  4394 ;;		Unchanged: 0/0
  4395 ;; Data sizes:     COMRAM   BANK0   BANK1   BANK2   BANK3   BANK4   BANK5   BANK6   BANK7   BANK8   BANK9  BANK10  BANK1
      +1  BANK12  BANK13  BANK14  BANK15
  4396 ;;      Params:         0       0       0       0       0       0       0       0       0       0       0       0       
      +0       0       0       0       0
  4397 ;;      Locals:         0       0       0       0       0       0       0       0       0       0       0       0       
      +0       0       0       0       0
  4398 ;;      Temps:          0       0       0       0       0       0       0       0       0       0       0       0       
      +0       0       0       0       0
  4399 ;;      Totals:         0       0       0       0       0       0       0       0       0       0       0       0       
      +0       0       0       0       0
  4400 ;;Total ram usage:        0 bytes
  4401 ;; Hardware stack levels used:    1
  4402 ;; Hardware stack levels required when called:    3
  4403 ;; This function calls:
  4404 ;;		Nothing
  4405 ;; This function is called by:
  4406 ;;		_SYSTEM_Initialize
  4407 ;;		_initializeAll
  4408 ;; This function uses a non-reentrant model
  4409 ;;
  4410                           
  4411                           	psect	text19
  4412  002ECC                     __ptext19:
  4413                           	opt callstack 0
  4414  002ECC                     _ECCP2_Initialize:
  4415                           	opt callstack 25
  4416  002ECC                     
  4417                           ;mcc_generated_files/eccp2.c: 64:  CCP2CON = 0x32;
  4418  002ECC  0E32               	movlw	50
  4419  002ECE  6E66               	movwf	102,c	;volatile
  4420                           
  4421                           ;mcc_generated_files/eccp2.c: 67:  CCPR2H = 0x00;
  4422  002ED0  0E00               	movlw	0
  4423  002ED2  6E68               	movwf	104,c	;volatile
  4424                           
  4425                           ;mcc_generated_files/eccp2.c: 70:  CCPR2L = 0x00;
  4426  002ED4  0E00               	movlw	0
  4427  002ED6  6E67               	movwf	103,c	;volatile
  4428  002ED8                     
  4429                           ;mcc_generated_files/eccp2.c: 73:     PIR2bits.CCP2IF = 0;
  4430  002ED8  90A1               	bcf	161,0,c	;volatile
  4431  002EDA                     
  4432                           ;mcc_generated_files/eccp2.c: 76:     PIE2bits.CCP2IE = 1;
  4433  002EDA  80A0               	bsf	160,0,c	;volatile
  4434                           
  4435                           ;mcc_generated_files/eccp2.c: 79:  CCPTMRS0bits.C2TSEL = 0x0;
  4436  002EDC  0EE7               	movlw	-25
  4437  002EDE  010F               	movlb	15	; () banked
  4438  002EE0  1749               	andwf	73,f,b	;volatile
  4439  002EE2                     
  4440                           ; BSR set to: 15
  4441  002EE2  0012               	return		;funcret
  4442  002EE4                     __end_of_ECCP2_Initialize:
  4443                           	opt callstack 0
  4444                           
  4445 ;; *************** function _ECCP1_Initialize *****************
  4446 ;; Defined at:
  4447 ;;		line 58 in file "mcc_generated_files/eccp1.c"
  4448 ;; Parameters:    Size  Location     Type
  4449 ;;		None
  4450 ;; Auto vars:     Size  Location     Type
  4451 ;;		None
  4452 ;; Return value:  Size  Location     Type
  4453 ;;                  1    wreg      void 
  4454 ;; Registers used:
  4455 ;;		wreg, status,2
  4456 ;; Tracked objects:
  4457 ;;		On entry : 0/0
  4458 ;;		On exit  : 0/0
  4459 ;;		Unchanged: 0/0
  4460 ;; Data sizes:     COMRAM   BANK0   BANK1   BANK2   BANK3   BANK4   BANK5   BANK6   BANK7   BANK8   BANK9  BANK10  BANK1
      +1  BANK12  BANK13  BANK14  BANK15
  4461 ;;      Params:         0       0       0       0       0       0       0       0       0       0       0       0       
      +0       0       0       0       0
  4462 ;;      Locals:         0       0       0       0       0       0       0       0       0       0       0       0       
      +0       0       0       0       0
  4463 ;;      Temps:          0       0       0       0       0       0       0       0       0       0       0       0       
      +0       0       0       0       0
  4464 ;;      Totals:         0       0       0       0       0       0       0       0       0       0       0       0       
      +0       0       0       0       0
  4465 ;;Total ram usage:        0 bytes
  4466 ;; Hardware stack levels used:    1
  4467 ;; Hardware stack levels required when called:    3
  4468 ;; This function calls:
  4469 ;;		Nothing
  4470 ;; This function is called by:
  4471 ;;		_SYSTEM_Initialize
  4472 ;;		_initializeAll
  4473 ;; This function uses a non-reentrant model
  4474 ;;
  4475                           
  4476                           	psect	text20
  4477  002F0E                     __ptext20:
  4478                           	opt callstack 0
  4479  002F0E                     _ECCP1_Initialize:
  4480                           	opt callstack 25
  4481  002F0E                     
  4482                           ;mcc_generated_files/eccp1.c: 63:  CCP1CON = 0x04;
  4483  002F0E  0E04               	movlw	4
  4484  002F10  6EBD               	movwf	189,c	;volatile
  4485                           
  4486                           ;mcc_generated_files/eccp1.c: 66:  CCPR1H = 0x00;
  4487  002F12  0E00               	movlw	0
  4488  002F14  6EBF               	movwf	191,c	;volatile
  4489                           
  4490                           ;mcc_generated_files/eccp1.c: 69:  CCPR1L = 0x00;
  4491  002F16  0E00               	movlw	0
  4492  002F18  6EBE               	movwf	190,c	;volatile
  4493                           
  4494                           ;mcc_generated_files/eccp1.c: 73:  CCPTMRS0bits.C1TSEL = 0x0;
  4495  002F1A  0EFC               	movlw	-4
  4496  002F1C  010F               	movlb	15	; () banked
  4497  002F1E  1749               	andwf	73,f,b	;volatile
  4498  002F20                     
  4499                           ; BSR set to: 15
  4500  002F20  0012               	return		;funcret
  4501  002F22                     __end_of_ECCP1_Initialize:
  4502                           	opt callstack 0
  4503                           
  4504 ;; *************** function _generalCases *****************
  4505 ;; Defined at:
  4506 ;;		line 45 in file "helpers.c"
  4507 ;; Parameters:    Size  Location     Type
  4508 ;;  cmd             1    wreg     unsigned char 
  4509 ;; Auto vars:     Size  Location     Type
  4510 ;;  cmd             1   39[BANK0 ] unsigned char 
  4511 ;;  i               1   40[BANK0 ] unsigned char 
  4512 ;; Return value:  Size  Location     Type
  4513 ;;                  1    wreg      void 
  4514 ;; Registers used:
  4515 ;;		wreg, fsr1l, fsr1h, fsr2l, fsr2h, status,2, status,0, tblptrl, tblptrh, tblptru, cstack
  4516 ;; Tracked objects:
  4517 ;;		On entry : 0/0
  4518 ;;		On exit  : 0/0
  4519 ;;		Unchanged: 0/0
  4520 ;; Data sizes:     COMRAM   BANK0   BANK1   BANK2   BANK3   BANK4   BANK5   BANK6   BANK7   BANK8   BANK9  BANK10  BANK1
      +1  BANK12  BANK13  BANK14  BANK15
  4521 ;;      Params:         0       0       0       0       0       0       0       0       0       0       0       0       
      +0       0       0       0       0
  4522 ;;      Locals:         0       2       0       0       0       0       0       0       0       0       0       0       
      +0       0       0       0       0
  4523 ;;      Temps:          0       2       0       0       0       0       0       0       0       0       0       0       
      +0       0       0       0       0
  4524 ;;      Totals:         0       4       0       0       0       0       0       0       0       0       0       0       
      +0       0       0       0       0
  4525 ;;Total ram usage:        4 bytes
  4526 ;; Hardware stack levels used:    1
  4527 ;; Hardware stack levels required when called:   14
  4528 ;; This function calls:
  4529 ;;		_printMenu
  4530 ;;		_printf
  4531 ;; This function is called by:
  4532 ;;		_main
  4533 ;; This function uses a non-reentrant model
  4534 ;;
  4535                           
  4536                           	psect	text21
  4537  00271A                     __ptext21:
  4538                           	opt callstack 0
  4539  00271A                     _generalCases:
  4540                           	opt callstack 16
  4541                           
  4542                           ; BSR set to: 15
  4543                           ;incstack = 0
  4544                           ;generalCases@cmd stored from wreg
  4545  00271A  0100               	movlb	0	; () banked
  4546  00271C  6FD3               	movwf	generalCases@cmd& (0+255),b
  4547  00271E                     
  4548                           ;helpers.c: 46:     uint8_t i;;helpers.c: 47:     switch(cmd) {
  4549  00271E  EFD1  F013         	goto	l4730
  4550  002722                     l4698:
  4551                           
  4552                           ; BSR set to: 0
  4553                           ;helpers.c: 52:             printMenu();
  4554  002722  EC91  F017         	call	_printMenu	;wreg free
  4555                           
  4556                           ;helpers.c: 53:             break;
  4557  002726  EFEF  F013         	goto	l444
  4558  00272A                     l4700:
  4559                           
  4560                           ; BSR set to: 0
  4561                           ;helpers.c: 59:             printf("o:	ok\r\n");
  4562  00272A  0EE2               	movlw	low STR_24
  4563  00272C  6FBB               	movwf	printf@fmt& (0+255),b
  4564  00272E  0EFF               	movlw	high STR_24
  4565  002730  6FBC               	movwf	(printf@fmt+1)& (0+255),b
  4566  002732  EC04  F017         	call	_printf	;wreg free
  4567                           
  4568                           ;helpers.c: 60:             break;
  4569  002736  EFEF  F013         	goto	l444
  4570  00273A                     l4702:
  4571                           
  4572                           ; BSR set to: 0
  4573                           ;helpers.c: 66:             for (i=0; i<40; i++) printf("\n");
  4574  00273A  0E00               	movlw	0
  4575  00273C  6FD4               	movwf	generalCases@i& (0+255),b
  4576  00273E                     l4708:
  4577                           
  4578                           ; BSR set to: 0
  4579  00273E  0EB7               	movlw	low (STR_9+12)
  4580  002740  6FBB               	movwf	printf@fmt& (0+255),b
  4581  002742  0EFF               	movlw	high (STR_9+12)
  4582  002744  6FBC               	movwf	(printf@fmt+1)& (0+255),b
  4583  002746  EC04  F017         	call	_printf	;wreg free
  4584  00274A  0100               	movlb	0	; () banked
  4585  00274C  2BD4               	incf	generalCases@i& (0+255),f,b
  4586  00274E                     
  4587                           ; BSR set to: 0
  4588  00274E  0E27               	movlw	39
  4589  002750  65D4               	cpfsgt	generalCases@i& (0+255),b
  4590  002752  EFAD  F013         	goto	u4751
  4591  002756  EFAF  F013         	goto	u4750
  4592  00275A                     u4751:
  4593  00275A  EF9F  F013         	goto	l4708
  4594  00275E                     u4750:
  4595  00275E                     
  4596                           ; BSR set to: 0
  4597  00275E  00FF               	reset		;# 
  4598                           
  4599                           ;helpers.c: 68:             break;
  4600  002760  EFEF  F013         	goto	l444
  4601  002764                     l4714:
  4602                           
  4603                           ; BSR set to: 0
  4604                           ;helpers.c: 74:             for (i=0; i<40; i++) printf("\n");
  4605  002764  0E00               	movlw	0
  4606  002766  6FD4               	movwf	generalCases@i& (0+255),b
  4607  002768                     l4720:
  4608                           
  4609                           ; BSR set to: 0
  4610  002768  0EB7               	movlw	low (STR_9+12)
  4611  00276A  6FBB               	movwf	printf@fmt& (0+255),b
  4612  00276C  0EFF               	movlw	high (STR_9+12)
  4613  00276E  6FBC               	movwf	(printf@fmt+1)& (0+255),b
  4614  002770  EC04  F017         	call	_printf	;wreg free
  4615  002774  0100               	movlb	0	; () banked
  4616  002776  2BD4               	incf	generalCases@i& (0+255),f,b
  4617  002778                     
  4618                           ; BSR set to: 0
  4619  002778  0E27               	movlw	39
  4620  00277A  65D4               	cpfsgt	generalCases@i& (0+255),b
  4621  00277C  EFC2  F013         	goto	u4761
  4622  002780  EFC4  F013         	goto	u4760
  4623  002784                     u4761:
  4624  002784  EFB4  F013         	goto	l4720
  4625  002788                     u4760:
  4626  002788  EFEF  F013         	goto	l444
  4627  00278C                     l4726:
  4628                           
  4629                           ; BSR set to: 0
  4630                           ;helpers.c: 81:             printf("Unknown key %c\r\n",cmd);
  4631  00278C  0E7B               	movlw	low STR_27
  4632  00278E  6FBB               	movwf	printf@fmt& (0+255),b
  4633  002790  0EFF               	movlw	high STR_27
  4634  002792  6FBC               	movwf	(printf@fmt+1)& (0+255),b
  4635  002794  C0D3  F0BD         	movff	generalCases@cmd,?_printf+2
  4636  002798  6BBE               	clrf	(?_printf+3)& (0+255),b
  4637  00279A  EC04  F017         	call	_printf	;wreg free
  4638                           
  4639                           ;helpers.c: 82:             break;
  4640  00279E  EFEF  F013         	goto	l444
  4641  0027A2                     l4730:
  4642  0027A2  0100               	movlb	0	; () banked
  4643  0027A4  51D3               	movf	generalCases@cmd& (0+255),w,b
  4644  0027A6  6FD1               	movwf	??_generalCases& (0+255),b
  4645  0027A8  6BD2               	clrf	(??_generalCases+1)& (0+255),b
  4646                           
  4647                           ; Switch on 2 bytes has been partitioned into a top level switch of size 1, and 1 sub-sw
      +                          itches
  4648                           ; Switch size 1, requested type "simple"
  4649                           ; Number of cases is 1, Range of values is 0 to 0
  4650                           ; switch strategies available:
  4651                           ; Name         Instructions Cycles
  4652                           ; simple_byte            4     3 (average)
  4653                           ;	Chosen strategy is simple_byte
  4654  0027AA  51D2               	movf	(??_generalCases+1)& (0+255),w,b
  4655  0027AC  0A00               	xorlw	0	; case 0
  4656  0027AE  B4D8               	btfsc	status,2,c
  4657  0027B0  EFDC  F013         	goto	l4978
  4658  0027B4  EFC6  F013         	goto	l4726
  4659  0027B8                     l4978:
  4660                           
  4661                           ; BSR set to: 0
  4662                           ; Switch size 1, requested type "simple"
  4663                           ; Number of cases is 4, Range of values is 63 to 122
  4664                           ; switch strategies available:
  4665                           ; Name         Instructions Cycles
  4666                           ; simple_byte           13     7 (average)
  4667                           ;	Chosen strategy is simple_byte
  4668  0027B8  51D1               	movf	??_generalCases& (0+255),w,b
  4669  0027BA  0A3F               	xorlw	63	; case 63
  4670  0027BC  B4D8               	btfsc	status,2,c
  4671  0027BE  EF91  F013         	goto	l4698
  4672  0027C2  0A65               	xorlw	101	; case 90
  4673  0027C4  B4D8               	btfsc	status,2,c
  4674  0027C6  EF9D  F013         	goto	l4702
  4675  0027CA  0A35               	xorlw	53	; case 111
  4676  0027CC  B4D8               	btfsc	status,2,c
  4677  0027CE  EF95  F013         	goto	l4700
  4678  0027D2  0A15               	xorlw	21	; case 122
  4679  0027D4  B4D8               	btfsc	status,2,c
  4680  0027D6  EFB2  F013         	goto	l4714
  4681  0027DA  EFC6  F013         	goto	l4726
  4682  0027DE                     l444:
  4683  0027DE  0012               	return		;funcret
  4684  0027E0                     __end_of_generalCases:
  4685                           	opt callstack 0
  4686                           
  4687 ;; *************** function _printMenu *****************
  4688 ;; Defined at:
  4689 ;;		line 86 in file "helpers.c"
  4690 ;; Parameters:    Size  Location     Type
  4691 ;;		None
  4692 ;; Auto vars:     Size  Location     Type
  4693 ;;		None
  4694 ;; Return value:  Size  Location     Type
  4695 ;;                  1    wreg      void 
  4696 ;; Registers used:
  4697 ;;		wreg, fsr1l, fsr1h, fsr2l, fsr2h, status,2, status,0, tblptrl, tblptrh, tblptru, cstack
  4698 ;; Tracked objects:
  4699 ;;		On entry : 0/0
  4700 ;;		On exit  : 0/0
  4701 ;;		Unchanged: 0/0
  4702 ;; Data sizes:     COMRAM   BANK0   BANK1   BANK2   BANK3   BANK4   BANK5   BANK6   BANK7   BANK8   BANK9  BANK10  BANK1
      +1  BANK12  BANK13  BANK14  BANK15
  4703 ;;      Params:         0       0       0       0       0       0       0       0       0       0       0       0       
      +0       0       0       0       0
  4704 ;;      Locals:         0       0       0       0       0       0       0       0       0       0       0       0       
      +0       0       0       0       0
  4705 ;;      Temps:          0       0       0       0       0       0       0       0       0       0       0       0       
      +0       0       0       0       0
  4706 ;;      Totals:         0       0       0       0       0       0       0       0       0       0       0       0       
      +0       0       0       0       0
  4707 ;;Total ram usage:        0 bytes
  4708 ;; Hardware stack levels used:    1
  4709 ;; Hardware stack levels required when called:   13
  4710 ;; This function calls:
  4711 ;;		_printSevenDurations
  4712 ;;		_printf
  4713 ;; This function is called by:
  4714 ;;		_generalCases
  4715 ;; This function uses a non-reentrant model
  4716 ;;
  4717                           
  4718                           	psect	text22
  4719  002F22                     __ptext22:
  4720                           	opt callstack 0
  4721  002F22                     _printMenu:
  4722                           	opt callstack 16
  4723  002F22                     
  4724                           ;helpers.c: 87:     printSevenDurations();
  4725  002F22  ECBE  F015         	call	_printSevenDurations	;wreg free
  4726                           
  4727                           ;helpers.c: 88:     printf(
  4728  002F26  0E99               	movlw	low STR_28
  4729  002F28  0100               	movlb	0	; () banked
  4730  002F2A  6FBB               	movwf	printf@fmt& (0+255),b
  4731  002F2C  0EFA               	movlw	high STR_28
  4732  002F2E  6FBC               	movwf	(printf@fmt+1)& (0+255),b
  4733  002F30  EC04  F017         	call	_printf	;wreg free
  4734  002F34  0012               	return		;funcret
  4735  002F36                     __end_of_printMenu:
  4736                           	opt callstack 0
  4737                           
  4738 ;; *************** function _printSevenDurations *****************
  4739 ;; Defined at:
  4740 ;;		line 74 in file "func.c"
  4741 ;; Parameters:    Size  Location     Type
  4742 ;;		None
  4743 ;; Auto vars:     Size  Location     Type
  4744 ;;		None
  4745 ;; Return value:  Size  Location     Type
  4746 ;;                  1    wreg      void 
  4747 ;; Registers used:
  4748 ;;		wreg, fsr1l, fsr1h, fsr2l, fsr2h, status,2, status,0, tblptrl, tblptrh, tblptru, cstack
  4749 ;; Tracked objects:
  4750 ;;		On entry : 0/0
  4751 ;;		On exit  : 0/0
  4752 ;;		Unchanged: 0/0
  4753 ;; Data sizes:     COMRAM   BANK0   BANK1   BANK2   BANK3   BANK4   BANK5   BANK6   BANK7   BANK8   BANK9  BANK10  BANK1
      +1  BANK12  BANK13  BANK14  BANK15
  4754 ;;      Params:         0       0       0       0       0       0       0       0       0       0       0       0       
      +0       0       0       0       0
  4755 ;;      Locals:         0       0       0       0       0       0       0       0       0       0       0       0       
      +0       0       0       0       0
  4756 ;;      Temps:          0       0       0       0       0       0       0       0       0       0       0       0       
      +0       0       0       0       0
  4757 ;;      Totals:         0       0       0       0       0       0       0       0       0       0       0       0       
      +0       0       0       0       0
  4758 ;;Total ram usage:        0 bytes
  4759 ;; Hardware stack levels used:    1
  4760 ;; Hardware stack levels required when called:   12
  4761 ;; This function calls:
  4762 ;;		_printf
  4763 ;; This function is called by:
  4764 ;;		_main
  4765 ;;		_printMenu
  4766 ;; This function uses a non-reentrant model
  4767 ;;
  4768                           
  4769                           	psect	text23
  4770  002B7C                     __ptext23:
  4771                           	opt callstack 0
  4772  002B7C                     _printSevenDurations:
  4773                           	opt callstack 18
  4774  002B7C                     
  4775                           ;func.c: 75:     printf( "-------------------------------------------------\r\n"
  4776  002B7C  0E30               	movlw	low STR_33
  4777  002B7E  0100               	movlb	0	; () banked
  4778  002B80  6FBB               	movwf	printf@fmt& (0+255),b
  4779  002B82  0EFC               	movlw	high STR_33
  4780  002B84  6FBC               	movwf	(printf@fmt+1)& (0+255),b
  4781  002B86  C0E9  F0BD         	movff	_referenceDurations,?_printf+2
  4782  002B8A  C0EA  F0BE         	movff	_referenceDurations+1,?_printf+3
  4783  002B8E  C0EB  F0BF         	movff	_referenceDurations+2,?_printf+4
  4784  002B92  C0EC  F0C0         	movff	_referenceDurations+3,?_printf+5
  4785  002B96  C0ED  F0C1         	movff	_referenceDurations+4,?_printf+6
  4786  002B9A  C0EE  F0C2         	movff	_referenceDurations+5,?_printf+7
  4787  002B9E  C0EF  F0C3         	movff	_referenceDurations+6,?_printf+8
  4788  002BA2  C0F0  F0C4         	movff	_referenceDurations+7,?_printf+9
  4789  002BA6  C0F1  F0C5         	movff	_referenceDurations+8,?_printf+10
  4790  002BAA  C0F2  F0C6         	movff	_referenceDurations+9,?_printf+11
  4791  002BAE  C0F3  F0C7         	movff	_referenceDurations+10,?_printf+12
  4792  002BB2  C0F4  F0C8         	movff	_referenceDurations+11,?_printf+13
  4793  002BB6  C0F5  F0C9         	movff	_referenceDurations+12,?_printf+14
  4794  002BBA  C0F6  F0CA         	movff	_referenceDurations+13,?_printf+15
  4795  002BBE  518A               	movf	_posEdge& (0+255),w,b
  4796  002BC0  2589               	addwf	_negEdge& (0+255),w,b
  4797  002BC2  6FCB               	movwf	(?_printf+16)& (0+255),b
  4798  002BC4  6BCC               	clrf	(?_printf+17)& (0+255),b
  4799  002BC6  37CC               	rlcf	(?_printf+17)& (0+255),f,b
  4800  002BC8  EC04  F017         	call	_printf	;wreg free
  4801  002BCC  0012               	return		;funcret
  4802  002BCE                     __end_of_printSevenDurations:
  4803                           	opt callstack 0
  4804                           
  4805 ;; *************** function _decodeBits *****************
  4806 ;; Defined at:
  4807 ;;		line 44 in file "func.c"
  4808 ;; Parameters:    Size  Location     Type
  4809 ;;  printBinary     1    wreg     _Bool 
  4810 ;; Auto vars:     Size  Location     Type
  4811 ;;  printBinary     1   45[BANK0 ] _Bool 
  4812 ;;  i               1   54[BANK0 ] unsigned char 
  4813 ;;  decodedVal      4   46[BANK0 ] unsigned long 
  4814 ;;  durationHigh    2   52[BANK0 ] unsigned short 
  4815 ;;  durationLow     2   50[BANK0 ] unsigned short 
  4816 ;;  binaryDigit     1    0        unsigned char 
  4817 ;; Return value:  Size  Location     Type
  4818 ;;                  4   37[BANK0 ] unsigned long 
  4819 ;; Registers used:
  4820 ;;		wreg, fsr1l, fsr1h, fsr2l, fsr2h, status,2, status,0, tblptrl, tblptrh, tblptru, prodl, prodh, cstack
  4821 ;; Tracked objects:
  4822 ;;		On entry : 0/0
  4823 ;;		On exit  : 0/0
  4824 ;;		Unchanged: 0/0
  4825 ;; Data sizes:     COMRAM   BANK0   BANK1   BANK2   BANK3   BANK4   BANK5   BANK6   BANK7   BANK8   BANK9  BANK10  BANK1
      +1  BANK12  BANK13  BANK14  BANK15
  4826 ;;      Params:         0       4       0       0       0       0       0       0       0       0       0       0       
      +0       0       0       0       0
  4827 ;;      Locals:         0      10       0       0       0       0       0       0       0       0       0       0       
      +0       0       0       0       0
  4828 ;;      Temps:          0       4       0       0       0       0       0       0       0       0       0       0       
      +0       0       0       0       0
  4829 ;;      Totals:         0      18       0       0       0       0       0       0       0       0       0       0       
      +0       0       0       0       0
  4830 ;;Total ram usage:       18 bytes
  4831 ;; Hardware stack levels used:    1
  4832 ;; Hardware stack levels required when called:   12
  4833 ;; This function calls:
  4834 ;;		___fladd
  4835 ;;		___flge
  4836 ;;		___flmul
  4837 ;;		___flsub
  4838 ;;		___xxtofl
  4839 ;;		_printf
  4840 ;; This function is called by:
  4841 ;;		_main
  4842 ;; This function uses a non-reentrant model
  4843 ;;
  4844                           
  4845                           	psect	text24
  4846  000040                     __ptext24:
  4847                           	opt callstack 0
  4848  000040                     _decodeBits:
  4849                           	opt callstack 18
  4850                           
  4851                           ;incstack = 0
  4852                           ;decodeBits@printBinary stored from wreg
  4853  000040  0100               	movlb	0	; () banked
  4854  000042  6FD9               	movwf	decodeBits@printBinary& (0+255),b
  4855  000044                     
  4856                           ;func.c: 45:     uint32_t decodedVal;;func.c: 46:     uint16_t durationLow, durationHigh
      +                          ;;func.c: 47:     uint8_t binaryDigit;;func.c: 48:     for(uint8_t i = 2; i < (33*2)-1; 
      +                          i+=2) {
  4857  000044  0E02               	movlw	2
  4858  000046  0100               	movlb	0	; () banked
  4859  000048  6FE2               	movwf	decodeBits@i& (0+255),b
  4860  00004A                     l4640:
  4861                           
  4862                           ; BSR set to: 0
  4863                           ;func.c: 49:         durationLow = bitDurations[i];
  4864  00004A  51E2               	movf	decodeBits@i& (0+255),w,b
  4865  00004C  0D02               	mullw	2
  4866  00004E  0E00               	movlw	low _bitDurations
  4867  000050  24F3               	addwf	243,w,c
  4868  000052  6ED9               	movwf	fsr2l,c
  4869  000054  0E01               	movlw	high _bitDurations
  4870  000056  20F4               	addwfc	prodh,w,c
  4871  000058  6EDA               	movwf	fsr2h,c
  4872  00005A  CFDE F0DE          	movff	postinc2,decodeBits@durationLow
  4873  00005E  CFDD F0DF          	movff	postdec2,decodeBits@durationLow+1
  4874  000062                     
  4875                           ; BSR set to: 0
  4876                           ;func.c: 50:         durationHigh = bitDurations[i+1];
  4877  000062  51E2               	movf	decodeBits@i& (0+255),w,b
  4878  000064  6FD5               	movwf	??_decodeBits& (0+255),b
  4879  000066  6BD6               	clrf	(??_decodeBits+1)& (0+255),b
  4880  000068  90D8               	bcf	status,0,c
  4881  00006A  37D5               	rlcf	??_decodeBits& (0+255),f,b
  4882  00006C  37D6               	rlcf	(??_decodeBits+1)& (0+255),f,b
  4883  00006E  0E02               	movlw	low (_bitDurations+2)
  4884  000070  25D5               	addwf	??_decodeBits& (0+255),w,b
  4885  000072  6ED9               	movwf	fsr2l,c
  4886  000074  0E01               	movlw	high (_bitDurations+2)
  4887  000076  21D6               	addwfc	(??_decodeBits+1)& (0+255),w,b
  4888  000078  6EDA               	movwf	fsr2h,c
  4889  00007A  CFDE F0E0          	movff	postinc2,decodeBits@durationHigh
  4890  00007E  CFDD F0E1          	movff	postdec2,decodeBits@durationHigh+1
  4891  000082                     
  4892                           ; BSR set to: 0
  4893                           ;func.c: 51:         if(((durationLow > referenceDurations.dataZeroLow-(referenceDuratio
      +                          ns.dataZeroLow*0.1f)) && (durationLow < referenceDurations.dataZeroLow+(referenceDuratio
      +                          ns.dataZeroLow*0.1f)))
  4894  000082  0ECD               	movlw	205
  4895  000084  6E17               	movwf	___flmul@a^0,c
  4896  000086  0ECC               	movlw	204
  4897  000088  6E18               	movwf	(___flmul@a+1)^0,c
  4898  00008A  0ECC               	movlw	204
  4899  00008C  6E19               	movwf	(___flmul@a+2)^0,c
  4900  00008E  0E3D               	movlw	61
  4901  000090  6E1A               	movwf	(___flmul@a+3)^0,c
  4902  000092  C0ED  F005         	movff	_referenceDurations+4,___xxtofl@val
  4903  000096  C0EE  F006         	movff	_referenceDurations+5,___xxtofl@val+1
  4904  00009A  6A07               	clrf	(___xxtofl@val+2)^0,c
  4905  00009C  6A08               	clrf	(___xxtofl@val+3)^0,c
  4906  00009E  0E00               	movlw	0
  4907  0000A0  ECDB  F00E         	call	___xxtofl
  4908  0000A4  C005  F013         	movff	?___xxtofl,___flmul@b
  4909  0000A8  C006  F014         	movff	?___xxtofl+1,___flmul@b+1
  4910  0000AC  C007  F015         	movff	?___xxtofl+2,___flmul@b+2
  4911  0000B0  C008  F016         	movff	?___xxtofl+3,___flmul@b+3
  4912  0000B4  EC5C  F00A         	call	___flmul	;wreg free
  4913  0000B8  C013  F040         	movff	?___flmul,___flsub@a
  4914  0000BC  C014  F041         	movff	?___flmul+1,___flsub@a+1
  4915  0000C0  C015  F042         	movff	?___flmul+2,___flsub@a+2
  4916  0000C4  C016  F043         	movff	?___flmul+3,___flsub@a+3
  4917  0000C8  C0ED  F005         	movff	_referenceDurations+4,___xxtofl@val
  4918  0000CC  C0EE  F006         	movff	_referenceDurations+5,___xxtofl@val+1
  4919  0000D0  6A07               	clrf	(___xxtofl@val+2)^0,c
  4920  0000D2  6A08               	clrf	(___xxtofl@val+3)^0,c
  4921  0000D4  0E00               	movlw	0
  4922  0000D6  ECDB  F00E         	call	___xxtofl
  4923  0000DA  C005  F03C         	movff	?___xxtofl,___flsub@b
  4924  0000DE  C006  F03D         	movff	?___xxtofl+1,___flsub@b+1
  4925  0000E2  C007  F03E         	movff	?___xxtofl+2,___flsub@b+2
  4926  0000E6  C008  F03F         	movff	?___xxtofl+3,___flsub@b+3
  4927  0000EA  ECE7  F015         	call	___flsub	;wreg free
  4928  0000EE  C03C  F044         	movff	?___flsub,___flge@ff1
  4929  0000F2  C03D  F045         	movff	?___flsub+1,___flge@ff1+1
  4930  0000F6  C03E  F046         	movff	?___flsub+2,___flge@ff1+2
  4931  0000FA  C03F  F047         	movff	?___flsub+3,___flge@ff1+3
  4932  0000FE  C0DE  F005         	movff	decodeBits@durationLow,___xxtofl@val
  4933  000102  C0DF  F006         	movff	decodeBits@durationLow+1,___xxtofl@val+1
  4934  000106  6A07               	clrf	(___xxtofl@val+2)^0,c
  4935  000108  6A08               	clrf	(___xxtofl@val+3)^0,c
  4936  00010A  0E00               	movlw	0
  4937  00010C  ECDB  F00E         	call	___xxtofl
  4938  000110  C005  F048         	movff	?___xxtofl,___flge@ff2
  4939  000114  C006  F049         	movff	?___xxtofl+1,___flge@ff2+1
  4940  000118  C007  F04A         	movff	?___xxtofl+2,___flge@ff2+2
  4941  00011C  C008  F04B         	movff	?___xxtofl+3,___flge@ff2+3
  4942  000120  EC37  F011         	call	___flge	;wreg free
  4943  000124  B0D8               	btfsc	status,0,c
  4944  000126  EF97  F000         	goto	u4611
  4945  00012A  EF99  F000         	goto	u4610
  4946  00012E                     u4611:
  4947  00012E  EFBB  F001         	goto	l4658
  4948  000132                     u4610:
  4949  000132  C0DE  F005         	movff	decodeBits@durationLow,___xxtofl@val
  4950  000136  C0DF  F006         	movff	decodeBits@durationLow+1,___xxtofl@val+1
  4951  00013A  6A07               	clrf	(___xxtofl@val+2)^0,c
  4952  00013C  6A08               	clrf	(___xxtofl@val+3)^0,c
  4953  00013E  0E00               	movlw	0
  4954  000140  ECDB  F00E         	call	___xxtofl
  4955  000144  C005  F044         	movff	?___xxtofl,___flge@ff1
  4956  000148  C006  F045         	movff	?___xxtofl+1,___flge@ff1+1
  4957  00014C  C007  F046         	movff	?___xxtofl+2,___flge@ff1+2
  4958  000150  C008  F047         	movff	?___xxtofl+3,___flge@ff1+3
  4959  000154  0ECD               	movlw	205
  4960  000156  6E17               	movwf	___flmul@a^0,c
  4961  000158  0ECC               	movlw	204
  4962  00015A  6E18               	movwf	(___flmul@a+1)^0,c
  4963  00015C  0ECC               	movlw	204
  4964  00015E  6E19               	movwf	(___flmul@a+2)^0,c
  4965  000160  0E3D               	movlw	61
  4966  000162  6E1A               	movwf	(___flmul@a+3)^0,c
  4967  000164  C0ED  F005         	movff	_referenceDurations+4,___xxtofl@val
  4968  000168  C0EE  F006         	movff	_referenceDurations+5,___xxtofl@val+1
  4969  00016C  6A07               	clrf	(___xxtofl@val+2)^0,c
  4970  00016E  6A08               	clrf	(___xxtofl@val+3)^0,c
  4971  000170  0E00               	movlw	0
  4972  000172  ECDB  F00E         	call	___xxtofl
  4973  000176  C005  F013         	movff	?___xxtofl,___flmul@b
  4974  00017A  C006  F014         	movff	?___xxtofl+1,___flmul@b+1
  4975  00017E  C007  F015         	movff	?___xxtofl+2,___flmul@b+2
  4976  000182  C008  F016         	movff	?___xxtofl+3,___flmul@b+3
  4977  000186  EC5C  F00A         	call	___flmul	;wreg free
  4978  00018A  C013  F030         	movff	?___flmul,___fladd@a
  4979  00018E  C014  F031         	movff	?___flmul+1,___fladd@a+1
  4980  000192  C015  F032         	movff	?___flmul+2,___fladd@a+2
  4981  000196  C016  F033         	movff	?___flmul+3,___fladd@a+3
  4982  00019A  C0ED  F005         	movff	_referenceDurations+4,___xxtofl@val
  4983  00019E  C0EE  F006         	movff	_referenceDurations+5,___xxtofl@val+1
  4984  0001A2  6A07               	clrf	(___xxtofl@val+2)^0,c
  4985  0001A4  6A08               	clrf	(___xxtofl@val+3)^0,c
  4986  0001A6  0E00               	movlw	0
  4987  0001A8  ECDB  F00E         	call	___xxtofl
  4988  0001AC  C005  F02C         	movff	?___xxtofl,___fladd@b
  4989  0001B0  C006  F02D         	movff	?___xxtofl+1,___fladd@b+1
  4990  0001B4  C007  F02E         	movff	?___xxtofl+2,___fladd@b+2
  4991  0001B8  C008  F02F         	movff	?___xxtofl+3,___fladd@b+3
  4992  0001BC  ECD5  F005         	call	___fladd	;wreg free
  4993  0001C0  C02C  F048         	movff	?___fladd,___flge@ff2
  4994  0001C4  C02D  F049         	movff	?___fladd+1,___flge@ff2+1
  4995  0001C8  C02E  F04A         	movff	?___fladd+2,___flge@ff2+2
  4996  0001CC  C02F  F04B         	movff	?___fladd+3,___flge@ff2+3
  4997  0001D0  EC37  F011         	call	___flge	;wreg free
  4998  0001D4  B0D8               	btfsc	status,0,c
  4999  0001D6  EFEF  F000         	goto	u4621
  5000  0001DA  EFF1  F000         	goto	u4620
  5001  0001DE                     u4621:
  5002  0001DE  EFBB  F001         	goto	l4658
  5003  0001E2                     u4620:
  5004  0001E2  0ECD               	movlw	205
  5005  0001E4  6E17               	movwf	___flmul@a^0,c
  5006  0001E6  0ECC               	movlw	204
  5007  0001E8  6E18               	movwf	(___flmul@a+1)^0,c
  5008  0001EA  0ECC               	movlw	204
  5009  0001EC  6E19               	movwf	(___flmul@a+2)^0,c
  5010  0001EE  0E3D               	movlw	61
  5011  0001F0  6E1A               	movwf	(___flmul@a+3)^0,c
  5012  0001F2  C0EF  F005         	movff	_referenceDurations+6,___xxtofl@val
  5013  0001F6  C0F0  F006         	movff	_referenceDurations+7,___xxtofl@val+1
  5014  0001FA  6A07               	clrf	(___xxtofl@val+2)^0,c
  5015  0001FC  6A08               	clrf	(___xxtofl@val+3)^0,c
  5016  0001FE  0E00               	movlw	0
  5017  000200  ECDB  F00E         	call	___xxtofl
  5018  000204  C005  F013         	movff	?___xxtofl,___flmul@b
  5019  000208  C006  F014         	movff	?___xxtofl+1,___flmul@b+1
  5020  00020C  C007  F015         	movff	?___xxtofl+2,___flmul@b+2
  5021  000210  C008  F016         	movff	?___xxtofl+3,___flmul@b+3
  5022  000214  EC5C  F00A         	call	___flmul	;wreg free
  5023  000218  C013  F040         	movff	?___flmul,___flsub@a
  5024  00021C  C014  F041         	movff	?___flmul+1,___flsub@a+1
  5025  000220  C015  F042         	movff	?___flmul+2,___flsub@a+2
  5026  000224  C016  F043         	movff	?___flmul+3,___flsub@a+3
  5027  000228  C0EF  F005         	movff	_referenceDurations+6,___xxtofl@val
  5028  00022C  C0F0  F006         	movff	_referenceDurations+7,___xxtofl@val+1
  5029  000230  6A07               	clrf	(___xxtofl@val+2)^0,c
  5030  000232  6A08               	clrf	(___xxtofl@val+3)^0,c
  5031  000234  0E00               	movlw	0
  5032  000236  ECDB  F00E         	call	___xxtofl
  5033  00023A  C005  F03C         	movff	?___xxtofl,___flsub@b
  5034  00023E  C006  F03D         	movff	?___xxtofl+1,___flsub@b+1
  5035  000242  C007  F03E         	movff	?___xxtofl+2,___flsub@b+2
  5036  000246  C008  F03F         	movff	?___xxtofl+3,___flsub@b+3
  5037  00024A  ECE7  F015         	call	___flsub	;wreg free
  5038  00024E  C03C  F044         	movff	?___flsub,___flge@ff1
  5039  000252  C03D  F045         	movff	?___flsub+1,___flge@ff1+1
  5040  000256  C03E  F046         	movff	?___flsub+2,___flge@ff1+2
  5041  00025A  C03F  F047         	movff	?___flsub+3,___flge@ff1+3
  5042  00025E  C0E0  F005         	movff	decodeBits@durationHigh,___xxtofl@val
  5043  000262  C0E1  F006         	movff	decodeBits@durationHigh+1,___xxtofl@val+1
  5044  000266  6A07               	clrf	(___xxtofl@val+2)^0,c
  5045  000268  6A08               	clrf	(___xxtofl@val+3)^0,c
  5046  00026A  0E00               	movlw	0
  5047  00026C  ECDB  F00E         	call	___xxtofl
  5048  000270  C005  F048         	movff	?___xxtofl,___flge@ff2
  5049  000274  C006  F049         	movff	?___xxtofl+1,___flge@ff2+1
  5050  000278  C007  F04A         	movff	?___xxtofl+2,___flge@ff2+2
  5051  00027C  C008  F04B         	movff	?___xxtofl+3,___flge@ff2+3
  5052  000280  EC37  F011         	call	___flge	;wreg free
  5053  000284  B0D8               	btfsc	status,0,c
  5054  000286  EF47  F001         	goto	u4631
  5055  00028A  EF49  F001         	goto	u4630
  5056  00028E                     u4631:
  5057  00028E  EFBB  F001         	goto	l4658
  5058  000292                     u4630:
  5059  000292  C0E0  F005         	movff	decodeBits@durationHigh,___xxtofl@val
  5060  000296  C0E1  F006         	movff	decodeBits@durationHigh+1,___xxtofl@val+1
  5061  00029A  6A07               	clrf	(___xxtofl@val+2)^0,c
  5062  00029C  6A08               	clrf	(___xxtofl@val+3)^0,c
  5063  00029E  0E00               	movlw	0
  5064  0002A0  ECDB  F00E         	call	___xxtofl
  5065  0002A4  C005  F044         	movff	?___xxtofl,___flge@ff1
  5066  0002A8  C006  F045         	movff	?___xxtofl+1,___flge@ff1+1
  5067  0002AC  C007  F046         	movff	?___xxtofl+2,___flge@ff1+2
  5068  0002B0  C008  F047         	movff	?___xxtofl+3,___flge@ff1+3
  5069  0002B4  0ECD               	movlw	205
  5070  0002B6  6E17               	movwf	___flmul@a^0,c
  5071  0002B8  0ECC               	movlw	204
  5072  0002BA  6E18               	movwf	(___flmul@a+1)^0,c
  5073  0002BC  0ECC               	movlw	204
  5074  0002BE  6E19               	movwf	(___flmul@a+2)^0,c
  5075  0002C0  0E3D               	movlw	61
  5076  0002C2  6E1A               	movwf	(___flmul@a+3)^0,c
  5077  0002C4  C0EF  F005         	movff	_referenceDurations+6,___xxtofl@val
  5078  0002C8  C0F0  F006         	movff	_referenceDurations+7,___xxtofl@val+1
  5079  0002CC  6A07               	clrf	(___xxtofl@val+2)^0,c
  5080  0002CE  6A08               	clrf	(___xxtofl@val+3)^0,c
  5081  0002D0  0E00               	movlw	0
  5082  0002D2  ECDB  F00E         	call	___xxtofl
  5083  0002D6  C005  F013         	movff	?___xxtofl,___flmul@b
  5084  0002DA  C006  F014         	movff	?___xxtofl+1,___flmul@b+1
  5085  0002DE  C007  F015         	movff	?___xxtofl+2,___flmul@b+2
  5086  0002E2  C008  F016         	movff	?___xxtofl+3,___flmul@b+3
  5087  0002E6  EC5C  F00A         	call	___flmul	;wreg free
  5088  0002EA  C013  F030         	movff	?___flmul,___fladd@a
  5089  0002EE  C014  F031         	movff	?___flmul+1,___fladd@a+1
  5090  0002F2  C015  F032         	movff	?___flmul+2,___fladd@a+2
  5091  0002F6  C016  F033         	movff	?___flmul+3,___fladd@a+3
  5092  0002FA  C0EF  F005         	movff	_referenceDurations+6,___xxtofl@val
  5093  0002FE  C0F0  F006         	movff	_referenceDurations+7,___xxtofl@val+1
  5094  000302  6A07               	clrf	(___xxtofl@val+2)^0,c
  5095  000304  6A08               	clrf	(___xxtofl@val+3)^0,c
  5096  000306  0E00               	movlw	0
  5097  000308  ECDB  F00E         	call	___xxtofl
  5098  00030C  C005  F02C         	movff	?___xxtofl,___fladd@b
  5099  000310  C006  F02D         	movff	?___xxtofl+1,___fladd@b+1
  5100  000314  C007  F02E         	movff	?___xxtofl+2,___fladd@b+2
  5101  000318  C008  F02F         	movff	?___xxtofl+3,___fladd@b+3
  5102  00031C  ECD5  F005         	call	___fladd	;wreg free
  5103  000320  C02C  F048         	movff	?___fladd,___flge@ff2
  5104  000324  C02D  F049         	movff	?___fladd+1,___flge@ff2+1
  5105  000328  C02E  F04A         	movff	?___fladd+2,___flge@ff2+2
  5106  00032C  C02F  F04B         	movff	?___fladd+3,___flge@ff2+3
  5107  000330  EC37  F011         	call	___flge	;wreg free
  5108  000334  B0D8               	btfsc	status,0,c
  5109  000336  EF9F  F001         	goto	u4641
  5110  00033A  EFA1  F001         	goto	u4640
  5111  00033E                     u4641:
  5112  00033E  EFBB  F001         	goto	l4658
  5113  000342                     u4640:
  5114  000342                     
  5115                           ;func.c: 52:            &&( (durationHigh > referenceDurations.dataZeroHigh-(referenceDu
      +                          rations.dataZeroHigh*0.1f)) && (durationHigh < referenceDurations.dataZeroHigh+(referenc
      +                          eDurations.dataZeroHigh*0.1f)) )) {;func.c: 53:                 decodedVal = decodedVal<
      +                          <1;
  5116  000342  90D8               	bcf	status,0,c
  5117  000344  0100               	movlb	0	; () banked
  5118  000346  35DA               	rlcf	decodeBits@decodedVal& (0+255),w,b
  5119  000348  6FDA               	movwf	decodeBits@decodedVal& (0+255),b
  5120  00034A  35DB               	rlcf	(decodeBits@decodedVal+1)& (0+255),w,b
  5121  00034C  6FDB               	movwf	(decodeBits@decodedVal+1)& (0+255),b
  5122  00034E  35DC               	rlcf	(decodeBits@decodedVal+2)& (0+255),w,b
  5123  000350  6FDC               	movwf	(decodeBits@decodedVal+2)& (0+255),b
  5124  000352  35DD               	rlcf	(decodeBits@decodedVal+3)& (0+255),w,b
  5125  000354  6FDD               	movwf	(decodeBits@decodedVal+3)& (0+255),b
  5126  000356                     
  5127                           ; BSR set to: 0
  5128                           ;func.c: 54:                 if(printBinary)
  5129  000356  51D9               	movf	decodeBits@printBinary& (0+255),w,b
  5130  000358  B4D8               	btfsc	status,2,c
  5131  00035A  EFB1  F001         	goto	u4651
  5132  00035E  EFB3  F001         	goto	u4650
  5133  000362                     u4651:
  5134  000362  EF3C  F003         	goto	l4672
  5135  000366                     u4650:
  5136  000366                     
  5137                           ; BSR set to: 0
  5138                           ;func.c: 55:                     printf("0");
  5139  000366  0EFB               	movlw	low STR_30
  5140  000368  6FBB               	movwf	printf@fmt& (0+255),b
  5141  00036A  0EFF               	movlw	high STR_30
  5142  00036C  6FBC               	movwf	(printf@fmt+1)& (0+255),b
  5143  00036E  EC04  F017         	call	_printf	;wreg free
  5144  000372  EF3C  F003         	goto	l4672
  5145  000376                     l4658:
  5146  000376  0ECD               	movlw	205
  5147  000378  6E17               	movwf	___flmul@a^0,c
  5148  00037A  0ECC               	movlw	204
  5149  00037C  6E18               	movwf	(___flmul@a+1)^0,c
  5150  00037E  0ECC               	movlw	204
  5151  000380  6E19               	movwf	(___flmul@a+2)^0,c
  5152  000382  0E3D               	movlw	61
  5153  000384  6E1A               	movwf	(___flmul@a+3)^0,c
  5154  000386  C0F1  F005         	movff	_referenceDurations+8,___xxtofl@val
  5155  00038A  C0F2  F006         	movff	_referenceDurations+9,___xxtofl@val+1
  5156  00038E  6A07               	clrf	(___xxtofl@val+2)^0,c
  5157  000390  6A08               	clrf	(___xxtofl@val+3)^0,c
  5158  000392  0E00               	movlw	0
  5159  000394  ECDB  F00E         	call	___xxtofl
  5160  000398  C005  F013         	movff	?___xxtofl,___flmul@b
  5161  00039C  C006  F014         	movff	?___xxtofl+1,___flmul@b+1
  5162  0003A0  C007  F015         	movff	?___xxtofl+2,___flmul@b+2
  5163  0003A4  C008  F016         	movff	?___xxtofl+3,___flmul@b+3
  5164  0003A8  EC5C  F00A         	call	___flmul	;wreg free
  5165  0003AC  C013  F040         	movff	?___flmul,___flsub@a
  5166  0003B0  C014  F041         	movff	?___flmul+1,___flsub@a+1
  5167  0003B4  C015  F042         	movff	?___flmul+2,___flsub@a+2
  5168  0003B8  C016  F043         	movff	?___flmul+3,___flsub@a+3
  5169  0003BC  C0F1  F005         	movff	_referenceDurations+8,___xxtofl@val
  5170  0003C0  C0F2  F006         	movff	_referenceDurations+9,___xxtofl@val+1
  5171  0003C4  6A07               	clrf	(___xxtofl@val+2)^0,c
  5172  0003C6  6A08               	clrf	(___xxtofl@val+3)^0,c
  5173  0003C8  0E00               	movlw	0
  5174  0003CA  ECDB  F00E         	call	___xxtofl
  5175  0003CE  C005  F03C         	movff	?___xxtofl,___flsub@b
  5176  0003D2  C006  F03D         	movff	?___xxtofl+1,___flsub@b+1
  5177  0003D6  C007  F03E         	movff	?___xxtofl+2,___flsub@b+2
  5178  0003DA  C008  F03F         	movff	?___xxtofl+3,___flsub@b+3
  5179  0003DE  ECE7  F015         	call	___flsub	;wreg free
  5180  0003E2  C03C  F044         	movff	?___flsub,___flge@ff1
  5181  0003E6  C03D  F045         	movff	?___flsub+1,___flge@ff1+1
  5182  0003EA  C03E  F046         	movff	?___flsub+2,___flge@ff1+2
  5183  0003EE  C03F  F047         	movff	?___flsub+3,___flge@ff1+3
  5184  0003F2  C0DE  F005         	movff	decodeBits@durationLow,___xxtofl@val
  5185  0003F6  C0DF  F006         	movff	decodeBits@durationLow+1,___xxtofl@val+1
  5186  0003FA  6A07               	clrf	(___xxtofl@val+2)^0,c
  5187  0003FC  6A08               	clrf	(___xxtofl@val+3)^0,c
  5188  0003FE  0E00               	movlw	0
  5189  000400  ECDB  F00E         	call	___xxtofl
  5190  000404  C005  F048         	movff	?___xxtofl,___flge@ff2
  5191  000408  C006  F049         	movff	?___xxtofl+1,___flge@ff2+1
  5192  00040C  C007  F04A         	movff	?___xxtofl+2,___flge@ff2+2
  5193  000410  C008  F04B         	movff	?___xxtofl+3,___flge@ff2+3
  5194  000414  EC37  F011         	call	___flge	;wreg free
  5195  000418  B0D8               	btfsc	status,0,c
  5196  00041A  EF11  F002         	goto	u4661
  5197  00041E  EF13  F002         	goto	u4660
  5198  000422                     u4661:
  5199  000422  EF47  F003         	goto	l4674
  5200  000426                     u4660:
  5201  000426  C0DE  F005         	movff	decodeBits@durationLow,___xxtofl@val
  5202  00042A  C0DF  F006         	movff	decodeBits@durationLow+1,___xxtofl@val+1
  5203  00042E  6A07               	clrf	(___xxtofl@val+2)^0,c
  5204  000430  6A08               	clrf	(___xxtofl@val+3)^0,c
  5205  000432  0E00               	movlw	0
  5206  000434  ECDB  F00E         	call	___xxtofl
  5207  000438  C005  F044         	movff	?___xxtofl,___flge@ff1
  5208  00043C  C006  F045         	movff	?___xxtofl+1,___flge@ff1+1
  5209  000440  C007  F046         	movff	?___xxtofl+2,___flge@ff1+2
  5210  000444  C008  F047         	movff	?___xxtofl+3,___flge@ff1+3
  5211  000448  0ECD               	movlw	205
  5212  00044A  6E17               	movwf	___flmul@a^0,c
  5213  00044C  0ECC               	movlw	204
  5214  00044E  6E18               	movwf	(___flmul@a+1)^0,c
  5215  000450  0ECC               	movlw	204
  5216  000452  6E19               	movwf	(___flmul@a+2)^0,c
  5217  000454  0E3D               	movlw	61
  5218  000456  6E1A               	movwf	(___flmul@a+3)^0,c
  5219  000458  C0F1  F005         	movff	_referenceDurations+8,___xxtofl@val
  5220  00045C  C0F2  F006         	movff	_referenceDurations+9,___xxtofl@val+1
  5221  000460  6A07               	clrf	(___xxtofl@val+2)^0,c
  5222  000462  6A08               	clrf	(___xxtofl@val+3)^0,c
  5223  000464  0E00               	movlw	0
  5224  000466  ECDB  F00E         	call	___xxtofl
  5225  00046A  C005  F013         	movff	?___xxtofl,___flmul@b
  5226  00046E  C006  F014         	movff	?___xxtofl+1,___flmul@b+1
  5227  000472  C007  F015         	movff	?___xxtofl+2,___flmul@b+2
  5228  000476  C008  F016         	movff	?___xxtofl+3,___flmul@b+3
  5229  00047A  EC5C  F00A         	call	___flmul	;wreg free
  5230  00047E  C013  F030         	movff	?___flmul,___fladd@a
  5231  000482  C014  F031         	movff	?___flmul+1,___fladd@a+1
  5232  000486  C015  F032         	movff	?___flmul+2,___fladd@a+2
  5233  00048A  C016  F033         	movff	?___flmul+3,___fladd@a+3
  5234  00048E  C0F1  F005         	movff	_referenceDurations+8,___xxtofl@val
  5235  000492  C0F2  F006         	movff	_referenceDurations+9,___xxtofl@val+1
  5236  000496  6A07               	clrf	(___xxtofl@val+2)^0,c
  5237  000498  6A08               	clrf	(___xxtofl@val+3)^0,c
  5238  00049A  0E00               	movlw	0
  5239  00049C  ECDB  F00E         	call	___xxtofl
  5240  0004A0  C005  F02C         	movff	?___xxtofl,___fladd@b
  5241  0004A4  C006  F02D         	movff	?___xxtofl+1,___fladd@b+1
  5242  0004A8  C007  F02E         	movff	?___xxtofl+2,___fladd@b+2
  5243  0004AC  C008  F02F         	movff	?___xxtofl+3,___fladd@b+3
  5244  0004B0  ECD5  F005         	call	___fladd	;wreg free
  5245  0004B4  C02C  F048         	movff	?___fladd,___flge@ff2
  5246  0004B8  C02D  F049         	movff	?___fladd+1,___flge@ff2+1
  5247  0004BC  C02E  F04A         	movff	?___fladd+2,___flge@ff2+2
  5248  0004C0  C02F  F04B         	movff	?___fladd+3,___flge@ff2+3
  5249  0004C4  EC37  F011         	call	___flge	;wreg free
  5250  0004C8  B0D8               	btfsc	status,0,c
  5251  0004CA  EF69  F002         	goto	u4671
  5252  0004CE  EF6B  F002         	goto	u4670
  5253  0004D2                     u4671:
  5254  0004D2  EF47  F003         	goto	l4674
  5255  0004D6                     u4670:
  5256  0004D6  0ECD               	movlw	205
  5257  0004D8  6E17               	movwf	___flmul@a^0,c
  5258  0004DA  0ECC               	movlw	204
  5259  0004DC  6E18               	movwf	(___flmul@a+1)^0,c
  5260  0004DE  0ECC               	movlw	204
  5261  0004E0  6E19               	movwf	(___flmul@a+2)^0,c
  5262  0004E2  0E3D               	movlw	61
  5263  0004E4  6E1A               	movwf	(___flmul@a+3)^0,c
  5264  0004E6  C0F3  F005         	movff	_referenceDurations+10,___xxtofl@val
  5265  0004EA  C0F4  F006         	movff	_referenceDurations+11,___xxtofl@val+1
  5266  0004EE  6A07               	clrf	(___xxtofl@val+2)^0,c
  5267  0004F0  6A08               	clrf	(___xxtofl@val+3)^0,c
  5268  0004F2  0E00               	movlw	0
  5269  0004F4  ECDB  F00E         	call	___xxtofl
  5270  0004F8  C005  F013         	movff	?___xxtofl,___flmul@b
  5271  0004FC  C006  F014         	movff	?___xxtofl+1,___flmul@b+1
  5272  000500  C007  F015         	movff	?___xxtofl+2,___flmul@b+2
  5273  000504  C008  F016         	movff	?___xxtofl+3,___flmul@b+3
  5274  000508  EC5C  F00A         	call	___flmul	;wreg free
  5275  00050C  C013  F040         	movff	?___flmul,___flsub@a
  5276  000510  C014  F041         	movff	?___flmul+1,___flsub@a+1
  5277  000514  C015  F042         	movff	?___flmul+2,___flsub@a+2
  5278  000518  C016  F043         	movff	?___flmul+3,___flsub@a+3
  5279  00051C  C0F3  F005         	movff	_referenceDurations+10,___xxtofl@val
  5280  000520  C0F4  F006         	movff	_referenceDurations+11,___xxtofl@val+1
  5281  000524  6A07               	clrf	(___xxtofl@val+2)^0,c
  5282  000526  6A08               	clrf	(___xxtofl@val+3)^0,c
  5283  000528  0E00               	movlw	0
  5284  00052A  ECDB  F00E         	call	___xxtofl
  5285  00052E  C005  F03C         	movff	?___xxtofl,___flsub@b
  5286  000532  C006  F03D         	movff	?___xxtofl+1,___flsub@b+1
  5287  000536  C007  F03E         	movff	?___xxtofl+2,___flsub@b+2
  5288  00053A  C008  F03F         	movff	?___xxtofl+3,___flsub@b+3
  5289  00053E  ECE7  F015         	call	___flsub	;wreg free
  5290  000542  C03C  F044         	movff	?___flsub,___flge@ff1
  5291  000546  C03D  F045         	movff	?___flsub+1,___flge@ff1+1
  5292  00054A  C03E  F046         	movff	?___flsub+2,___flge@ff1+2
  5293  00054E  C03F  F047         	movff	?___flsub+3,___flge@ff1+3
  5294  000552  C0E0  F005         	movff	decodeBits@durationHigh,___xxtofl@val
  5295  000556  C0E1  F006         	movff	decodeBits@durationHigh+1,___xxtofl@val+1
  5296  00055A  6A07               	clrf	(___xxtofl@val+2)^0,c
  5297  00055C  6A08               	clrf	(___xxtofl@val+3)^0,c
  5298  00055E  0E00               	movlw	0
  5299  000560  ECDB  F00E         	call	___xxtofl
  5300  000564  C005  F048         	movff	?___xxtofl,___flge@ff2
  5301  000568  C006  F049         	movff	?___xxtofl+1,___flge@ff2+1
  5302  00056C  C007  F04A         	movff	?___xxtofl+2,___flge@ff2+2
  5303  000570  C008  F04B         	movff	?___xxtofl+3,___flge@ff2+3
  5304  000574  EC37  F011         	call	___flge	;wreg free
  5305  000578  B0D8               	btfsc	status,0,c
  5306  00057A  EFC1  F002         	goto	u4681
  5307  00057E  EFC3  F002         	goto	u4680
  5308  000582                     u4681:
  5309  000582  EF47  F003         	goto	l4674
  5310  000586                     u4680:
  5311  000586  C0E0  F005         	movff	decodeBits@durationHigh,___xxtofl@val
  5312  00058A  C0E1  F006         	movff	decodeBits@durationHigh+1,___xxtofl@val+1
  5313  00058E  6A07               	clrf	(___xxtofl@val+2)^0,c
  5314  000590  6A08               	clrf	(___xxtofl@val+3)^0,c
  5315  000592  0E00               	movlw	0
  5316  000594  ECDB  F00E         	call	___xxtofl
  5317  000598  C005  F044         	movff	?___xxtofl,___flge@ff1
  5318  00059C  C006  F045         	movff	?___xxtofl+1,___flge@ff1+1
  5319  0005A0  C007  F046         	movff	?___xxtofl+2,___flge@ff1+2
  5320  0005A4  C008  F047         	movff	?___xxtofl+3,___flge@ff1+3
  5321  0005A8  0ECD               	movlw	205
  5322  0005AA  6E17               	movwf	___flmul@a^0,c
  5323  0005AC  0ECC               	movlw	204
  5324  0005AE  6E18               	movwf	(___flmul@a+1)^0,c
  5325  0005B0  0ECC               	movlw	204
  5326  0005B2  6E19               	movwf	(___flmul@a+2)^0,c
  5327  0005B4  0E3D               	movlw	61
  5328  0005B6  6E1A               	movwf	(___flmul@a+3)^0,c
  5329  0005B8  C0F3  F005         	movff	_referenceDurations+10,___xxtofl@val
  5330  0005BC  C0F4  F006         	movff	_referenceDurations+11,___xxtofl@val+1
  5331  0005C0  6A07               	clrf	(___xxtofl@val+2)^0,c
  5332  0005C2  6A08               	clrf	(___xxtofl@val+3)^0,c
  5333  0005C4  0E00               	movlw	0
  5334  0005C6  ECDB  F00E         	call	___xxtofl
  5335  0005CA  C005  F013         	movff	?___xxtofl,___flmul@b
  5336  0005CE  C006  F014         	movff	?___xxtofl+1,___flmul@b+1
  5337  0005D2  C007  F015         	movff	?___xxtofl+2,___flmul@b+2
  5338  0005D6  C008  F016         	movff	?___xxtofl+3,___flmul@b+3
  5339  0005DA  EC5C  F00A         	call	___flmul	;wreg free
  5340  0005DE  C013  F030         	movff	?___flmul,___fladd@a
  5341  0005E2  C014  F031         	movff	?___flmul+1,___fladd@a+1
  5342  0005E6  C015  F032         	movff	?___flmul+2,___fladd@a+2
  5343  0005EA  C016  F033         	movff	?___flmul+3,___fladd@a+3
  5344  0005EE  C0F3  F005         	movff	_referenceDurations+10,___xxtofl@val
  5345  0005F2  C0F4  F006         	movff	_referenceDurations+11,___xxtofl@val+1
  5346  0005F6  6A07               	clrf	(___xxtofl@val+2)^0,c
  5347  0005F8  6A08               	clrf	(___xxtofl@val+3)^0,c
  5348  0005FA  0E00               	movlw	0
  5349  0005FC  ECDB  F00E         	call	___xxtofl
  5350  000600  C005  F02C         	movff	?___xxtofl,___fladd@b
  5351  000604  C006  F02D         	movff	?___xxtofl+1,___fladd@b+1
  5352  000608  C007  F02E         	movff	?___xxtofl+2,___fladd@b+2
  5353  00060C  C008  F02F         	movff	?___xxtofl+3,___fladd@b+3
  5354  000610  ECD5  F005         	call	___fladd	;wreg free
  5355  000614  C02C  F048         	movff	?___fladd,___flge@ff2
  5356  000618  C02D  F049         	movff	?___fladd+1,___flge@ff2+1
  5357  00061C  C02E  F04A         	movff	?___fladd+2,___flge@ff2+2
  5358  000620  C02F  F04B         	movff	?___fladd+3,___flge@ff2+3
  5359  000624  EC37  F011         	call	___flge	;wreg free
  5360  000628  B0D8               	btfsc	status,0,c
  5361  00062A  EF19  F003         	goto	u4691
  5362  00062E  EF1B  F003         	goto	u4690
  5363  000632                     u4691:
  5364  000632  EF47  F003         	goto	l4674
  5365  000636                     u4690:
  5366  000636                     
  5367                           ;func.c: 59:             && ((durationHigh > referenceDurations.dataOneHigh-(referenceDu
      +                          rations.dataOneHigh*0.1f)) && (durationHigh < referenceDurations.dataOneHigh+(referenceD
      +                          urations.dataOneHigh*0.1f)))) {;func.c: 60:                 decodedVal = decodedVal<<1 |
      +                           1;
  5368  000636  90D8               	bcf	status,0,c
  5369  000638  0100               	movlb	0	; () banked
  5370  00063A  35DA               	rlcf	decodeBits@decodedVal& (0+255),w,b
  5371  00063C  6FD5               	movwf	??_decodeBits& (0+255),b
  5372  00063E  35DB               	rlcf	(decodeBits@decodedVal+1)& (0+255),w,b
  5373  000640  6FD6               	movwf	(??_decodeBits+1)& (0+255),b
  5374  000642  35DC               	rlcf	(decodeBits@decodedVal+2)& (0+255),w,b
  5375  000644  6FD7               	movwf	(??_decodeBits+2)& (0+255),b
  5376  000646  35DD               	rlcf	(decodeBits@decodedVal+3)& (0+255),w,b
  5377  000648  6FD8               	movwf	(??_decodeBits+3)& (0+255),b
  5378  00064A  0E01               	movlw	1
  5379  00064C  11D5               	iorwf	??_decodeBits& (0+255),w,b
  5380  00064E  6FDA               	movwf	decodeBits@decodedVal& (0+255),b
  5381  000650  51D6               	movf	(??_decodeBits+1)& (0+255),w,b
  5382  000652  6FDB               	movwf	(decodeBits@decodedVal+1)& (0+255),b
  5383  000654  51D7               	movf	(??_decodeBits+2)& (0+255),w,b
  5384  000656  6FDC               	movwf	(decodeBits@decodedVal+2)& (0+255),b
  5385  000658  51D8               	movf	(??_decodeBits+3)& (0+255),w,b
  5386  00065A  6FDD               	movwf	(decodeBits@decodedVal+3)& (0+255),b
  5387  00065C                     
  5388                           ; BSR set to: 0
  5389                           ;func.c: 61:                 if(printBinary)
  5390  00065C  51D9               	movf	decodeBits@printBinary& (0+255),w,b
  5391  00065E  B4D8               	btfsc	status,2,c
  5392  000660  EF34  F003         	goto	u4701
  5393  000664  EF36  F003         	goto	u4700
  5394  000668                     u4701:
  5395  000668  EF3C  F003         	goto	l4672
  5396  00066C                     u4700:
  5397  00066C                     
  5398                           ; BSR set to: 0
  5399                           ;func.c: 62:                     printf("1");
  5400  00066C  0EFD               	movlw	low STR_31
  5401  00066E  6FBB               	movwf	printf@fmt& (0+255),b
  5402  000670  0EFF               	movlw	high STR_31
  5403  000672  6FBC               	movwf	(printf@fmt+1)& (0+255),b
  5404  000674  EC04  F017         	call	_printf	;wreg free
  5405  000678                     l4672:
  5406                           
  5407                           ;func.c: 67:     }
  5408  000678  0E02               	movlw	2
  5409  00067A  0100               	movlb	0	; () banked
  5410  00067C  27E2               	addwf	decodeBits@i& (0+255),f,b
  5411  00067E  0E40               	movlw	64
  5412  000680  65E2               	cpfsgt	decodeBits@i& (0+255),b
  5413  000682  EF45  F003         	goto	u4711
  5414  000686  EF47  F003         	goto	u4710
  5415  00068A                     u4711:
  5416  00068A  EF25  F000         	goto	l4640
  5417  00068E                     u4710:
  5418  00068E                     l4674:
  5419                           
  5420                           ;func.c: 68:     if(printBinary)
  5421  00068E  0100               	movlb	0	; () banked
  5422  000690  51D9               	movf	decodeBits@printBinary& (0+255),w,b
  5423  000692  B4D8               	btfsc	status,2,c
  5424  000694  EF4E  F003         	goto	u4721
  5425  000698  EF50  F003         	goto	u4720
  5426  00069C                     u4721:
  5427  00069C  EF56  F003         	goto	l4678
  5428  0006A0                     u4720:
  5429  0006A0                     
  5430                           ; BSR set to: 0
  5431                           ;func.c: 69:         printf("\r\n");
  5432  0006A0  0EB6               	movlw	low (STR_9+11)
  5433  0006A2  6FBB               	movwf	printf@fmt& (0+255),b
  5434  0006A4  0EFF               	movlw	high (STR_9+11)
  5435  0006A6  6FBC               	movwf	(printf@fmt+1)& (0+255),b
  5436  0006A8  EC04  F017         	call	_printf	;wreg free
  5437  0006AC                     l4678:
  5438                           
  5439                           ;func.c: 71:     return decodedVal;
  5440  0006AC  C0DA  F0D1         	movff	decodeBits@decodedVal,?_decodeBits
  5441  0006B0  C0DB  F0D2         	movff	decodeBits@decodedVal+1,?_decodeBits+1
  5442  0006B4  C0DC  F0D3         	movff	decodeBits@decodedVal+2,?_decodeBits+2
  5443  0006B8  C0DD  F0D4         	movff	decodeBits@decodedVal+3,?_decodeBits+3
  5444  0006BC  0012               	return		;funcret
  5445  0006BE                     __end_of_decodeBits:
  5446                           	opt callstack 0
  5447                           
  5448 ;; *************** function ___xxtofl *****************
  5449 ;; Defined at:
  5450 ;;		line 10 in file "C:\Program Files (x86)\Microchip\xc8\v2.10\pic\sources\c99\common\xxtofl.c"
  5451 ;; Parameters:    Size  Location     Type
  5452 ;;  sign            1    wreg     unsigned char 
  5453 ;;  val             4    4[COMRAM] long 
  5454 ;; Auto vars:     Size  Location     Type
  5455 ;;  sign            1   12[COMRAM] unsigned char 
  5456 ;;  arg             4   14[COMRAM] unsigned long 
  5457 ;;  exp             1   13[COMRAM] unsigned char 
  5458 ;; Return value:  Size  Location     Type
  5459 ;;                  4    4[COMRAM] unsigned char 
  5460 ;; Registers used:
  5461 ;;		wreg, status,2, status,0
  5462 ;; Tracked objects:
  5463 ;;		On entry : 0/0
  5464 ;;		On exit  : 0/0
  5465 ;;		Unchanged: 0/0
  5466 ;; Data sizes:     COMRAM   BANK0   BANK1   BANK2   BANK3   BANK4   BANK5   BANK6   BANK7   BANK8   BANK9  BANK10  BANK1
      +1  BANK12  BANK13  BANK14  BANK15
  5467 ;;      Params:         4       0       0       0       0       0       0       0       0       0       0       0       
      +0       0       0       0       0
  5468 ;;      Locals:         6       0       0       0       0       0       0       0       0       0       0       0       
      +0       0       0       0       0
  5469 ;;      Temps:          4       0       0       0       0       0       0       0       0       0       0       0       
      +0       0       0       0       0
  5470 ;;      Totals:        14       0       0       0       0       0       0       0       0       0       0       0       
      +0       0       0       0       0
  5471 ;;Total ram usage:       14 bytes
  5472 ;; Hardware stack levels used:    1
  5473 ;; Hardware stack levels required when called:    3
  5474 ;; This function calls:
  5475 ;;		Nothing
  5476 ;; This function is called by:
  5477 ;;		_decodeBits
  5478 ;; This function uses a non-reentrant model
  5479 ;;
  5480                           
  5481                           	psect	text25
  5482  001DB6                     __ptext25:
  5483                           	opt callstack 0
  5484  001DB6                     ___xxtofl:
  5485                           	opt callstack 26
  5486                           
  5487                           ;incstack = 0
  5488                           ;___xxtofl@sign stored from wreg
  5489  001DB6  6E0D               	movwf	___xxtofl@sign^0,c
  5490  001DB8  500D               	movf	___xxtofl@sign^0,w,c
  5491  001DBA  B4D8               	btfsc	status,2,c
  5492  001DBC  EFE2  F00E         	goto	u3391
  5493  001DC0  EFE4  F00E         	goto	u3390
  5494  001DC4                     u3391:
  5495  001DC4  EF06  F00F         	goto	l1363
  5496  001DC8                     u3390:
  5497  001DC8  BE08               	btfsc	(___xxtofl@val+3)^0,7,c
  5498  001DCA  EFEB  F00E         	goto	u3400
  5499  001DCE  EFE9  F00E         	goto	u3401
  5500  001DD2                     u3401:
  5501  001DD2  EF06  F00F         	goto	l1363
  5502  001DD6                     u3400:
  5503  001DD6  C005  F009         	movff	___xxtofl@val,??___xxtofl
  5504  001DDA  C006  F00A         	movff	___xxtofl@val+1,??___xxtofl+1
  5505  001DDE  C007  F00B         	movff	___xxtofl@val+2,??___xxtofl+2
  5506  001DE2  C008  F00C         	movff	___xxtofl@val+3,??___xxtofl+3
  5507  001DE6  1E09               	comf	??___xxtofl^0,f,c
  5508  001DE8  1E0A               	comf	(??___xxtofl+1)^0,f,c
  5509  001DEA  1E0B               	comf	(??___xxtofl+2)^0,f,c
  5510  001DEC  1E0C               	comf	(??___xxtofl+3)^0,f,c
  5511  001DEE  2A09               	incf	??___xxtofl^0,f,c
  5512  001DF0  0E00               	movlw	0
  5513  001DF2  220A               	addwfc	(??___xxtofl+1)^0,f,c
  5514  001DF4  220B               	addwfc	(??___xxtofl+2)^0,f,c
  5515  001DF6  220C               	addwfc	(??___xxtofl+3)^0,f,c
  5516  001DF8  C009  F00F         	movff	??___xxtofl,___xxtofl@arg
  5517  001DFC  C00A  F010         	movff	??___xxtofl+1,___xxtofl@arg+1
  5518  001E00  C00B  F011         	movff	??___xxtofl+2,___xxtofl@arg+2
  5519  001E04  C00C  F012         	movff	??___xxtofl+3,___xxtofl@arg+3
  5520  001E08  EF0E  F00F         	goto	l3710
  5521  001E0C                     l1363:
  5522  001E0C  C005  F00F         	movff	___xxtofl@val,___xxtofl@arg
  5523  001E10  C006  F010         	movff	___xxtofl@val+1,___xxtofl@arg+1
  5524  001E14  C007  F011         	movff	___xxtofl@val+2,___xxtofl@arg+2
  5525  001E18  C008  F012         	movff	___xxtofl@val+3,___xxtofl@arg+3
  5526  001E1C                     l3710:
  5527  001E1C  5005               	movf	___xxtofl@val^0,w,c
  5528  001E1E  1006               	iorwf	(___xxtofl@val+1)^0,w,c
  5529  001E20  1007               	iorwf	(___xxtofl@val+2)^0,w,c
  5530  001E22  1008               	iorwf	(___xxtofl@val+3)^0,w,c
  5531  001E24  A4D8               	btfss	status,2,c
  5532  001E26  EF17  F00F         	goto	u3411
  5533  001E2A  EF19  F00F         	goto	u3410
  5534  001E2E                     u3411:
  5535  001E2E  EF23  F00F         	goto	l3716
  5536  001E32                     u3410:
  5537  001E32  0E00               	movlw	0
  5538  001E34  6E05               	movwf	?___xxtofl^0,c
  5539  001E36  0E00               	movlw	0
  5540  001E38  6E06               	movwf	(?___xxtofl+1)^0,c
  5541  001E3A  0E00               	movlw	0
  5542  001E3C  6E07               	movwf	(?___xxtofl+2)^0,c
  5543  001E3E  0E00               	movlw	0
  5544  001E40  6E08               	movwf	(?___xxtofl+3)^0,c
  5545  001E42  EFB4  F00F         	goto	l1366
  5546  001E46                     l3716:
  5547  001E46  0E96               	movlw	150
  5548  001E48  6E0E               	movwf	___xxtofl@exp^0,c
  5549  001E4A  EF2D  F00F         	goto	l3720
  5550  001E4E                     l3718:
  5551  001E4E  2A0E               	incf	___xxtofl@exp^0,f,c
  5552  001E50  90D8               	bcf	status,0,c
  5553  001E52  3212               	rrcf	(___xxtofl@arg+3)^0,f,c
  5554  001E54  3211               	rrcf	(___xxtofl@arg+2)^0,f,c
  5555  001E56  3210               	rrcf	(___xxtofl@arg+1)^0,f,c
  5556  001E58  320F               	rrcf	___xxtofl@arg^0,f,c
  5557  001E5A                     l3720:
  5558  001E5A  0E00               	movlw	0
  5559  001E5C  140F               	andwf	___xxtofl@arg^0,w,c
  5560  001E5E  6E09               	movwf	??___xxtofl^0,c
  5561  001E60  0E00               	movlw	0
  5562  001E62  1410               	andwf	(___xxtofl@arg+1)^0,w,c
  5563  001E64  6E0A               	movwf	(??___xxtofl+1)^0,c
  5564  001E66  0E00               	movlw	0
  5565  001E68  1411               	andwf	(___xxtofl@arg+2)^0,w,c
  5566  001E6A  6E0B               	movwf	(??___xxtofl+2)^0,c
  5567  001E6C  0EFE               	movlw	254
  5568  001E6E  1412               	andwf	(___xxtofl@arg+3)^0,w,c
  5569  001E70  6E0C               	movwf	(??___xxtofl+3)^0,c
  5570  001E72  5009               	movf	??___xxtofl^0,w,c
  5571  001E74  100A               	iorwf	(??___xxtofl+1)^0,w,c
  5572  001E76  100B               	iorwf	(??___xxtofl+2)^0,w,c
  5573  001E78  100C               	iorwf	(??___xxtofl+3)^0,w,c
  5574  001E7A  A4D8               	btfss	status,2,c
  5575  001E7C  EF42  F00F         	goto	u3421
  5576  001E80  EF44  F00F         	goto	u3420
  5577  001E84                     u3421:
  5578  001E84  EF27  F00F         	goto	l3718
  5579  001E88                     u3420:
  5580  001E88  EF52  F00F         	goto	l1370
  5581  001E8C                     l3722:
  5582  001E8C  2A0E               	incf	___xxtofl@exp^0,f,c
  5583  001E8E  0E01               	movlw	1
  5584  001E90  260F               	addwf	___xxtofl@arg^0,f,c
  5585  001E92  0E00               	movlw	0
  5586  001E94  2210               	addwfc	(___xxtofl@arg+1)^0,f,c
  5587  001E96  2211               	addwfc	(___xxtofl@arg+2)^0,f,c
  5588  001E98  2212               	addwfc	(___xxtofl@arg+3)^0,f,c
  5589  001E9A  90D8               	bcf	status,0,c
  5590  001E9C  3212               	rrcf	(___xxtofl@arg+3)^0,f,c
  5591  001E9E  3211               	rrcf	(___xxtofl@arg+2)^0,f,c
  5592  001EA0  3210               	rrcf	(___xxtofl@arg+1)^0,f,c
  5593  001EA2  320F               	rrcf	___xxtofl@arg^0,f,c
  5594  001EA4                     l1370:
  5595  001EA4  0E00               	movlw	0
  5596  001EA6  140F               	andwf	___xxtofl@arg^0,w,c
  5597  001EA8  6E09               	movwf	??___xxtofl^0,c
  5598  001EAA  0E00               	movlw	0
  5599  001EAC  1410               	andwf	(___xxtofl@arg+1)^0,w,c
  5600  001EAE  6E0A               	movwf	(??___xxtofl+1)^0,c
  5601  001EB0  0E00               	movlw	0
  5602  001EB2  1411               	andwf	(___xxtofl@arg+2)^0,w,c
  5603  001EB4  6E0B               	movwf	(??___xxtofl+2)^0,c
  5604  001EB6  0EFF               	movlw	255
  5605  001EB8  1412               	andwf	(___xxtofl@arg+3)^0,w,c
  5606  001EBA  6E0C               	movwf	(??___xxtofl+3)^0,c
  5607  001EBC  5009               	movf	??___xxtofl^0,w,c
  5608  001EBE  100A               	iorwf	(??___xxtofl+1)^0,w,c
  5609  001EC0  100B               	iorwf	(??___xxtofl+2)^0,w,c
  5610  001EC2  100C               	iorwf	(??___xxtofl+3)^0,w,c
  5611  001EC4  A4D8               	btfss	status,2,c
  5612  001EC6  EF67  F00F         	goto	u3431
  5613  001ECA  EF69  F00F         	goto	u3430
  5614  001ECE                     u3431:
  5615  001ECE  EF46  F00F         	goto	l3722
  5616  001ED2                     u3430:
  5617  001ED2  EF71  F00F         	goto	l3730
  5618  001ED6                     l3728:
  5619  001ED6  060E               	decf	___xxtofl@exp^0,f,c
  5620  001ED8  90D8               	bcf	status,0,c
  5621  001EDA  360F               	rlcf	___xxtofl@arg^0,f,c
  5622  001EDC  3610               	rlcf	(___xxtofl@arg+1)^0,f,c
  5623  001EDE  3611               	rlcf	(___xxtofl@arg+2)^0,f,c
  5624  001EE0  3612               	rlcf	(___xxtofl@arg+3)^0,f,c
  5625  001EE2                     l3730:
  5626  001EE2  BE11               	btfsc	(___xxtofl@arg+2)^0,7,c
  5627  001EE4  EF76  F00F         	goto	u3441
  5628  001EE8  EF78  F00F         	goto	u3440
  5629  001EEC                     u3441:
  5630  001EEC  EF80  F00F         	goto	l1377
  5631  001EF0                     u3440:
  5632  001EF0  0E02               	movlw	2
  5633  001EF2  600E               	cpfslt	___xxtofl@exp^0,c
  5634  001EF4  EF7E  F00F         	goto	u3451
  5635  001EF8  EF80  F00F         	goto	u3450
  5636  001EFC                     u3451:
  5637  001EFC  EF6B  F00F         	goto	l3728
  5638  001F00                     u3450:
  5639  001F00                     l1377:
  5640  001F00  B00E               	btfsc	___xxtofl@exp^0,0,c
  5641  001F02  EF85  F00F         	goto	u3461
  5642  001F06  EF87  F00F         	goto	u3460
  5643  001F0A                     u3461:
  5644  001F0A  EF88  F00F         	goto	l3736
  5645  001F0E                     u3460:
  5646  001F0E  9E11               	bcf	(___xxtofl@arg+2)^0,7,c
  5647  001F10                     l3736:
  5648  001F10  90D8               	bcf	status,0,c
  5649  001F12  320E               	rrcf	___xxtofl@exp^0,f,c
  5650  001F14  C00E  F009         	movff	___xxtofl@exp,??___xxtofl
  5651  001F18  6A0A               	clrf	(??___xxtofl+1)^0,c
  5652  001F1A  6A0B               	clrf	(??___xxtofl+2)^0,c
  5653  001F1C  6A0C               	clrf	(??___xxtofl+3)^0,c
  5654  001F1E  C009  F00C         	movff	??___xxtofl,??___xxtofl+3
  5655  001F22  6A0B               	clrf	(??___xxtofl+2)^0,c
  5656  001F24  6A0A               	clrf	(??___xxtofl+1)^0,c
  5657  001F26  6A09               	clrf	??___xxtofl^0,c
  5658  001F28  5009               	movf	??___xxtofl^0,w,c
  5659  001F2A  120F               	iorwf	___xxtofl@arg^0,f,c
  5660  001F2C  500A               	movf	(??___xxtofl+1)^0,w,c
  5661  001F2E  1210               	iorwf	(___xxtofl@arg+1)^0,f,c
  5662  001F30  500B               	movf	(??___xxtofl+2)^0,w,c
  5663  001F32  1211               	iorwf	(___xxtofl@arg+2)^0,f,c
  5664  001F34  500C               	movf	(??___xxtofl+3)^0,w,c
  5665  001F36  1212               	iorwf	(___xxtofl@arg+3)^0,f,c
  5666  001F38  500D               	movf	___xxtofl@sign^0,w,c
  5667  001F3A  B4D8               	btfsc	status,2,c
  5668  001F3C  EFA2  F00F         	goto	u3471
  5669  001F40  EFA4  F00F         	goto	u3470
  5670  001F44                     u3471:
  5671  001F44  EFAC  F00F         	goto	l3746
  5672  001F48                     u3470:
  5673  001F48  BE08               	btfsc	(___xxtofl@val+3)^0,7,c
  5674  001F4A  EFAB  F00F         	goto	u3480
  5675  001F4E  EFA9  F00F         	goto	u3481
  5676  001F52                     u3481:
  5677  001F52  EFAC  F00F         	goto	l3746
  5678  001F56                     u3480:
  5679  001F56  8E12               	bsf	(___xxtofl@arg+3)^0,7,c
  5680  001F58                     l3746:
  5681  001F58  C00F  F005         	movff	___xxtofl@arg,?___xxtofl
  5682  001F5C  C010  F006         	movff	___xxtofl@arg+1,?___xxtofl+1
  5683  001F60  C011  F007         	movff	___xxtofl@arg+2,?___xxtofl+2
  5684  001F64  C012  F008         	movff	___xxtofl@arg+3,?___xxtofl+3
  5685  001F68                     l1366:
  5686  001F68  0012               	return		;funcret
  5687  001F6A                     __end_of___xxtofl:
  5688                           	opt callstack 0
  5689                           
  5690 ;; *************** function ___flsub *****************
  5691 ;; Defined at:
  5692 ;;		line 245 in file "C:\Program Files (x86)\Microchip\xc8\v2.10\pic\sources\c99\common\sprcadd.c"
  5693 ;; Parameters:    Size  Location     Type
  5694 ;;  b               4   59[COMRAM] unsigned char 
  5695 ;;  a               4   63[COMRAM] unsigned char 
  5696 ;; Auto vars:     Size  Location     Type
  5697 ;;		None
  5698 ;; Return value:  Size  Location     Type
  5699 ;;                  4   59[COMRAM] unsigned char 
  5700 ;; Registers used:
  5701 ;;		wreg, status,2, status,0, cstack
  5702 ;; Tracked objects:
  5703 ;;		On entry : 0/0
  5704 ;;		On exit  : 0/0
  5705 ;;		Unchanged: 0/0
  5706 ;; Data sizes:     COMRAM   BANK0   BANK1   BANK2   BANK3   BANK4   BANK5   BANK6   BANK7   BANK8   BANK9  BANK10  BANK1
      +1  BANK12  BANK13  BANK14  BANK15
  5707 ;;      Params:         8       0       0       0       0       0       0       0       0       0       0       0       
      +0       0       0       0       0
  5708 ;;      Locals:         0       0       0       0       0       0       0       0       0       0       0       0       
      +0       0       0       0       0
  5709 ;;      Temps:          0       0       0       0       0       0       0       0       0       0       0       0       
      +0       0       0       0       0
  5710 ;;      Totals:         8       0       0       0       0       0       0       0       0       0       0       0       
      +0       0       0       0       0
  5711 ;;Total ram usage:        8 bytes
  5712 ;; Hardware stack levels used:    1
  5713 ;; Hardware stack levels required when called:    4
  5714 ;; This function calls:
  5715 ;;		___fladd
  5716 ;; This function is called by:
  5717 ;;		_decodeBits
  5718 ;; This function uses a non-reentrant model
  5719 ;;
  5720                           
  5721                           	psect	text26
  5722  002BCE                     __ptext26:
  5723                           	opt callstack 0
  5724  002BCE                     ___flsub:
  5725                           	opt callstack 25
  5726  002BCE  0E00               	movlw	0
  5727  002BD0  1A40               	xorwf	___flsub@a^0,f,c
  5728  002BD2  0E00               	movlw	0
  5729  002BD4  1A41               	xorwf	(___flsub@a+1)^0,f,c
  5730  002BD6  0E00               	movlw	0
  5731  002BD8  1A42               	xorwf	(___flsub@a+2)^0,f,c
  5732  002BDA  0E80               	movlw	128
  5733  002BDC  1A43               	xorwf	(___flsub@a+3)^0,f,c
  5734  002BDE  C03C  F02C         	movff	___flsub@b,___fladd@b
  5735  002BE2  C03D  F02D         	movff	___flsub@b+1,___fladd@b+1
  5736  002BE6  C03E  F02E         	movff	___flsub@b+2,___fladd@b+2
  5737  002BEA  C03F  F02F         	movff	___flsub@b+3,___fladd@b+3
  5738  002BEE  C040  F030         	movff	___flsub@a,___fladd@a
  5739  002BF2  C041  F031         	movff	___flsub@a+1,___fladd@a+1
  5740  002BF6  C042  F032         	movff	___flsub@a+2,___fladd@a+2
  5741  002BFA  C043  F033         	movff	___flsub@a+3,___fladd@a+3
  5742  002BFE  ECD5  F005         	call	___fladd	;wreg free
  5743  002C02  C02C  F03C         	movff	?___fladd,?___flsub
  5744  002C06  C02D  F03D         	movff	?___fladd+1,?___flsub+1
  5745  002C0A  C02E  F03E         	movff	?___fladd+2,?___flsub+2
  5746  002C0E  C02F  F03F         	movff	?___fladd+3,?___flsub+3
  5747  002C12  0012               	return		;funcret
  5748  002C14                     __end_of___flsub:
  5749                           	opt callstack 0
  5750                           
  5751 ;; *************** function ___fladd *****************
  5752 ;; Defined at:
  5753 ;;		line 10 in file "C:\Program Files (x86)\Microchip\xc8\v2.10\pic\sources\c99\common\sprcadd.c"
  5754 ;; Parameters:    Size  Location     Type
  5755 ;;  b               4   43[COMRAM] unsigned char 
  5756 ;;  a               4   47[COMRAM] unsigned char 
  5757 ;; Auto vars:     Size  Location     Type
  5758 ;;  grs             1   58[COMRAM] unsigned char 
  5759 ;;  bexp            1   57[COMRAM] unsigned char 
  5760 ;;  aexp            1   56[COMRAM] unsigned char 
  5761 ;;  signs           1   55[COMRAM] unsigned char 
  5762 ;; Return value:  Size  Location     Type
  5763 ;;                  4   43[COMRAM] unsigned char 
  5764 ;; Registers used:
  5765 ;;		wreg, status,2, status,0
  5766 ;; Tracked objects:
  5767 ;;		On entry : 0/0
  5768 ;;		On exit  : 0/0
  5769 ;;		Unchanged: 0/0
  5770 ;; Data sizes:     COMRAM   BANK0   BANK1   BANK2   BANK3   BANK4   BANK5   BANK6   BANK7   BANK8   BANK9  BANK10  BANK1
      +1  BANK12  BANK13  BANK14  BANK15
  5771 ;;      Params:         8       0       0       0       0       0       0       0       0       0       0       0       
      +0       0       0       0       0
  5772 ;;      Locals:         4       0       0       0       0       0       0       0       0       0       0       0       
      +0       0       0       0       0
  5773 ;;      Temps:          4       0       0       0       0       0       0       0       0       0       0       0       
      +0       0       0       0       0
  5774 ;;      Totals:        16       0       0       0       0       0       0       0       0       0       0       0       
      +0       0       0       0       0
  5775 ;;Total ram usage:       16 bytes
  5776 ;; Hardware stack levels used:    1
  5777 ;; Hardware stack levels required when called:    3
  5778 ;; This function calls:
  5779 ;;		Nothing
  5780 ;; This function is called by:
  5781 ;;		_decodeBits
  5782 ;;		___flsub
  5783 ;; This function uses a non-reentrant model
  5784 ;;
  5785                           
  5786                           	psect	text27
  5787  000BAA                     __ptext27:
  5788                           	opt callstack 0
  5789  000BAA                     ___fladd:
  5790                           	opt callstack 25
  5791  000BAA  502F               	movf	(___fladd@b+3)^0,w,c
  5792  000BAC  0B80               	andlw	128
  5793  000BAE  6E38               	movwf	___fladd@signs^0,c
  5794  000BB0  502F               	movf	(___fladd@b+3)^0,w,c
  5795  000BB2  242F               	addwf	(___fladd@b+3)^0,w,c
  5796  000BB4  6E3A               	movwf	___fladd@bexp^0,c
  5797  000BB6  AE2E               	btfss	(___fladd@b+2)^0,7,c
  5798  000BB8  EFE0  F005         	goto	u2671
  5799  000BBC  EFE2  F005         	goto	u2670
  5800  000BC0                     u2671:
  5801  000BC0  EFE3  F005         	goto	l3270
  5802  000BC4                     u2670:
  5803  000BC4  803A               	bsf	___fladd@bexp^0,0,c
  5804  000BC6                     l3270:
  5805  000BC6  503A               	movf	___fladd@bexp^0,w,c
  5806  000BC8  B4D8               	btfsc	status,2,c
  5807  000BCA  EFE9  F005         	goto	u2681
  5808  000BCE  EFEB  F005         	goto	u2680
  5809  000BD2                     u2681:
  5810  000BD2  EF00  F006         	goto	l3280
  5811  000BD6                     u2680:
  5812  000BD6  283A               	incf	___fladd@bexp^0,w,c
  5813  000BD8  A4D8               	btfss	status,2,c
  5814  000BDA  EFF1  F005         	goto	u2691
  5815  000BDE  EFF3  F005         	goto	u2690
  5816  000BE2                     u2691:
  5817  000BE2  EFFB  F005         	goto	l3276
  5818  000BE6                     u2690:
  5819  000BE6  0E00               	movlw	0
  5820  000BE8  6E2C               	movwf	___fladd@b^0,c
  5821  000BEA  0E00               	movlw	0
  5822  000BEC  6E2D               	movwf	(___fladd@b+1)^0,c
  5823  000BEE  0E00               	movlw	0
  5824  000BF0  6E2E               	movwf	(___fladd@b+2)^0,c
  5825  000BF2  0E00               	movlw	0
  5826  000BF4  6E2F               	movwf	(___fladd@b+3)^0,c
  5827  000BF6                     l3276:
  5828  000BF6  8E2E               	bsf	(___fladd@b+2)^0,7,c
  5829  000BF8  0E00               	movlw	0
  5830  000BFA  6E2F               	movwf	(___fladd@b+3)^0,c
  5831  000BFC  EF08  F006         	goto	l3282
  5832  000C00                     l3280:
  5833  000C00  0E00               	movlw	0
  5834  000C02  6E2C               	movwf	___fladd@b^0,c
  5835  000C04  0E00               	movlw	0
  5836  000C06  6E2D               	movwf	(___fladd@b+1)^0,c
  5837  000C08  0E00               	movlw	0
  5838  000C0A  6E2E               	movwf	(___fladd@b+2)^0,c
  5839  000C0C  0E00               	movlw	0
  5840  000C0E  6E2F               	movwf	(___fladd@b+3)^0,c
  5841  000C10                     l3282:
  5842  000C10  5033               	movf	(___fladd@a+3)^0,w,c
  5843  000C12  0B80               	andlw	128
  5844  000C14  6E39               	movwf	___fladd@aexp^0,c
  5845  000C16  5038               	movf	___fladd@signs^0,w,c
  5846  000C18  1839               	xorwf	___fladd@aexp^0,w,c
  5847  000C1A  B4D8               	btfsc	status,2,c
  5848  000C1C  EF12  F006         	goto	u2701
  5849  000C20  EF14  F006         	goto	u2700
  5850  000C24                     u2701:
  5851  000C24  EF15  F006         	goto	l3288
  5852  000C28                     u2700:
  5853  000C28  8C38               	bsf	___fladd@signs^0,6,c
  5854  000C2A                     l3288:
  5855  000C2A  5033               	movf	(___fladd@a+3)^0,w,c
  5856  000C2C  2433               	addwf	(___fladd@a+3)^0,w,c
  5857  000C2E  6E39               	movwf	___fladd@aexp^0,c
  5858  000C30  AE32               	btfss	(___fladd@a+2)^0,7,c
  5859  000C32  EF1D  F006         	goto	u2711
  5860  000C36  EF1F  F006         	goto	u2710
  5861  000C3A                     u2711:
  5862  000C3A  EF20  F006         	goto	l3294
  5863  000C3E                     u2710:
  5864  000C3E  8039               	bsf	___fladd@aexp^0,0,c
  5865  000C40                     l3294:
  5866  000C40  5039               	movf	___fladd@aexp^0,w,c
  5867  000C42  B4D8               	btfsc	status,2,c
  5868  000C44  EF26  F006         	goto	u2721
  5869  000C48  EF28  F006         	goto	u2720
  5870  000C4C                     u2721:
  5871  000C4C  EF3D  F006         	goto	l3304
  5872  000C50                     u2720:
  5873  000C50  2839               	incf	___fladd@aexp^0,w,c
  5874  000C52  A4D8               	btfss	status,2,c
  5875  000C54  EF2E  F006         	goto	u2731
  5876  000C58  EF30  F006         	goto	u2730
  5877  000C5C                     u2731:
  5878  000C5C  EF38  F006         	goto	l3300
  5879  000C60                     u2730:
  5880  000C60  0E00               	movlw	0
  5881  000C62  6E30               	movwf	___fladd@a^0,c
  5882  000C64  0E00               	movlw	0
  5883  000C66  6E31               	movwf	(___fladd@a+1)^0,c
  5884  000C68  0E00               	movlw	0
  5885  000C6A  6E32               	movwf	(___fladd@a+2)^0,c
  5886  000C6C  0E00               	movlw	0
  5887  000C6E  6E33               	movwf	(___fladd@a+3)^0,c
  5888  000C70                     l3300:
  5889  000C70  8E32               	bsf	(___fladd@a+2)^0,7,c
  5890  000C72  0E00               	movlw	0
  5891  000C74  6E33               	movwf	(___fladd@a+3)^0,c
  5892  000C76  EF45  F006         	goto	l3306
  5893  000C7A                     l3304:
  5894  000C7A  0E00               	movlw	0
  5895  000C7C  6E30               	movwf	___fladd@a^0,c
  5896  000C7E  0E00               	movlw	0
  5897  000C80  6E31               	movwf	(___fladd@a+1)^0,c
  5898  000C82  0E00               	movlw	0
  5899  000C84  6E32               	movwf	(___fladd@a+2)^0,c
  5900  000C86  0E00               	movlw	0
  5901  000C88  6E33               	movwf	(___fladd@a+3)^0,c
  5902  000C8A                     l3306:
  5903  000C8A  503A               	movf	___fladd@bexp^0,w,c
  5904  000C8C  5C39               	subwf	___fladd@aexp^0,w,c
  5905  000C8E  B0D8               	btfsc	status,0,c
  5906  000C90  EF4C  F006         	goto	u2741
  5907  000C94  EF4E  F006         	goto	u2740
  5908  000C98                     u2741:
  5909  000C98  EF75  F006         	goto	l3342
  5910  000C9C                     u2740:
  5911  000C9C  AC38               	btfss	___fladd@signs^0,6,c
  5912  000C9E  EF53  F006         	goto	u2751
  5913  000CA2  EF55  F006         	goto	u2750
  5914  000CA6                     u2751:
  5915  000CA6  EF57  F006         	goto	l3312
  5916  000CAA                     u2750:
  5917  000CAA  0E80               	movlw	128
  5918  000CAC  1A38               	xorwf	___fladd@signs^0,f,c
  5919  000CAE                     l3312:
  5920  000CAE  C03A  F03B         	movff	___fladd@bexp,___fladd@grs
  5921  000CB2  C039  F03A         	movff	___fladd@aexp,___fladd@bexp
  5922  000CB6  C03B  F039         	movff	___fladd@grs,___fladd@aexp
  5923  000CBA  C02C  F03B         	movff	___fladd@b,___fladd@grs
  5924  000CBE  C030  F02C         	movff	___fladd@a,___fladd@b
  5925  000CC2  C03B  F030         	movff	___fladd@grs,___fladd@a
  5926  000CC6  C02D  F03B         	movff	___fladd@b+1,___fladd@grs
  5927  000CCA  C031  F02D         	movff	___fladd@a+1,___fladd@b+1
  5928  000CCE  C03B  F031         	movff	___fladd@grs,___fladd@a+1
  5929  000CD2  C02E  F03B         	movff	___fladd@b+2,___fladd@grs
  5930  000CD6  C032  F02E         	movff	___fladd@a+2,___fladd@b+2
  5931  000CDA  C03B  F032         	movff	___fladd@grs,___fladd@a+2
  5932  000CDE  C02F  F03B         	movff	___fladd@b+3,___fladd@grs
  5933  000CE2  C033  F02F         	movff	___fladd@a+3,___fladd@b+3
  5934  000CE6  C03B  F033         	movff	___fladd@grs,___fladd@a+3
  5935  000CEA                     l3342:
  5936  000CEA  0E00               	movlw	0
  5937  000CEC  6E3B               	movwf	___fladd@grs^0,c
  5938  000CEE  503A               	movf	___fladd@bexp^0,w,c
  5939  000CF0  C039  F034         	movff	___fladd@aexp,??___fladd
  5940  000CF4  6A35               	clrf	(??___fladd+1)^0,c
  5941  000CF6  5E34               	subwf	??___fladd^0,f,c
  5942  000CF8  0E00               	movlw	0
  5943  000CFA  5A35               	subwfb	(??___fladd+1)^0,f,c
  5944  000CFC  BE35               	btfsc	(??___fladd+1)^0,7,c
  5945  000CFE  EF8A  F006         	goto	u2761
  5946  000D02  5035               	movf	(??___fladd+1)^0,w,c
  5947  000D04  E109               	bnz	u2760
  5948  000D06  0E1A               	movlw	26
  5949  000D08  5C34               	subwf	??___fladd^0,w,c
  5950  000D0A  A0D8               	btfss	status,0,c
  5951  000D0C  EF8A  F006         	goto	u2761
  5952  000D10  EF8C  F006         	goto	u2760
  5953  000D14                     u2761:
  5954  000D14  EFC3  F006         	goto	l1237
  5955  000D18                     u2760:
  5956  000D18  502C               	movf	___fladd@b^0,w,c
  5957  000D1A  102D               	iorwf	(___fladd@b+1)^0,w,c
  5958  000D1C  102E               	iorwf	(___fladd@b+2)^0,w,c
  5959  000D1E  102F               	iorwf	(___fladd@b+3)^0,w,c
  5960  000D20  A4D8               	btfss	status,2,c
  5961  000D22  EF95  F006         	goto	u2771
  5962  000D26  EF98  F006         	goto	u2770
  5963  000D2A                     u2771:
  5964  000D2A  0E01               	movlw	1
  5965  000D2C  EF99  F006         	goto	u2780
  5966  000D30                     u2770:
  5967  000D30  0E00               	movlw	0
  5968  000D32                     u2780:
  5969  000D32  6E3B               	movwf	___fladd@grs^0,c
  5970  000D34  0E00               	movlw	0
  5971  000D36  6E2C               	movwf	___fladd@b^0,c
  5972  000D38  0E00               	movlw	0
  5973  000D3A  6E2D               	movwf	(___fladd@b+1)^0,c
  5974  000D3C  0E00               	movlw	0
  5975  000D3E  6E2E               	movwf	(___fladd@b+2)^0,c
  5976  000D40  0E00               	movlw	0
  5977  000D42  6E2F               	movwf	(___fladd@b+3)^0,c
  5978  000D44  C039  F03A         	movff	___fladd@aexp,___fladd@bexp
  5979  000D48  EFCC  F006         	goto	l1236
  5980  000D4C                     l1238:
  5981  000D4C  A03B               	btfss	___fladd@grs^0,0,c
  5982  000D4E  EFAB  F006         	goto	u2791
  5983  000D52  EFAD  F006         	goto	u2790
  5984  000D56                     u2791:
  5985  000D56  EFB3  F006         	goto	l3354
  5986  000D5A                     u2790:
  5987  000D5A  90D8               	bcf	status,0,c
  5988  000D5C  303B               	rrcf	___fladd@grs^0,w,c
  5989  000D5E  0901               	iorlw	1
  5990  000D60  6E3B               	movwf	___fladd@grs^0,c
  5991  000D62  EFB5  F006         	goto	l3356
  5992  000D66                     l3354:
  5993  000D66  90D8               	bcf	status,0,c
  5994  000D68  323B               	rrcf	___fladd@grs^0,f,c
  5995  000D6A                     l3356:
  5996  000D6A  A02C               	btfss	___fladd@b^0,0,c
  5997  000D6C  EFBA  F006         	goto	u2801
  5998  000D70  EFBC  F006         	goto	u2800
  5999  000D74                     u2801:
  6000  000D74  EFBD  F006         	goto	l3360
  6001  000D78                     u2800:
  6002  000D78  8E3B               	bsf	___fladd@grs^0,7,c
  6003  000D7A                     l3360:
  6004  000D7A  342F               	rlcf	(___fladd@b+3)^0,w,c
  6005  000D7C  322F               	rrcf	(___fladd@b+3)^0,f,c
  6006  000D7E  322E               	rrcf	(___fladd@b+2)^0,f,c
  6007  000D80  322D               	rrcf	(___fladd@b+1)^0,f,c
  6008  000D82  322C               	rrcf	___fladd@b^0,f,c
  6009  000D84  2A3A               	incf	___fladd@bexp^0,f,c
  6010  000D86                     l1237:
  6011  000D86  5039               	movf	___fladd@aexp^0,w,c
  6012  000D88  5C3A               	subwf	___fladd@bexp^0,w,c
  6013  000D8A  A0D8               	btfss	status,0,c
  6014  000D8C  EFCA  F006         	goto	u2811
  6015  000D90  EFCC  F006         	goto	u2810
  6016  000D94                     u2811:
  6017  000D94  EFA6  F006         	goto	l1238
  6018  000D98                     u2810:
  6019  000D98                     l1236:
  6020  000D98  BC38               	btfsc	___fladd@signs^0,6,c
  6021  000D9A  EFD1  F006         	goto	u2821
  6022  000D9E  EFD3  F006         	goto	u2820
  6023  000DA2                     u2821:
  6024  000DA2  EF13  F007         	goto	l3388
  6025  000DA6                     u2820:
  6026  000DA6  503A               	movf	___fladd@bexp^0,w,c
  6027  000DA8  A4D8               	btfss	status,2,c
  6028  000DAA  EFD9  F006         	goto	u2831
  6029  000DAE  EFDB  F006         	goto	u2830
  6030  000DB2                     u2831:
  6031  000DB2  EFE5  F006         	goto	l3370
  6032  000DB6                     u2830:
  6033  000DB6  0E00               	movlw	0
  6034  000DB8  6E2C               	movwf	?___fladd^0,c
  6035  000DBA  0E00               	movlw	0
  6036  000DBC  6E2D               	movwf	(?___fladd+1)^0,c
  6037  000DBE  0E00               	movlw	0
  6038  000DC0  6E2E               	movwf	(?___fladd+2)^0,c
  6039  000DC2  0E00               	movlw	0
  6040  000DC4  6E2F               	movwf	(?___fladd+3)^0,c
  6041  000DC6  EF34  F008         	goto	l1245
  6042  000DCA                     l3370:
  6043  000DCA  5030               	movf	___fladd@a^0,w,c
  6044  000DCC  262C               	addwf	___fladd@b^0,f,c
  6045  000DCE  5031               	movf	(___fladd@a+1)^0,w,c
  6046  000DD0  222D               	addwfc	(___fladd@b+1)^0,f,c
  6047  000DD2  5032               	movf	(___fladd@a+2)^0,w,c
  6048  000DD4  222E               	addwfc	(___fladd@b+2)^0,f,c
  6049  000DD6  5033               	movf	(___fladd@a+3)^0,w,c
  6050  000DD8  222F               	addwfc	(___fladd@b+3)^0,f,c
  6051  000DDA  A02F               	btfss	(___fladd@b+3)^0,0,c
  6052  000DDC  EFF2  F006         	goto	u2841
  6053  000DE0  EFF4  F006         	goto	u2840
  6054  000DE4                     u2841:
  6055  000DE4  EFA0  F007         	goto	l3424
  6056  000DE8                     u2840:
  6057  000DE8  A03B               	btfss	___fladd@grs^0,0,c
  6058  000DEA  EFF9  F006         	goto	u2851
  6059  000DEE  EFFB  F006         	goto	u2850
  6060  000DF2                     u2851:
  6061  000DF2  EF01  F007         	goto	l3378
  6062  000DF6                     u2850:
  6063  000DF6  90D8               	bcf	status,0,c
  6064  000DF8  303B               	rrcf	___fladd@grs^0,w,c
  6065  000DFA  0901               	iorlw	1
  6066  000DFC  6E3B               	movwf	___fladd@grs^0,c
  6067  000DFE  EF03  F007         	goto	l3380
  6068  000E02                     l3378:
  6069  000E02  90D8               	bcf	status,0,c
  6070  000E04  323B               	rrcf	___fladd@grs^0,f,c
  6071  000E06                     l3380:
  6072  000E06  A02C               	btfss	___fladd@b^0,0,c
  6073  000E08  EF08  F007         	goto	u2861
  6074  000E0C  EF0A  F007         	goto	u2860
  6075  000E10                     u2861:
  6076  000E10  EF0B  F007         	goto	l3384
  6077  000E14                     u2860:
  6078  000E14  8E3B               	bsf	___fladd@grs^0,7,c
  6079  000E16                     l3384:
  6080  000E16  342F               	rlcf	(___fladd@b+3)^0,w,c
  6081  000E18  322F               	rrcf	(___fladd@b+3)^0,f,c
  6082  000E1A  322E               	rrcf	(___fladd@b+2)^0,f,c
  6083  000E1C  322D               	rrcf	(___fladd@b+1)^0,f,c
  6084  000E1E  322C               	rrcf	___fladd@b^0,f,c
  6085  000E20  2A3A               	incf	___fladd@bexp^0,f,c
  6086  000E22  EFA0  F007         	goto	l3424
  6087  000E26                     l3388:
  6088  000E26  5030               	movf	___fladd@a^0,w,c
  6089  000E28  5C2C               	subwf	___fladd@b^0,w,c
  6090  000E2A  5031               	movf	(___fladd@a+1)^0,w,c
  6091  000E2C  582D               	subwfb	(___fladd@b+1)^0,w,c
  6092  000E2E  5032               	movf	(___fladd@a+2)^0,w,c
  6093  000E30  582E               	subwfb	(___fladd@b+2)^0,w,c
  6094  000E32  502F               	movf	(___fladd@b+3)^0,w,c
  6095  000E34  0A80               	xorlw	128
  6096  000E36  6E34               	movwf	??___fladd^0,c
  6097  000E38  5033               	movf	(___fladd@a+3)^0,w,c
  6098  000E3A  0A80               	xorlw	128
  6099  000E3C  5834               	subwfb	??___fladd^0,w,c
  6100  000E3E  B0D8               	btfsc	status,0,c
  6101  000E40  EF24  F007         	goto	u2871
  6102  000E44  EF26  F007         	goto	u2870
  6103  000E48                     u2871:
  6104  000E48  EF51  F007         	goto	l3398
  6105  000E4C                     u2870:
  6106  000E4C  502C               	movf	___fladd@b^0,w,c
  6107  000E4E  5C30               	subwf	___fladd@a^0,w,c
  6108  000E50  6E34               	movwf	??___fladd^0,c
  6109  000E52  502D               	movf	(___fladd@b+1)^0,w,c
  6110  000E54  5831               	subwfb	(___fladd@a+1)^0,w,c
  6111  000E56  6E35               	movwf	(??___fladd+1)^0,c
  6112  000E58  502E               	movf	(___fladd@b+2)^0,w,c
  6113  000E5A  5832               	subwfb	(___fladd@a+2)^0,w,c
  6114  000E5C  6E36               	movwf	(??___fladd+2)^0,c
  6115  000E5E  502F               	movf	(___fladd@b+3)^0,w,c
  6116  000E60  5833               	subwfb	(___fladd@a+3)^0,w,c
  6117  000E62  6E37               	movwf	(??___fladd+3)^0,c
  6118  000E64  0EFF               	movlw	255
  6119  000E66  2434               	addwf	??___fladd^0,w,c
  6120  000E68  6E2C               	movwf	___fladd@b^0,c
  6121  000E6A  0EFF               	movlw	255
  6122  000E6C  2035               	addwfc	(??___fladd+1)^0,w,c
  6123  000E6E  6E2D               	movwf	(___fladd@b+1)^0,c
  6124  000E70  0EFF               	movlw	255
  6125  000E72  2036               	addwfc	(??___fladd+2)^0,w,c
  6126  000E74  6E2E               	movwf	(___fladd@b+2)^0,c
  6127  000E76  0EFF               	movlw	255
  6128  000E78  2037               	addwfc	(??___fladd+3)^0,w,c
  6129  000E7A  6E2F               	movwf	(___fladd@b+3)^0,c
  6130  000E7C  0E80               	movlw	128
  6131  000E7E  1A38               	xorwf	___fladd@signs^0,f,c
  6132  000E80  6C3B               	negf	___fladd@grs^0,c
  6133  000E82  503B               	movf	___fladd@grs^0,w,c
  6134  000E84  A4D8               	btfss	status,2,c
  6135  000E86  EF47  F007         	goto	u2881
  6136  000E8A  EF49  F007         	goto	u2880
  6137  000E8E                     u2881:
  6138  000E8E  EF59  F007         	goto	l1253
  6139  000E92                     u2880:
  6140  000E92  0E01               	movlw	1
  6141  000E94  262C               	addwf	___fladd@b^0,f,c
  6142  000E96  0E00               	movlw	0
  6143  000E98  222D               	addwfc	(___fladd@b+1)^0,f,c
  6144  000E9A  222E               	addwfc	(___fladd@b+2)^0,f,c
  6145  000E9C  222F               	addwfc	(___fladd@b+3)^0,f,c
  6146  000E9E  EF59  F007         	goto	l1253
  6147  000EA2                     l3398:
  6148  000EA2  5030               	movf	___fladd@a^0,w,c
  6149  000EA4  5E2C               	subwf	___fladd@b^0,f,c
  6150  000EA6  5031               	movf	(___fladd@a+1)^0,w,c
  6151  000EA8  5A2D               	subwfb	(___fladd@b+1)^0,f,c
  6152  000EAA  5032               	movf	(___fladd@a+2)^0,w,c
  6153  000EAC  5A2E               	subwfb	(___fladd@b+2)^0,f,c
  6154  000EAE  5033               	movf	(___fladd@a+3)^0,w,c
  6155  000EB0  5A2F               	subwfb	(___fladd@b+3)^0,f,c
  6156  000EB2                     l1253:
  6157  000EB2  502C               	movf	___fladd@b^0,w,c
  6158  000EB4  102D               	iorwf	(___fladd@b+1)^0,w,c
  6159  000EB6  102E               	iorwf	(___fladd@b+2)^0,w,c
  6160  000EB8  102F               	iorwf	(___fladd@b+3)^0,w,c
  6161  000EBA  A4D8               	btfss	status,2,c
  6162  000EBC  EF62  F007         	goto	u2891
  6163  000EC0  EF64  F007         	goto	u2890
  6164  000EC4                     u2891:
  6165  000EC4  EF99  F007         	goto	l3422
  6166  000EC8                     u2890:
  6167  000EC8  503B               	movf	___fladd@grs^0,w,c
  6168  000ECA  A4D8               	btfss	status,2,c
  6169  000ECC  EF6A  F007         	goto	u2901
  6170  000ED0  EF6C  F007         	goto	u2900
  6171  000ED4                     u2901:
  6172  000ED4  EF99  F007         	goto	l3422
  6173  000ED8                     u2900:
  6174  000ED8  0E00               	movlw	0
  6175  000EDA  6E2C               	movwf	?___fladd^0,c
  6176  000EDC  0E00               	movlw	0
  6177  000EDE  6E2D               	movwf	(?___fladd+1)^0,c
  6178  000EE0  0E00               	movlw	0
  6179  000EE2  6E2E               	movwf	(?___fladd+2)^0,c
  6180  000EE4  0E00               	movlw	0
  6181  000EE6  6E2F               	movwf	(?___fladd+3)^0,c
  6182  000EE8  EF34  F008         	goto	l1245
  6183  000EEC                     l3406:
  6184  000EEC  90D8               	bcf	status,0,c
  6185  000EEE  362C               	rlcf	___fladd@b^0,f,c
  6186  000EF0  362D               	rlcf	(___fladd@b+1)^0,f,c
  6187  000EF2  362E               	rlcf	(___fladd@b+2)^0,f,c
  6188  000EF4  362F               	rlcf	(___fladd@b+3)^0,f,c
  6189  000EF6  AE3B               	btfss	___fladd@grs^0,7,c
  6190  000EF8  EF80  F007         	goto	u2911
  6191  000EFC  EF82  F007         	goto	u2910
  6192  000F00                     u2911:
  6193  000F00  EF83  F007         	goto	l3412
  6194  000F04                     u2910:
  6195  000F04  802C               	bsf	___fladd@b^0,0,c
  6196  000F06                     l3412:
  6197  000F06  A03B               	btfss	___fladd@grs^0,0,c
  6198  000F08  EF88  F007         	goto	u2921
  6199  000F0C  EF8A  F007         	goto	u2920
  6200  000F10                     u2921:
  6201  000F10  EF8E  F007         	goto	l3416
  6202  000F14                     u2920:
  6203  000F14  80D8               	bsf	status,0,c
  6204  000F16  363B               	rlcf	___fladd@grs^0,f,c
  6205  000F18  EF90  F007         	goto	l3418
  6206  000F1C                     l3416:
  6207  000F1C  90D8               	bcf	status,0,c
  6208  000F1E  363B               	rlcf	___fladd@grs^0,f,c
  6209  000F20                     l3418:
  6210  000F20  503A               	movf	___fladd@bexp^0,w,c
  6211  000F22  B4D8               	btfsc	status,2,c
  6212  000F24  EF96  F007         	goto	u2931
  6213  000F28  EF98  F007         	goto	u2930
  6214  000F2C                     u2931:
  6215  000F2C  EF99  F007         	goto	l3422
  6216  000F30                     u2930:
  6217  000F30  063A               	decf	___fladd@bexp^0,f,c
  6218  000F32                     l3422:
  6219  000F32  AE2E               	btfss	(___fladd@b+2)^0,7,c
  6220  000F34  EF9E  F007         	goto	u2941
  6221  000F38  EFA0  F007         	goto	u2940
  6222  000F3C                     u2941:
  6223  000F3C  EF76  F007         	goto	l3406
  6224  000F40                     u2940:
  6225  000F40                     l3424:
  6226  000F40  0E00               	movlw	0
  6227  000F42  6E39               	movwf	___fladd@aexp^0,c
  6228  000F44  AE3B               	btfss	___fladd@grs^0,7,c
  6229  000F46  EFA7  F007         	goto	u2951
  6230  000F4A  EFA9  F007         	goto	u2950
  6231  000F4E                     u2951:
  6232  000F4E  EFC1  F007         	goto	l1262
  6233  000F52                     u2950:
  6234  000F52  C03B  F034         	movff	___fladd@grs,??___fladd
  6235  000F56  0E7F               	movlw	127
  6236  000F58  1634               	andwf	??___fladd^0,f,c
  6237  000F5A  B4D8               	btfsc	status,2,c
  6238  000F5C  EFB2  F007         	goto	u2961
  6239  000F60  EFB4  F007         	goto	u2960
  6240  000F64                     u2961:
  6241  000F64  EFB8  F007         	goto	l1263
  6242  000F68                     u2960:
  6243  000F68                     l3430:
  6244  000F68  0E01               	movlw	1
  6245  000F6A  6E39               	movwf	___fladd@aexp^0,c
  6246  000F6C  EFC1  F007         	goto	l1262
  6247  000F70                     l1263:
  6248  000F70  A02C               	btfss	___fladd@b^0,0,c
  6249  000F72  EFBD  F007         	goto	u2971
  6250  000F76  EFBF  F007         	goto	u2970
  6251  000F7A                     u2971:
  6252  000F7A  EFC1  F007         	goto	l1262
  6253  000F7E                     u2970:
  6254  000F7E  EFB4  F007         	goto	l3430
  6255  000F82                     l1262:
  6256  000F82  5039               	movf	___fladd@aexp^0,w,c
  6257  000F84  B4D8               	btfsc	status,2,c
  6258  000F86  EFC7  F007         	goto	u2981
  6259  000F8A  EFC9  F007         	goto	u2980
  6260  000F8E                     u2981:
  6261  000F8E  EFF4  F007         	goto	l3442
  6262  000F92                     u2980:
  6263  000F92  0E01               	movlw	1
  6264  000F94  262C               	addwf	___fladd@b^0,f,c
  6265  000F96  0E00               	movlw	0
  6266  000F98  222D               	addwfc	(___fladd@b+1)^0,f,c
  6267  000F9A  222E               	addwfc	(___fladd@b+2)^0,f,c
  6268  000F9C  222F               	addwfc	(___fladd@b+3)^0,f,c
  6269  000F9E  A02F               	btfss	(___fladd@b+3)^0,0,c
  6270  000FA0  EFD4  F007         	goto	u2991
  6271  000FA4  EFD6  F007         	goto	u2990
  6272  000FA8                     u2991:
  6273  000FA8  EFF4  F007         	goto	l3442
  6274  000FAC                     u2990:
  6275  000FAC  C02C  F034         	movff	___fladd@b,??___fladd
  6276  000FB0  C02D  F035         	movff	___fladd@b+1,??___fladd+1
  6277  000FB4  C02E  F036         	movff	___fladd@b+2,??___fladd+2
  6278  000FB8  C02F  F037         	movff	___fladd@b+3,??___fladd+3
  6279  000FBC  3437               	rlcf	(??___fladd+3)^0,w,c
  6280  000FBE  3237               	rrcf	(??___fladd+3)^0,f,c
  6281  000FC0  3236               	rrcf	(??___fladd+2)^0,f,c
  6282  000FC2  3235               	rrcf	(??___fladd+1)^0,f,c
  6283  000FC4  3234               	rrcf	??___fladd^0,f,c
  6284  000FC6  C034  F02C         	movff	??___fladd,___fladd@b
  6285  000FCA  C035  F02D         	movff	??___fladd+1,___fladd@b+1
  6286  000FCE  C036  F02E         	movff	??___fladd+2,___fladd@b+2
  6287  000FD2  C037  F02F         	movff	??___fladd+3,___fladd@b+3
  6288  000FD6  283A               	incf	___fladd@bexp^0,w,c
  6289  000FD8  B4D8               	btfsc	status,2,c
  6290  000FDA  EFF1  F007         	goto	u3001
  6291  000FDE  EFF3  F007         	goto	u3000
  6292  000FE2                     u3001:
  6293  000FE2  EFF4  F007         	goto	l3442
  6294  000FE6                     u3000:
  6295  000FE6  2A3A               	incf	___fladd@bexp^0,f,c
  6296  000FE8                     l3442:
  6297  000FE8  283A               	incf	___fladd@bexp^0,w,c
  6298  000FEA  B4D8               	btfsc	status,2,c
  6299  000FEC  EFFA  F007         	goto	u3011
  6300  000FF0  EFFC  F007         	goto	u3010
  6301  000FF4                     u3011:
  6302  000FF4  EF04  F008         	goto	l3446
  6303  000FF8                     u3010:
  6304  000FF8  503A               	movf	___fladd@bexp^0,w,c
  6305  000FFA  A4D8               	btfss	status,2,c
  6306  000FFC  EF02  F008         	goto	u3021
  6307  001000  EF04  F008         	goto	u3020
  6308  001004                     u3021:
  6309  001004  EF16  F008         	goto	l3450
  6310  001008                     u3020:
  6311  001008                     l3446:
  6312  001008  0E00               	movlw	0
  6313  00100A  6E2C               	movwf	___fladd@b^0,c
  6314  00100C  0E00               	movlw	0
  6315  00100E  6E2D               	movwf	(___fladd@b+1)^0,c
  6316  001010  0E00               	movlw	0
  6317  001012  6E2E               	movwf	(___fladd@b+2)^0,c
  6318  001014  0E00               	movlw	0
  6319  001016  6E2F               	movwf	(___fladd@b+3)^0,c
  6320  001018  503A               	movf	___fladd@bexp^0,w,c
  6321  00101A  A4D8               	btfss	status,2,c
  6322  00101C  EF12  F008         	goto	u3031
  6323  001020  EF14  F008         	goto	u3030
  6324  001024                     u3031:
  6325  001024  EF16  F008         	goto	l3450
  6326  001028                     u3030:
  6327  001028  0E00               	movlw	0
  6328  00102A  6E38               	movwf	___fladd@signs^0,c
  6329  00102C                     l3450:
  6330  00102C  A03A               	btfss	___fladd@bexp^0,0,c
  6331  00102E  EF1B  F008         	goto	u3041
  6332  001032  EF1D  F008         	goto	u3040
  6333  001036                     u3041:
  6334  001036  EF20  F008         	goto	l3454
  6335  00103A                     u3040:
  6336  00103A  8E2E               	bsf	(___fladd@b+2)^0,7,c
  6337  00103C  EF21  F008         	goto	l3456
  6338  001040                     l3454:
  6339  001040  9E2E               	bcf	(___fladd@b+2)^0,7,c
  6340  001042                     l3456:
  6341  001042  90D8               	bcf	status,0,c
  6342  001044  303A               	rrcf	___fladd@bexp^0,w,c
  6343  001046  6E2F               	movwf	(___fladd@b+3)^0,c
  6344  001048  AE38               	btfss	___fladd@signs^0,7,c
  6345  00104A  EF29  F008         	goto	u3051
  6346  00104E  EF2B  F008         	goto	u3050
  6347  001052                     u3051:
  6348  001052  EF2C  F008         	goto	l3462
  6349  001056                     u3050:
  6350  001056  8E2F               	bsf	(___fladd@b+3)^0,7,c
  6351  001058                     l3462:
  6352  001058  C02C  F02C         	movff	___fladd@b,?___fladd
  6353  00105C  C02D  F02D         	movff	___fladd@b+1,?___fladd+1
  6354  001060  C02E  F02E         	movff	___fladd@b+2,?___fladd+2
  6355  001064  C02F  F02F         	movff	___fladd@b+3,?___fladd+3
  6356  001068                     l1245:
  6357  001068  0012               	return		;funcret
  6358  00106A                     __end_of___fladd:
  6359                           	opt callstack 0
  6360                           
  6361 ;; *************** function ___flmul *****************
  6362 ;; Defined at:
  6363 ;;		line 8 in file "C:\Program Files (x86)\Microchip\xc8\v2.10\pic\sources\c99\common\sprcmul.c"
  6364 ;; Parameters:    Size  Location     Type
  6365 ;;  b               4   18[COMRAM] unsigned char 
  6366 ;;  a               4   22[COMRAM] unsigned char 
  6367 ;; Auto vars:     Size  Location     Type
  6368 ;;  prod            4   37[COMRAM] struct .
  6369 ;;  grs             4   31[COMRAM] unsigned long 
  6370 ;;  temp            2   41[COMRAM] struct .
  6371 ;;  bexp            1   36[COMRAM] unsigned char 
  6372 ;;  aexp            1   35[COMRAM] unsigned char 
  6373 ;;  sign            1   30[COMRAM] unsigned char 
  6374 ;; Return value:  Size  Location     Type
  6375 ;;                  4   18[COMRAM] unsigned char 
  6376 ;; Registers used:
  6377 ;;		wreg, status,2, status,0, prodl, prodh
  6378 ;; Tracked objects:
  6379 ;;		On entry : 0/0
  6380 ;;		On exit  : 0/0
  6381 ;;		Unchanged: 0/0
  6382 ;; Data sizes:     COMRAM   BANK0   BANK1   BANK2   BANK3   BANK4   BANK5   BANK6   BANK7   BANK8   BANK9  BANK10  BANK1
      +1  BANK12  BANK13  BANK14  BANK15
  6383 ;;      Params:         8       0       0       0       0       0       0       0       0       0       0       0       
      +0       0       0       0       0
  6384 ;;      Locals:        13       0       0       0       0       0       0       0       0       0       0       0       
      +0       0       0       0       0
  6385 ;;      Temps:          4       0       0       0       0       0       0       0       0       0       0       0       
      +0       0       0       0       0
  6386 ;;      Totals:        25       0       0       0       0       0       0       0       0       0       0       0       
      +0       0       0       0       0
  6387 ;;Total ram usage:       25 bytes
  6388 ;; Hardware stack levels used:    1
  6389 ;; Hardware stack levels required when called:    3
  6390 ;; This function calls:
  6391 ;;		Nothing
  6392 ;; This function is called by:
  6393 ;;		_decodeBits
  6394 ;; This function uses a non-reentrant model
  6395 ;;
  6396                           
  6397                           	psect	text28
  6398  0014B8                     __ptext28:
  6399                           	opt callstack 0
  6400  0014B8                     ___flmul:
  6401                           	opt callstack 26
  6402  0014B8  5016               	movf	(___flmul@b+3)^0,w,c
  6403  0014BA  0B80               	andlw	128
  6404  0014BC  6E1F               	movwf	___flmul@sign^0,c
  6405  0014BE  5016               	movf	(___flmul@b+3)^0,w,c
  6406  0014C0  2416               	addwf	(___flmul@b+3)^0,w,c
  6407  0014C2  6E25               	movwf	___flmul@bexp^0,c
  6408  0014C4  AE15               	btfss	(___flmul@b+2)^0,7,c
  6409  0014C6  EF67  F00A         	goto	u3151
  6410  0014CA  EF69  F00A         	goto	u3150
  6411  0014CE                     u3151:
  6412  0014CE  EF6A  F00A         	goto	l3552
  6413  0014D2                     u3150:
  6414  0014D2  8025               	bsf	___flmul@bexp^0,0,c
  6415  0014D4                     l3552:
  6416  0014D4  5025               	movf	___flmul@bexp^0,w,c
  6417  0014D6  B4D8               	btfsc	status,2,c
  6418  0014D8  EF70  F00A         	goto	u3161
  6419  0014DC  EF72  F00A         	goto	u3160
  6420  0014E0                     u3161:
  6421  0014E0  EF85  F00A         	goto	l3560
  6422  0014E4                     u3160:
  6423  0014E4  2825               	incf	___flmul@bexp^0,w,c
  6424  0014E6  A4D8               	btfss	status,2,c
  6425  0014E8  EF78  F00A         	goto	u3171
  6426  0014EC  EF7A  F00A         	goto	u3170
  6427  0014F0                     u3171:
  6428  0014F0  EF82  F00A         	goto	l3558
  6429  0014F4                     u3170:
  6430  0014F4  0E00               	movlw	0
  6431  0014F6  6E13               	movwf	___flmul@b^0,c
  6432  0014F8  0E00               	movlw	0
  6433  0014FA  6E14               	movwf	(___flmul@b+1)^0,c
  6434  0014FC  0E00               	movlw	0
  6435  0014FE  6E15               	movwf	(___flmul@b+2)^0,c
  6436  001500  0E00               	movlw	0
  6437  001502  6E16               	movwf	(___flmul@b+3)^0,c
  6438  001504                     l3558:
  6439  001504  8E15               	bsf	(___flmul@b+2)^0,7,c
  6440  001506  EF8D  F00A         	goto	l3562
  6441  00150A                     l3560:
  6442  00150A  0E00               	movlw	0
  6443  00150C  6E13               	movwf	___flmul@b^0,c
  6444  00150E  0E00               	movlw	0
  6445  001510  6E14               	movwf	(___flmul@b+1)^0,c
  6446  001512  0E00               	movlw	0
  6447  001514  6E15               	movwf	(___flmul@b+2)^0,c
  6448  001516  0E00               	movlw	0
  6449  001518  6E16               	movwf	(___flmul@b+3)^0,c
  6450  00151A                     l3562:
  6451  00151A  501A               	movf	(___flmul@a+3)^0,w,c
  6452  00151C  0B80               	andlw	128
  6453  00151E  1A1F               	xorwf	___flmul@sign^0,f,c
  6454  001520  501A               	movf	(___flmul@a+3)^0,w,c
  6455  001522  241A               	addwf	(___flmul@a+3)^0,w,c
  6456  001524  6E24               	movwf	___flmul@aexp^0,c
  6457  001526  AE19               	btfss	(___flmul@a+2)^0,7,c
  6458  001528  EF98  F00A         	goto	u3181
  6459  00152C  EF9A  F00A         	goto	u3180
  6460  001530                     u3181:
  6461  001530  EF9B  F00A         	goto	l3570
  6462  001534                     u3180:
  6463  001534  8024               	bsf	___flmul@aexp^0,0,c
  6464  001536                     l3570:
  6465  001536  5024               	movf	___flmul@aexp^0,w,c
  6466  001538  B4D8               	btfsc	status,2,c
  6467  00153A  EFA1  F00A         	goto	u3191
  6468  00153E  EFA3  F00A         	goto	u3190
  6469  001542                     u3191:
  6470  001542  EFB6  F00A         	goto	l3578
  6471  001546                     u3190:
  6472  001546  2824               	incf	___flmul@aexp^0,w,c
  6473  001548  A4D8               	btfss	status,2,c
  6474  00154A  EFA9  F00A         	goto	u3201
  6475  00154E  EFAB  F00A         	goto	u3200
  6476  001552                     u3201:
  6477  001552  EFB3  F00A         	goto	l3576
  6478  001556                     u3200:
  6479  001556  0E00               	movlw	0
  6480  001558  6E17               	movwf	___flmul@a^0,c
  6481  00155A  0E00               	movlw	0
  6482  00155C  6E18               	movwf	(___flmul@a+1)^0,c
  6483  00155E  0E00               	movlw	0
  6484  001560  6E19               	movwf	(___flmul@a+2)^0,c
  6485  001562  0E00               	movlw	0
  6486  001564  6E1A               	movwf	(___flmul@a+3)^0,c
  6487  001566                     l3576:
  6488  001566  8E19               	bsf	(___flmul@a+2)^0,7,c
  6489  001568  EFBE  F00A         	goto	l1322
  6490  00156C                     l3578:
  6491  00156C  0E00               	movlw	0
  6492  00156E  6E17               	movwf	___flmul@a^0,c
  6493  001570  0E00               	movlw	0
  6494  001572  6E18               	movwf	(___flmul@a+1)^0,c
  6495  001574  0E00               	movlw	0
  6496  001576  6E19               	movwf	(___flmul@a+2)^0,c
  6497  001578  0E00               	movlw	0
  6498  00157A  6E1A               	movwf	(___flmul@a+3)^0,c
  6499  00157C                     l1322:
  6500  00157C  5024               	movf	___flmul@aexp^0,w,c
  6501  00157E  B4D8               	btfsc	status,2,c
  6502  001580  EFC4  F00A         	goto	u3211
  6503  001584  EFC6  F00A         	goto	u3210
  6504  001588                     u3211:
  6505  001588  EFCE  F00A         	goto	l3582
  6506  00158C                     u3210:
  6507  00158C  5025               	movf	___flmul@bexp^0,w,c
  6508  00158E  A4D8               	btfss	status,2,c
  6509  001590  EFCC  F00A         	goto	u3221
  6510  001594  EFCE  F00A         	goto	u3220
  6511  001598                     u3221:
  6512  001598  EFD8  F00A         	goto	l3586
  6513  00159C                     u3220:
  6514  00159C                     l3582:
  6515  00159C  0E00               	movlw	0
  6516  00159E  6E13               	movwf	?___flmul^0,c
  6517  0015A0  0E00               	movlw	0
  6518  0015A2  6E14               	movwf	(?___flmul+1)^0,c
  6519  0015A4  0E00               	movlw	0
  6520  0015A6  6E15               	movwf	(?___flmul+2)^0,c
  6521  0015A8  0E00               	movlw	0
  6522  0015AA  6E16               	movwf	(?___flmul+3)^0,c
  6523  0015AC  EF70  F00C         	goto	l1326
  6524  0015B0                     l3586:
  6525  0015B0  5019               	movf	(___flmul@a+2)^0,w,c
  6526  0015B2  0213               	mulwf	___flmul@b^0,c
  6527  0015B4  CFF3 F02A          	movff	prodl,___flmul@temp
  6528  0015B8  CFF4 F02B          	movff	prodh,___flmul@temp+1
  6529  0015BC  502A               	movf	___flmul@temp^0,w,c
  6530  0015BE  6E20               	movwf	___flmul@grs^0,c
  6531  0015C0  6A21               	clrf	(___flmul@grs+1)^0,c
  6532  0015C2  6A22               	clrf	(___flmul@grs+2)^0,c
  6533  0015C4  6A23               	clrf	(___flmul@grs+3)^0,c
  6534  0015C6  502B               	movf	(___flmul@temp+1)^0,w,c
  6535  0015C8  6E26               	movwf	___flmul@prod^0,c
  6536  0015CA  6A27               	clrf	(___flmul@prod+1)^0,c
  6537  0015CC  6A28               	clrf	(___flmul@prod+2)^0,c
  6538  0015CE  6A29               	clrf	(___flmul@prod+3)^0,c
  6539  0015D0  5018               	movf	(___flmul@a+1)^0,w,c
  6540  0015D2  0214               	mulwf	(___flmul@b+1)^0,c
  6541  0015D4  CFF3 F02A          	movff	prodl,___flmul@temp
  6542  0015D8  CFF4 F02B          	movff	prodh,___flmul@temp+1
  6543  0015DC  502A               	movf	___flmul@temp^0,w,c
  6544  0015DE  2620               	addwf	___flmul@grs^0,f,c
  6545  0015E0  0E00               	movlw	0
  6546  0015E2  2221               	addwfc	(___flmul@grs+1)^0,f,c
  6547  0015E4  2222               	addwfc	(___flmul@grs+2)^0,f,c
  6548  0015E6  2223               	addwfc	(___flmul@grs+3)^0,f,c
  6549  0015E8  502B               	movf	(___flmul@temp+1)^0,w,c
  6550  0015EA  2626               	addwf	___flmul@prod^0,f,c
  6551  0015EC  0E00               	movlw	0
  6552  0015EE  2227               	addwfc	(___flmul@prod+1)^0,f,c
  6553  0015F0  2228               	addwfc	(___flmul@prod+2)^0,f,c
  6554  0015F2  2229               	addwfc	(___flmul@prod+3)^0,f,c
  6555  0015F4  5017               	movf	___flmul@a^0,w,c
  6556  0015F6  0215               	mulwf	(___flmul@b+2)^0,c
  6557  0015F8  CFF3 F02A          	movff	prodl,___flmul@temp
  6558  0015FC  CFF4 F02B          	movff	prodh,___flmul@temp+1
  6559  001600  502A               	movf	___flmul@temp^0,w,c
  6560  001602  2620               	addwf	___flmul@grs^0,f,c
  6561  001604  0E00               	movlw	0
  6562  001606  2221               	addwfc	(___flmul@grs+1)^0,f,c
  6563  001608  2222               	addwfc	(___flmul@grs+2)^0,f,c
  6564  00160A  2223               	addwfc	(___flmul@grs+3)^0,f,c
  6565  00160C  502B               	movf	(___flmul@temp+1)^0,w,c
  6566  00160E  2626               	addwf	___flmul@prod^0,f,c
  6567  001610  0E00               	movlw	0
  6568  001612  2227               	addwfc	(___flmul@prod+1)^0,f,c
  6569  001614  2228               	addwfc	(___flmul@prod+2)^0,f,c
  6570  001616  2229               	addwfc	(___flmul@prod+3)^0,f,c
  6571  001618  C022  F023         	movff	___flmul@grs+2,___flmul@grs+3
  6572  00161C  C021  F022         	movff	___flmul@grs+1,___flmul@grs+2
  6573  001620  C020  F021         	movff	___flmul@grs,___flmul@grs+1
  6574  001624  6A20               	clrf	___flmul@grs^0,c
  6575  001626  5017               	movf	___flmul@a^0,w,c
  6576  001628  0214               	mulwf	(___flmul@b+1)^0,c
  6577  00162A  CFF3 F02A          	movff	prodl,___flmul@temp
  6578  00162E  CFF4 F02B          	movff	prodh,___flmul@temp+1
  6579  001632  502A               	movf	___flmul@temp^0,w,c
  6580  001634  2620               	addwf	___flmul@grs^0,f,c
  6581  001636  502B               	movf	(___flmul@temp+1)^0,w,c
  6582  001638  2221               	addwfc	(___flmul@grs+1)^0,f,c
  6583  00163A  0E00               	movlw	0
  6584  00163C  2222               	addwfc	(___flmul@grs+2)^0,f,c
  6585  00163E  0E00               	movlw	0
  6586  001640  2223               	addwfc	(___flmul@grs+3)^0,f,c
  6587  001642  5018               	movf	(___flmul@a+1)^0,w,c
  6588  001644  0213               	mulwf	___flmul@b^0,c
  6589  001646  CFF3 F02A          	movff	prodl,___flmul@temp
  6590  00164A  CFF4 F02B          	movff	prodh,___flmul@temp+1
  6591  00164E  502A               	movf	___flmul@temp^0,w,c
  6592  001650  2620               	addwf	___flmul@grs^0,f,c
  6593  001652  502B               	movf	(___flmul@temp+1)^0,w,c
  6594  001654  2221               	addwfc	(___flmul@grs+1)^0,f,c
  6595  001656  0E00               	movlw	0
  6596  001658  2222               	addwfc	(___flmul@grs+2)^0,f,c
  6597  00165A  0E00               	movlw	0
  6598  00165C  2223               	addwfc	(___flmul@grs+3)^0,f,c
  6599  00165E  C022  F023         	movff	___flmul@grs+2,___flmul@grs+3
  6600  001662  C021  F022         	movff	___flmul@grs+1,___flmul@grs+2
  6601  001666  C020  F021         	movff	___flmul@grs,___flmul@grs+1
  6602  00166A  6A20               	clrf	___flmul@grs^0,c
  6603  00166C  5017               	movf	___flmul@a^0,w,c
  6604  00166E  0213               	mulwf	___flmul@b^0,c
  6605  001670  CFF3 F02A          	movff	prodl,___flmul@temp
  6606  001674  CFF4 F02B          	movff	prodh,___flmul@temp+1
  6607  001678  502A               	movf	___flmul@temp^0,w,c
  6608  00167A  2620               	addwf	___flmul@grs^0,f,c
  6609  00167C  502B               	movf	(___flmul@temp+1)^0,w,c
  6610  00167E  2221               	addwfc	(___flmul@grs+1)^0,f,c
  6611  001680  0E00               	movlw	0
  6612  001682  2222               	addwfc	(___flmul@grs+2)^0,f,c
  6613  001684  0E00               	movlw	0
  6614  001686  2223               	addwfc	(___flmul@grs+3)^0,f,c
  6615  001688  5019               	movf	(___flmul@a+2)^0,w,c
  6616  00168A  0214               	mulwf	(___flmul@b+1)^0,c
  6617  00168C  CFF3 F02A          	movff	prodl,___flmul@temp
  6618  001690  CFF4 F02B          	movff	prodh,___flmul@temp+1
  6619  001694  502A               	movf	___flmul@temp^0,w,c
  6620  001696  2626               	addwf	___flmul@prod^0,f,c
  6621  001698  502B               	movf	(___flmul@temp+1)^0,w,c
  6622  00169A  2227               	addwfc	(___flmul@prod+1)^0,f,c
  6623  00169C  0E00               	movlw	0
  6624  00169E  2228               	addwfc	(___flmul@prod+2)^0,f,c
  6625  0016A0  0E00               	movlw	0
  6626  0016A2  2229               	addwfc	(___flmul@prod+3)^0,f,c
  6627  0016A4  5018               	movf	(___flmul@a+1)^0,w,c
  6628  0016A6  0215               	mulwf	(___flmul@b+2)^0,c
  6629  0016A8  CFF3 F02A          	movff	prodl,___flmul@temp
  6630  0016AC  CFF4 F02B          	movff	prodh,___flmul@temp+1
  6631  0016B0  502A               	movf	___flmul@temp^0,w,c
  6632  0016B2  2626               	addwf	___flmul@prod^0,f,c
  6633  0016B4  502B               	movf	(___flmul@temp+1)^0,w,c
  6634  0016B6  2227               	addwfc	(___flmul@prod+1)^0,f,c
  6635  0016B8  0E00               	movlw	0
  6636  0016BA  2228               	addwfc	(___flmul@prod+2)^0,f,c
  6637  0016BC  0E00               	movlw	0
  6638  0016BE  2229               	addwfc	(___flmul@prod+3)^0,f,c
  6639  0016C0  5019               	movf	(___flmul@a+2)^0,w,c
  6640  0016C2  0215               	mulwf	(___flmul@b+2)^0,c
  6641  0016C4  CFF3 F02A          	movff	prodl,___flmul@temp
  6642  0016C8  CFF4 F02B          	movff	prodh,___flmul@temp+1
  6643  0016CC  502A               	movf	___flmul@temp^0,w,c
  6644  0016CE  6E1B               	movwf	??___flmul^0,c
  6645  0016D0  502B               	movf	(___flmul@temp+1)^0,w,c
  6646  0016D2  6E1C               	movwf	(??___flmul+1)^0,c
  6647  0016D4  6A1D               	clrf	(??___flmul+2)^0,c
  6648  0016D6  6A1E               	clrf	(??___flmul+3)^0,c
  6649  0016D8  C01D  F01E         	movff	??___flmul+2,??___flmul+3
  6650  0016DC  C01C  F01D         	movff	??___flmul+1,??___flmul+2
  6651  0016E0  C01B  F01C         	movff	??___flmul,??___flmul+1
  6652  0016E4  6A1B               	clrf	??___flmul^0,c
  6653  0016E6  501B               	movf	??___flmul^0,w,c
  6654  0016E8  2626               	addwf	___flmul@prod^0,f,c
  6655  0016EA  501C               	movf	(??___flmul+1)^0,w,c
  6656  0016EC  2227               	addwfc	(___flmul@prod+1)^0,f,c
  6657  0016EE  501D               	movf	(??___flmul+2)^0,w,c
  6658  0016F0  2228               	addwfc	(___flmul@prod+2)^0,f,c
  6659  0016F2  501E               	movf	(??___flmul+3)^0,w,c
  6660  0016F4  2229               	addwfc	(___flmul@prod+3)^0,f,c
  6661  0016F6  C020  F01B         	movff	___flmul@grs,??___flmul
  6662  0016FA  C021  F01C         	movff	___flmul@grs+1,??___flmul+1
  6663  0016FE  C022  F01D         	movff	___flmul@grs+2,??___flmul+2
  6664  001702  C023  F01E         	movff	___flmul@grs+3,??___flmul+3
  6665  001706  0E19               	movlw	25
  6666  001708  EF8B  F00B         	goto	u3230
  6667  00170C                     u3235:
  6668  00170C  90D8               	bcf	status,0,c
  6669  00170E  321E               	rrcf	(??___flmul+3)^0,f,c
  6670  001710  321D               	rrcf	(??___flmul+2)^0,f,c
  6671  001712  321C               	rrcf	(??___flmul+1)^0,f,c
  6672  001714  321B               	rrcf	??___flmul^0,f,c
  6673  001716                     u3230:
  6674  001716  2EE8               	decfsz	wreg,f,c
  6675  001718  EF86  F00B         	goto	u3235
  6676  00171C  501B               	movf	??___flmul^0,w,c
  6677  00171E  2626               	addwf	___flmul@prod^0,f,c
  6678  001720  501C               	movf	(??___flmul+1)^0,w,c
  6679  001722  2227               	addwfc	(___flmul@prod+1)^0,f,c
  6680  001724  501D               	movf	(??___flmul+2)^0,w,c
  6681  001726  2228               	addwfc	(___flmul@prod+2)^0,f,c
  6682  001728  501E               	movf	(??___flmul+3)^0,w,c
  6683  00172A  2229               	addwfc	(___flmul@prod+3)^0,f,c
  6684  00172C  C022  F023         	movff	___flmul@grs+2,___flmul@grs+3
  6685  001730  C021  F022         	movff	___flmul@grs+1,___flmul@grs+2
  6686  001734  C020  F021         	movff	___flmul@grs,___flmul@grs+1
  6687  001738  6A20               	clrf	___flmul@grs^0,c
  6688  00173A  5024               	movf	___flmul@aexp^0,w,c
  6689  00173C  C025  F01B         	movff	___flmul@bexp,??___flmul
  6690  001740  6A1C               	clrf	(??___flmul+1)^0,c
  6691  001742  261B               	addwf	??___flmul^0,f,c
  6692  001744  0E00               	movlw	0
  6693  001746  221C               	addwfc	(??___flmul+1)^0,f,c
  6694  001748  0E82               	movlw	130
  6695  00174A  241B               	addwf	??___flmul^0,w,c
  6696  00174C  6E2A               	movwf	___flmul@temp^0,c
  6697  00174E  0EFF               	movlw	255
  6698  001750  201C               	addwfc	(??___flmul+1)^0,w,c
  6699  001752  6E2B               	movwf	(___flmul@temp+1)^0,c
  6700  001754  EFC1  F00B         	goto	l3634
  6701  001758                     l3628:
  6702  001758  90D8               	bcf	status,0,c
  6703  00175A  3626               	rlcf	___flmul@prod^0,f,c
  6704  00175C  3627               	rlcf	(___flmul@prod+1)^0,f,c
  6705  00175E  3628               	rlcf	(___flmul@prod+2)^0,f,c
  6706  001760  3629               	rlcf	(___flmul@prod+3)^0,f,c
  6707  001762  AE23               	btfss	(___flmul@grs+3)^0,7,c
  6708  001764  EFB6  F00B         	goto	u3241
  6709  001768  EFB8  F00B         	goto	u3240
  6710  00176C                     u3241:
  6711  00176C  EFB9  F00B         	goto	l1329
  6712  001770                     u3240:
  6713  001770  8026               	bsf	___flmul@prod^0,0,c
  6714  001772                     l1329:
  6715  001772  90D8               	bcf	status,0,c
  6716  001774  3620               	rlcf	___flmul@grs^0,f,c
  6717  001776  3621               	rlcf	(___flmul@grs+1)^0,f,c
  6718  001778  3622               	rlcf	(___flmul@grs+2)^0,f,c
  6719  00177A  3623               	rlcf	(___flmul@grs+3)^0,f,c
  6720  00177C  062A               	decf	___flmul@temp^0,f,c
  6721  00177E  A0D8               	btfss	status,0,c
  6722  001780  062B               	decf	(___flmul@temp+1)^0,f,c
  6723  001782                     l3634:
  6724  001782  AE28               	btfss	(___flmul@prod+2)^0,7,c
  6725  001784  EFC6  F00B         	goto	u3251
  6726  001788  EFC8  F00B         	goto	u3250
  6727  00178C                     u3251:
  6728  00178C  EFAC  F00B         	goto	l3628
  6729  001790                     u3250:
  6730  001790  0E00               	movlw	0
  6731  001792  6E24               	movwf	___flmul@aexp^0,c
  6732  001794  AE23               	btfss	(___flmul@grs+3)^0,7,c
  6733  001796  EFCF  F00B         	goto	u3261
  6734  00179A  EFD1  F00B         	goto	u3260
  6735  00179E                     u3261:
  6736  00179E  EFF5  F00B         	goto	l1331
  6737  0017A2                     u3260:
  6738  0017A2  0EFF               	movlw	255
  6739  0017A4  1420               	andwf	___flmul@grs^0,w,c
  6740  0017A6  6E1B               	movwf	??___flmul^0,c
  6741  0017A8  0EFF               	movlw	255
  6742  0017AA  1421               	andwf	(___flmul@grs+1)^0,w,c
  6743  0017AC  6E1C               	movwf	(??___flmul+1)^0,c
  6744  0017AE  0EFF               	movlw	255
  6745  0017B0  1422               	andwf	(___flmul@grs+2)^0,w,c
  6746  0017B2  6E1D               	movwf	(??___flmul+2)^0,c
  6747  0017B4  0E7F               	movlw	127
  6748  0017B6  1423               	andwf	(___flmul@grs+3)^0,w,c
  6749  0017B8  6E1E               	movwf	(??___flmul+3)^0,c
  6750  0017BA  501B               	movf	??___flmul^0,w,c
  6751  0017BC  101C               	iorwf	(??___flmul+1)^0,w,c
  6752  0017BE  101D               	iorwf	(??___flmul+2)^0,w,c
  6753  0017C0  101E               	iorwf	(??___flmul+3)^0,w,c
  6754  0017C2  B4D8               	btfsc	status,2,c
  6755  0017C4  EFE6  F00B         	goto	u3271
  6756  0017C8  EFE8  F00B         	goto	u3270
  6757  0017CC                     u3271:
  6758  0017CC  EFEC  F00B         	goto	l1332
  6759  0017D0                     u3270:
  6760  0017D0                     l3642:
  6761  0017D0  0E01               	movlw	1
  6762  0017D2  6E24               	movwf	___flmul@aexp^0,c
  6763  0017D4  EFF5  F00B         	goto	l1331
  6764  0017D8                     l1332:
  6765  0017D8  A026               	btfss	___flmul@prod^0,0,c
  6766  0017DA  EFF1  F00B         	goto	u3281
  6767  0017DE  EFF3  F00B         	goto	u3280
  6768  0017E2                     u3281:
  6769  0017E2  EFF5  F00B         	goto	l1331
  6770  0017E6                     u3280:
  6771  0017E6  EFE8  F00B         	goto	l3642
  6772  0017EA                     l1331:
  6773  0017EA  5024               	movf	___flmul@aexp^0,w,c
  6774  0017EC  B4D8               	btfsc	status,2,c
  6775  0017EE  EFFB  F00B         	goto	u3291
  6776  0017F2  EFFD  F00B         	goto	u3290
  6777  0017F6                     u3291:
  6778  0017F6  EF21  F00C         	goto	l3654
  6779  0017FA                     u3290:
  6780  0017FA  0E01               	movlw	1
  6781  0017FC  2626               	addwf	___flmul@prod^0,f,c
  6782  0017FE  0E00               	movlw	0
  6783  001800  2227               	addwfc	(___flmul@prod+1)^0,f,c
  6784  001802  2228               	addwfc	(___flmul@prod+2)^0,f,c
  6785  001804  2229               	addwfc	(___flmul@prod+3)^0,f,c
  6786  001806  A029               	btfss	(___flmul@prod+3)^0,0,c
  6787  001808  EF08  F00C         	goto	u3301
  6788  00180C  EF0A  F00C         	goto	u3300
  6789  001810                     u3301:
  6790  001810  EF21  F00C         	goto	l3654
  6791  001814                     u3300:
  6792  001814  C026  F01B         	movff	___flmul@prod,??___flmul
  6793  001818  C027  F01C         	movff	___flmul@prod+1,??___flmul+1
  6794  00181C  C028  F01D         	movff	___flmul@prod+2,??___flmul+2
  6795  001820  C029  F01E         	movff	___flmul@prod+3,??___flmul+3
  6796  001824  341E               	rlcf	(??___flmul+3)^0,w,c
  6797  001826  321E               	rrcf	(??___flmul+3)^0,f,c
  6798  001828  321D               	rrcf	(??___flmul+2)^0,f,c
  6799  00182A  321C               	rrcf	(??___flmul+1)^0,f,c
  6800  00182C  321B               	rrcf	??___flmul^0,f,c
  6801  00182E  C01B  F026         	movff	??___flmul,___flmul@prod
  6802  001832  C01C  F027         	movff	??___flmul+1,___flmul@prod+1
  6803  001836  C01D  F028         	movff	??___flmul+2,___flmul@prod+2
  6804  00183A  C01E  F029         	movff	??___flmul+3,___flmul@prod+3
  6805  00183E  4A2A               	infsnz	___flmul@temp^0,f,c
  6806  001840  2A2B               	incf	(___flmul@temp+1)^0,f,c
  6807  001842                     l3654:
  6808  001842  BE2B               	btfsc	(___flmul@temp+1)^0,7,c
  6809  001844  EF2C  F00C         	goto	u3311
  6810  001848  502B               	movf	(___flmul@temp+1)^0,w,c
  6811  00184A  E108               	bnz	u3310
  6812  00184C  282A               	incf	___flmul@temp^0,w,c
  6813  00184E  A0D8               	btfss	status,0,c
  6814  001850  EF2C  F00C         	goto	u3311
  6815  001854  EF2E  F00C         	goto	u3310
  6816  001858                     u3311:
  6817  001858  EF38  F00C         	goto	l3658
  6818  00185C                     u3310:
  6819  00185C  0E00               	movlw	0
  6820  00185E  6E26               	movwf	___flmul@prod^0,c
  6821  001860  0E00               	movlw	0
  6822  001862  6E27               	movwf	(___flmul@prod+1)^0,c
  6823  001864  0E80               	movlw	128
  6824  001866  6E28               	movwf	(___flmul@prod+2)^0,c
  6825  001868  0E7F               	movlw	127
  6826  00186A  6E29               	movwf	(___flmul@prod+3)^0,c
  6827  00186C  EF66  F00C         	goto	l3670
  6828  001870                     l3658:
  6829  001870  BE2B               	btfsc	(___flmul@temp+1)^0,7,c
  6830  001872  EF45  F00C         	goto	u3320
  6831  001876  502B               	movf	(___flmul@temp+1)^0,w,c
  6832  001878  E106               	bnz	u3321
  6833  00187A  042A               	decf	___flmul@temp^0,w,c
  6834  00187C  B0D8               	btfsc	status,0,c
  6835  00187E  EF43  F00C         	goto	u3321
  6836  001882  EF45  F00C         	goto	u3320
  6837  001886                     u3321:
  6838  001886  EF51  F00C         	goto	l1339
  6839  00188A                     u3320:
  6840  00188A  0E00               	movlw	0
  6841  00188C  6E26               	movwf	___flmul@prod^0,c
  6842  00188E  0E00               	movlw	0
  6843  001890  6E27               	movwf	(___flmul@prod+1)^0,c
  6844  001892  0E00               	movlw	0
  6845  001894  6E28               	movwf	(___flmul@prod+2)^0,c
  6846  001896  0E00               	movlw	0
  6847  001898  6E29               	movwf	(___flmul@prod+3)^0,c
  6848  00189A  0E00               	movlw	0
  6849  00189C  6E1F               	movwf	___flmul@sign^0,c
  6850  00189E  EF66  F00C         	goto	l3670
  6851  0018A2                     l1339:
  6852  0018A2  C02A  F025         	movff	___flmul@temp,___flmul@bexp
  6853  0018A6  0EFF               	movlw	255
  6854  0018A8  1626               	andwf	___flmul@prod^0,f,c
  6855  0018AA  0EFF               	movlw	255
  6856  0018AC  1627               	andwf	(___flmul@prod+1)^0,f,c
  6857  0018AE  0E7F               	movlw	127
  6858  0018B0  1628               	andwf	(___flmul@prod+2)^0,f,c
  6859  0018B2  0E00               	movlw	0
  6860  0018B4  1629               	andwf	(___flmul@prod+3)^0,f,c
  6861  0018B6  A025               	btfss	___flmul@bexp^0,0,c
  6862  0018B8  EF60  F00C         	goto	u3331
  6863  0018BC  EF62  F00C         	goto	u3330
  6864  0018C0                     u3331:
  6865  0018C0  EF63  F00C         	goto	l3668
  6866  0018C4                     u3330:
  6867  0018C4  8E28               	bsf	(___flmul@prod+2)^0,7,c
  6868  0018C6                     l3668:
  6869  0018C6  90D8               	bcf	status,0,c
  6870  0018C8  3025               	rrcf	___flmul@bexp^0,w,c
  6871  0018CA  6E29               	movwf	(___flmul@prod+3)^0,c
  6872  0018CC                     l3670:
  6873  0018CC  501F               	movf	___flmul@sign^0,w,c
  6874  0018CE  1229               	iorwf	(___flmul@prod+3)^0,f,c
  6875  0018D0  C026  F013         	movff	___flmul@prod,?___flmul
  6876  0018D4  C027  F014         	movff	___flmul@prod+1,?___flmul+1
  6877  0018D8  C028  F015         	movff	___flmul@prod+2,?___flmul+2
  6878  0018DC  C029  F016         	movff	___flmul@prod+3,?___flmul+3
  6879  0018E0                     l1326:
  6880  0018E0  0012               	return		;funcret
  6881  0018E2                     __end_of___flmul:
  6882                           	opt callstack 0
  6883                           
  6884 ;; *************** function ___flge *****************
  6885 ;; Defined at:
  6886 ;;		line 4 in file "C:\Program Files (x86)\Microchip\xc8\v2.10\pic\sources\c99\common\flge.c"
  6887 ;; Parameters:    Size  Location     Type
  6888 ;;  ff1             4   67[COMRAM] unsigned char 
  6889 ;;  ff2             4   71[COMRAM] unsigned char 
  6890 ;; Auto vars:     Size  Location     Type
  6891 ;;		None
  6892 ;; Return value:  Size  Location     Type
  6893 ;;		None               void
  6894 ;; Registers used:
  6895 ;;		wreg, status,2, status,0
  6896 ;; Tracked objects:
  6897 ;;		On entry : 0/0
  6898 ;;		On exit  : 0/0
  6899 ;;		Unchanged: 0/0
  6900 ;; Data sizes:     COMRAM   BANK0   BANK1   BANK2   BANK3   BANK4   BANK5   BANK6   BANK7   BANK8   BANK9  BANK10  BANK1
      +1  BANK12  BANK13  BANK14  BANK15
  6901 ;;      Params:         8       0       0       0       0       0       0       0       0       0       0       0       
      +0       0       0       0       0
  6902 ;;      Locals:         0       0       0       0       0       0       0       0       0       0       0       0       
      +0       0       0       0       0
  6903 ;;      Temps:          4       0       0       0       0       0       0       0       0       0       0       0       
      +0       0       0       0       0
  6904 ;;      Totals:        12       0       0       0       0       0       0       0       0       0       0       0       
      +0       0       0       0       0
  6905 ;;Total ram usage:       12 bytes
  6906 ;; Hardware stack levels used:    1
  6907 ;; Hardware stack levels required when called:    3
  6908 ;; This function calls:
  6909 ;;		Nothing
  6910 ;; This function is called by:
  6911 ;;		_decodeBits
  6912 ;; This function uses a non-reentrant model
  6913 ;;
  6914                           
  6915                           	psect	text29
  6916  00226E                     __ptext29:
  6917                           	opt callstack 0
  6918  00226E                     ___flge:
  6919                           	opt callstack 26
  6920  00226E  0E00               	movlw	0
  6921  002270  1444               	andwf	___flge@ff1^0,w,c
  6922  002272  6E4C               	movwf	??___flge^0,c
  6923  002274  0E00               	movlw	0
  6924  002276  1445               	andwf	(___flge@ff1+1)^0,w,c
  6925  002278  6E4D               	movwf	(??___flge+1)^0,c
  6926  00227A  0E80               	movlw	128
  6927  00227C  1446               	andwf	(___flge@ff1+2)^0,w,c
  6928  00227E  6E4E               	movwf	(??___flge+2)^0,c
  6929  002280  0E7F               	movlw	127
  6930  002282  1447               	andwf	(___flge@ff1+3)^0,w,c
  6931  002284  6E4F               	movwf	(??___flge+3)^0,c
  6932  002286  504C               	movf	??___flge^0,w,c
  6933  002288  104D               	iorwf	(??___flge+1)^0,w,c
  6934  00228A  104E               	iorwf	(??___flge+2)^0,w,c
  6935  00228C  104F               	iorwf	(??___flge+3)^0,w,c
  6936  00228E  A4D8               	btfss	status,2,c
  6937  002290  EF4C  F011         	goto	u3341
  6938  002294  EF4E  F011         	goto	u3340
  6939  002298                     u3341:
  6940  002298  EF56  F011         	goto	l3686
  6941  00229C                     u3340:
  6942  00229C  0E00               	movlw	0
  6943  00229E  6E44               	movwf	___flge@ff1^0,c
  6944  0022A0  0E00               	movlw	0
  6945  0022A2  6E45               	movwf	(___flge@ff1+1)^0,c
  6946  0022A4  0E00               	movlw	0
  6947  0022A6  6E46               	movwf	(___flge@ff1+2)^0,c
  6948  0022A8  0E00               	movlw	0
  6949  0022AA  6E47               	movwf	(___flge@ff1+3)^0,c
  6950  0022AC                     l3686:
  6951  0022AC  0E00               	movlw	0
  6952  0022AE  1448               	andwf	___flge@ff2^0,w,c
  6953  0022B0  6E4C               	movwf	??___flge^0,c
  6954  0022B2  0E00               	movlw	0
  6955  0022B4  1449               	andwf	(___flge@ff2+1)^0,w,c
  6956  0022B6  6E4D               	movwf	(??___flge+1)^0,c
  6957  0022B8  0E80               	movlw	128
  6958  0022BA  144A               	andwf	(___flge@ff2+2)^0,w,c
  6959  0022BC  6E4E               	movwf	(??___flge+2)^0,c
  6960  0022BE  0E7F               	movlw	127
  6961  0022C0  144B               	andwf	(___flge@ff2+3)^0,w,c
  6962  0022C2  6E4F               	movwf	(??___flge+3)^0,c
  6963  0022C4  504C               	movf	??___flge^0,w,c
  6964  0022C6  104D               	iorwf	(??___flge+1)^0,w,c
  6965  0022C8  104E               	iorwf	(??___flge+2)^0,w,c
  6966  0022CA  104F               	iorwf	(??___flge+3)^0,w,c
  6967  0022CC  A4D8               	btfss	status,2,c
  6968  0022CE  EF6B  F011         	goto	u3351
  6969  0022D2  EF6D  F011         	goto	u3350
  6970  0022D6                     u3351:
  6971  0022D6  EF75  F011         	goto	l3690
  6972  0022DA                     u3350:
  6973  0022DA  0E00               	movlw	0
  6974  0022DC  6E48               	movwf	___flge@ff2^0,c
  6975  0022DE  0E00               	movlw	0
  6976  0022E0  6E49               	movwf	(___flge@ff2+1)^0,c
  6977  0022E2  0E00               	movlw	0
  6978  0022E4  6E4A               	movwf	(___flge@ff2+2)^0,c
  6979  0022E6  0E00               	movlw	0
  6980  0022E8  6E4B               	movwf	(___flge@ff2+3)^0,c
  6981  0022EA                     l3690:
  6982  0022EA  AE47               	btfss	(___flge@ff1+3)^0,7,c
  6983  0022EC  EF7A  F011         	goto	u3361
  6984  0022F0  EF7C  F011         	goto	u3360
  6985  0022F4                     u3361:
  6986  0022F4  EF85  F011         	goto	l3694
  6987  0022F8                     u3360:
  6988  0022F8  6C44               	negf	___flge@ff1^0,c
  6989  0022FA  1E45               	comf	(___flge@ff1+1)^0,f,c
  6990  0022FC  B0D8               	btfsc	status,0,c
  6991  0022FE  2A45               	incf	(___flge@ff1+1)^0,f,c
  6992  002300  1E46               	comf	(___flge@ff1+2)^0,f,c
  6993  002302  B0D8               	btfsc	status,0,c
  6994  002304  2A46               	incf	(___flge@ff1+2)^0,f,c
  6995  002306  0E80               	movlw	128
  6996  002308  5647               	subfwb	(___flge@ff1+3)^0,f,c
  6997  00230A                     l3694:
  6998  00230A  AE4B               	btfss	(___flge@ff2+3)^0,7,c
  6999  00230C  EF8A  F011         	goto	u3371
  7000  002310  EF8C  F011         	goto	u3370
  7001  002314                     u3371:
  7002  002314  EF95  F011         	goto	l973
  7003  002318                     u3370:
  7004  002318  6C48               	negf	___flge@ff2^0,c
  7005  00231A  1E49               	comf	(___flge@ff2+1)^0,f,c
  7006  00231C  B0D8               	btfsc	status,0,c
  7007  00231E  2A49               	incf	(___flge@ff2+1)^0,f,c
  7008  002320  1E4A               	comf	(___flge@ff2+2)^0,f,c
  7009  002322  B0D8               	btfsc	status,0,c
  7010  002324  2A4A               	incf	(___flge@ff2+2)^0,f,c
  7011  002326  0E80               	movlw	128
  7012  002328  564B               	subfwb	(___flge@ff2+3)^0,f,c
  7013  00232A                     l973:
  7014  00232A  0E00               	movlw	0
  7015  00232C  1A44               	xorwf	___flge@ff1^0,f,c
  7016  00232E  0E00               	movlw	0
  7017  002330  1A45               	xorwf	(___flge@ff1+1)^0,f,c
  7018  002332  0E00               	movlw	0
  7019  002334  1A46               	xorwf	(___flge@ff1+2)^0,f,c
  7020  002336  0E80               	movlw	128
  7021  002338  1A47               	xorwf	(___flge@ff1+3)^0,f,c
  7022  00233A  0E00               	movlw	0
  7023  00233C  1A48               	xorwf	___flge@ff2^0,f,c
  7024  00233E  0E00               	movlw	0
  7025  002340  1A49               	xorwf	(___flge@ff2+1)^0,f,c
  7026  002342  0E00               	movlw	0
  7027  002344  1A4A               	xorwf	(___flge@ff2+2)^0,f,c
  7028  002346  0E80               	movlw	128
  7029  002348  1A4B               	xorwf	(___flge@ff2+3)^0,f,c
  7030  00234A  5048               	movf	___flge@ff2^0,w,c
  7031  00234C  5C44               	subwf	___flge@ff1^0,w,c
  7032  00234E  5049               	movf	(___flge@ff2+1)^0,w,c
  7033  002350  5845               	subwfb	(___flge@ff1+1)^0,w,c
  7034  002352  504A               	movf	(___flge@ff2+2)^0,w,c
  7035  002354  5846               	subwfb	(___flge@ff1+2)^0,w,c
  7036  002356  504B               	movf	(___flge@ff2+3)^0,w,c
  7037  002358  5847               	subwfb	(___flge@ff1+3)^0,w,c
  7038  00235A  B0D8               	btfsc	status,0,c
  7039  00235C  EFB2  F011         	goto	u3381
  7040  002360  EFB4  F011         	goto	u3380
  7041  002364                     u3381:
  7042  002364  EFB7  F011         	goto	l3700
  7043  002368                     u3380:
  7044  002368  90D8               	bcf	status,0,c
  7045  00236A  EFB8  F011         	goto	l978
  7046  00236E                     l3700:
  7047  00236E  80D8               	bsf	status,0,c
  7048  002370                     l978:
  7049  002370  0012               	return		;funcret
  7050  002372                     __end_of___flge:
  7051                           	opt callstack 0
  7052                           
  7053 ;; *************** function _binaryPrint *****************
  7054 ;; Defined at:
  7055 ;;		line 111 in file "func.c"
  7056 ;; Parameters:    Size  Location     Type
  7057 ;;  value           4   37[BANK0 ] unsigned long 
  7058 ;; Auto vars:     Size  Location     Type
  7059 ;;  i               2   45[BANK0 ] int 
  7060 ;; Return value:  Size  Location     Type
  7061 ;;                  1    wreg      void 
  7062 ;; Registers used:
  7063 ;;		wreg, fsr1l, fsr1h, fsr2l, fsr2h, status,2, status,0, tblptrl, tblptrh, tblptru, cstack
  7064 ;; Tracked objects:
  7065 ;;		On entry : 0/0
  7066 ;;		On exit  : 0/0
  7067 ;;		Unchanged: 0/0
  7068 ;; Data sizes:     COMRAM   BANK0   BANK1   BANK2   BANK3   BANK4   BANK5   BANK6   BANK7   BANK8   BANK9  BANK10  BANK1
      +1  BANK12  BANK13  BANK14  BANK15
  7069 ;;      Params:         0       4       0       0       0       0       0       0       0       0       0       0       
      +0       0       0       0       0
  7070 ;;      Locals:         0       2       0       0       0       0       0       0       0       0       0       0       
      +0       0       0       0       0
  7071 ;;      Temps:          0       4       0       0       0       0       0       0       0       0       0       0       
      +0       0       0       0       0
  7072 ;;      Totals:         0      10       0       0       0       0       0       0       0       0       0       0       
      +0       0       0       0       0
  7073 ;;Total ram usage:       10 bytes
  7074 ;; Hardware stack levels used:    1
  7075 ;; Hardware stack levels required when called:   12
  7076 ;; This function calls:
  7077 ;;		_printf
  7078 ;; This function is called by:
  7079 ;;		_main
  7080 ;; This function uses a non-reentrant model
  7081 ;;
  7082                           
  7083                           	psect	text30
  7084  002938                     __ptext30:
  7085                           	opt callstack 0
  7086  002938                     _binaryPrint:
  7087                           	opt callstack 18
  7088  002938                     
  7089                           ;func.c: 112:     for(int i = 31; i >= 0; i--) {
  7090  002938  0E00               	movlw	0
  7091  00293A  0100               	movlb	0	; () banked
  7092  00293C  6FDA               	movwf	(binaryPrint@i+1)& (0+255),b
  7093  00293E  0E1F               	movlw	31
  7094  002940  6FD9               	movwf	binaryPrint@i& (0+255),b
  7095  002942                     l4688:
  7096                           
  7097                           ; BSR set to: 0
  7098                           ;func.c: 113:         printf("%u", (value>>i) % 2);
  7099  002942  0EF8               	movlw	low STR_34
  7100  002944  6FBB               	movwf	printf@fmt& (0+255),b
  7101  002946  0EFF               	movlw	high STR_34
  7102  002948  6FBC               	movwf	(printf@fmt+1)& (0+255),b
  7103  00294A  51D9               	movf	binaryPrint@i& (0+255),w,b
  7104  00294C  C0D1  F0D5         	movff	binaryPrint@value,??_binaryPrint
  7105  002950  C0D2  F0D6         	movff	binaryPrint@value+1,??_binaryPrint+1
  7106  002954  C0D3  F0D7         	movff	binaryPrint@value+2,??_binaryPrint+2
  7107  002958  C0D4  F0D8         	movff	binaryPrint@value+3,??_binaryPrint+3
  7108  00295C  2AE8               	incf	wreg,f,c
  7109  00295E  EFB6  F014         	goto	u4730
  7110  002962                     u4735:
  7111  002962  90D8               	bcf	status,0,c
  7112  002964  33D8               	rrcf	(??_binaryPrint+3)& (0+255),f,b
  7113  002966  33D7               	rrcf	(??_binaryPrint+2)& (0+255),f,b
  7114  002968  33D6               	rrcf	(??_binaryPrint+1)& (0+255),f,b
  7115  00296A  33D5               	rrcf	??_binaryPrint& (0+255),f,b
  7116  00296C                     u4730:
  7117  00296C  2EE8               	decfsz	wreg,f,c
  7118  00296E  EFB1  F014         	goto	u4735
  7119  002972  0E01               	movlw	1
  7120  002974  15D5               	andwf	??_binaryPrint& (0+255),w,b
  7121  002976  6FBD               	movwf	(?_printf+2)& (0+255),b
  7122  002978  0E00               	movlw	0
  7123  00297A  15D6               	andwf	(??_binaryPrint+1)& (0+255),w,b
  7124  00297C  6FBE               	movwf	(?_printf+3)& (0+255),b
  7125  00297E  0E00               	movlw	0
  7126  002980  15D7               	andwf	(??_binaryPrint+2)& (0+255),w,b
  7127  002982  6FBF               	movwf	(?_printf+4)& (0+255),b
  7128  002984  0E00               	movlw	0
  7129  002986  15D8               	andwf	(??_binaryPrint+3)& (0+255),w,b
  7130  002988  6FC0               	movwf	(?_printf+5)& (0+255),b
  7131  00298A  EC04  F017         	call	_printf	;wreg free
  7132  00298E                     
  7133                           ;func.c: 114:     }
  7134  00298E  0100               	movlb	0	; () banked
  7135  002990  07D9               	decf	binaryPrint@i& (0+255),f,b
  7136  002992  A0D8               	btfss	status,0,c
  7137  002994  07DA               	decf	(binaryPrint@i+1)& (0+255),f,b
  7138  002996                     
  7139                           ; BSR set to: 0
  7140  002996  BFDA               	btfsc	(binaryPrint@i+1)& (0+255),7,b
  7141  002998  EFD2  F014         	goto	u4740
  7142  00299C  EFD0  F014         	goto	u4741
  7143  0029A0                     u4741:
  7144  0029A0  EFA1  F014         	goto	l4688
  7145  0029A4                     u4740:
  7146  0029A4                     
  7147                           ; BSR set to: 0
  7148                           ;func.c: 115:     printf("\r\n");
  7149  0029A4  0EB6               	movlw	low (STR_9+11)
  7150  0029A6  6FBB               	movwf	printf@fmt& (0+255),b
  7151  0029A8  0EFF               	movlw	high (STR_9+11)
  7152  0029AA  6FBC               	movwf	(printf@fmt+1)& (0+255),b
  7153  0029AC  EC04  F017         	call	_printf	;wreg free
  7154  0029B0  0012               	return		;funcret
  7155  0029B2                     __end_of_binaryPrint:
  7156                           	opt callstack 0
  7157                           
  7158 ;; *************** function _printf *****************
  7159 ;; Defined at:
  7160 ;;		line 5 in file "C:\Program Files (x86)\Microchip\xc8\v2.10\pic\sources\c99\common\printf.c"
  7161 ;; Parameters:    Size  Location     Type
  7162 ;;  fmt             2   15[BANK0 ] PTR const unsigned char 
  7163 ;;		 -> STR_35(3), STR_34(3), STR_33(248), STR_32(3), 
  7164 ;;		 -> STR_31(2), STR_30(2), STR_29(8), STR_28(407), 
  7165 ;;		 -> STR_27(17), STR_26(2), STR_25(2), STR_24(8), 
  7166 ;;		 -> STR_23(5), STR_22(50), STR_21(65), STR_20(16), 
  7167 ;;		 -> STR_19(15), STR_18(24), STR_17(9), STR_16(32), 
  7168 ;;		 -> STR_15(30), STR_14(11), STR_13(13), STR_12(80), 
  7169 ;;		 -> STR_11(33), STR_10(32), STR_9(14), STR_8(22), 
  7170 ;;		 -> STR_7(26), STR_6(13), STR_5(36), STR_4(40), 
  7171 ;;		 -> STR_3(31), STR_2(30), STR_1(64), 
  7172 ;; Auto vars:     Size  Location     Type
  7173 ;;  ap              2   35[BANK0 ] PTR void [1]
  7174 ;;		 -> ?_printf(2), 
  7175 ;;  ret             2    0        int 
  7176 ;; Return value:  Size  Location     Type
  7177 ;;                  2   15[BANK0 ] int 
  7178 ;; Registers used:
  7179 ;;		wreg, fsr1l, fsr1h, fsr2l, fsr2h, status,2, status,0, tblptrl, tblptrh, tblptru, cstack
  7180 ;; Tracked objects:
  7181 ;;		On entry : 0/0
  7182 ;;		On exit  : 0/0
  7183 ;;		Unchanged: 0/0
  7184 ;; Data sizes:     COMRAM   BANK0   BANK1   BANK2   BANK3   BANK4   BANK5   BANK6   BANK7   BANK8   BANK9  BANK10  BANK1
      +1  BANK12  BANK13  BANK14  BANK15
  7185 ;;      Params:         0      18       0       0       0       0       0       0       0       0       0       0       
      +0       0       0       0       0
  7186 ;;      Locals:         0       4       0       0       0       0       0       0       0       0       0       0       
      +0       0       0       0       0
  7187 ;;      Temps:          0       0       0       0       0       0       0       0       0       0       0       0       
      +0       0       0       0       0
  7188 ;;      Totals:         0      22       0       0       0       0       0       0       0       0       0       0       
      +0       0       0       0       0
  7189 ;;Total ram usage:       22 bytes
  7190 ;; Hardware stack levels used:    1
  7191 ;; Hardware stack levels required when called:   11
  7192 ;; This function calls:
  7193 ;;		_vfprintf
  7194 ;; This function is called by:
  7195 ;;		_main
  7196 ;;		_initializeAll
  7197 ;;		_generalCases
  7198 ;;		_printMenu
  7199 ;;		_recordDurations
  7200 ;;		_decodeBits
  7201 ;;		_printSevenDurations
  7202 ;;		_binaryPrint
  7203 ;; This function uses a non-reentrant model
  7204 ;;
  7205                           
  7206                           	psect	text31
  7207  002E08                     __ptext31:
  7208                           	opt callstack 0
  7209  002E08                     _printf:
  7210                           	opt callstack 18
  7211  002E08  0EBD               	movlw	low (?_printf+2)
  7212  002E0A  0100               	movlb	0	; () banked
  7213  002E0C  6FCF               	movwf	printf@ap& (0+255),b
  7214  002E0E  0E00               	movlw	high (?_printf+2)
  7215  002E10  6FD0               	movwf	(printf@ap+1)& (0+255),b
  7216  002E12                     
  7217                           ; BSR set to: 0
  7218  002E12  0E00               	movlw	0
  7219  002E14  6FB5               	movwf	vfprintf@fp& (0+255),b
  7220  002E16  0E00               	movlw	0
  7221  002E18  6FB6               	movwf	(vfprintf@fp+1)& (0+255),b
  7222  002E1A  C0BB  F0B7         	movff	printf@fmt,vfprintf@fmt
  7223  002E1E  C0BC  F0B8         	movff	printf@fmt+1,vfprintf@fmt+1
  7224  002E22  0ECF               	movlw	low printf@ap
  7225  002E24  6FB9               	movwf	vfprintf@ap& (0+255),b
  7226  002E26  0E00               	movlw	high printf@ap
  7227  002E28  6FBA               	movwf	(vfprintf@ap+1)& (0+255),b
  7228  002E2A  ECD9  F014         	call	_vfprintf	;wreg free
  7229  002E2E  0012               	return		;funcret
  7230  002E30                     __end_of_printf:
  7231                           	opt callstack 0
  7232                           
  7233 ;; *************** function _vfprintf *****************
  7234 ;; Defined at:
  7235 ;;		line 1368 in file "C:\Program Files (x86)\Microchip\xc8\v2.10\pic\sources\c99\common\doprnt.c"
  7236 ;; Parameters:    Size  Location     Type
  7237 ;;  fp              2    9[BANK0 ] PTR struct _IO_FILE
  7238 ;;		 -> NULL(0), 
  7239 ;;  fmt             2   11[BANK0 ] PTR const unsigned char 
  7240 ;;		 -> STR_35(3), STR_34(3), STR_33(248), STR_32(3), 
  7241 ;;		 -> STR_31(2), STR_30(2), STR_29(8), STR_28(407), 
  7242 ;;		 -> STR_27(17), STR_26(2), STR_25(2), STR_24(8), 
  7243 ;;		 -> STR_23(5), STR_22(50), STR_21(65), STR_20(16), 
  7244 ;;		 -> STR_19(15), STR_18(24), STR_17(9), STR_16(32), 
  7245 ;;		 -> STR_15(30), STR_14(11), STR_13(13), STR_12(80), 
  7246 ;;		 -> STR_11(33), STR_10(32), STR_9(14), STR_8(22), 
  7247 ;;		 -> STR_7(26), STR_6(13), STR_5(36), STR_4(40), 
  7248 ;;		 -> STR_3(31), STR_2(30), STR_1(64), 
  7249 ;;  ap              2   13[BANK0 ] PTR PTR void 
  7250 ;;		 -> printf@ap(2), 
  7251 ;; Auto vars:     Size  Location     Type
  7252 ;;  cfmt            2   84[COMRAM] PTR unsigned char 
  7253 ;;		 -> STR_35(3), STR_34(3), STR_33(248), STR_32(3), 
  7254 ;;		 -> STR_31(2), STR_30(2), STR_29(8), STR_28(407), 
  7255 ;;		 -> STR_27(17), STR_26(2), STR_25(2), STR_24(8), 
  7256 ;;		 -> STR_23(5), STR_22(50), STR_21(65), STR_20(16), 
  7257 ;;		 -> STR_19(15), STR_18(24), STR_17(9), STR_16(32), 
  7258 ;;		 -> STR_15(30), STR_14(11), STR_13(13), STR_12(80), 
  7259 ;;		 -> STR_11(33), STR_10(32), STR_9(14), STR_8(22), 
  7260 ;;		 -> STR_7(26), STR_6(13), STR_5(36), STR_4(40), 
  7261 ;;		 -> STR_3(31), STR_2(30), STR_1(64), 
  7262 ;; Return value:  Size  Location     Type
  7263 ;;                  2    9[BANK0 ] int 
  7264 ;; Registers used:
  7265 ;;		wreg, fsr1l, fsr1h, fsr2l, fsr2h, status,2, status,0, tblptrl, tblptrh, tblptru, cstack
  7266 ;; Tracked objects:
  7267 ;;		On entry : 0/0
  7268 ;;		On exit  : 0/0
  7269 ;;		Unchanged: 0/0
  7270 ;; Data sizes:     COMRAM   BANK0   BANK1   BANK2   BANK3   BANK4   BANK5   BANK6   BANK7   BANK8   BANK9  BANK10  BANK1
      +1  BANK12  BANK13  BANK14  BANK15
  7271 ;;      Params:         0       6       0       0       0       0       0       0       0       0       0       0       
      +0       0       0       0       0
  7272 ;;      Locals:         2       0       0       0       0       0       0       0       0       0       0       0       
      +0       0       0       0       0
  7273 ;;      Temps:          0       0       0       0       0       0       0       0       0       0       0       0       
      +0       0       0       0       0
  7274 ;;      Totals:         2       6       0       0       0       0       0       0       0       0       0       0       
      +0       0       0       0       0
  7275 ;;Total ram usage:        8 bytes
  7276 ;; Hardware stack levels used:    1
  7277 ;; Hardware stack levels required when called:   10
  7278 ;; This function calls:
  7279 ;;		_vfpfcnvrt
  7280 ;; This function is called by:
  7281 ;;		_printf
  7282 ;; This function uses a non-reentrant model
  7283 ;;
  7284                           
  7285                           	psect	text32
  7286  0029B2                     __ptext32:
  7287                           	opt callstack 0
  7288  0029B2                     _vfprintf:
  7289                           	opt callstack 18
  7290  0029B2                     
  7291                           ;C:\Program Files (x86)\Microchip\xc8\v2.10\pic\sources\c99\common\doprnt.c: 1368: int v
      +                          fprintf(FILE *fp, const char *fmt, va_list ap);C:\Program Files (x86)\Microchip\xc8\v2.1
      +                          0\pic\sources\c99\common\doprnt.c: 1369: {;C:\Program Files (x86)\Microchip\xc8\v2.10\pi
      +                          c\sources\c99\common\doprnt.c: 1371:     char *cfmt;;C:\Program Files (x86)\Microchip\xc
      +                          8\v2.10\pic\sources\c99\common\doprnt.c: 1373:     cfmt = (char *)fmt;
  7292  0029B2  C0B7  F055         	movff	vfprintf@fmt,vfprintf@cfmt
  7293  0029B6  C0B8  F056         	movff	vfprintf@fmt+1,vfprintf@cfmt+1
  7294  0029BA                     
  7295                           ;C:\Program Files (x86)\Microchip\xc8\v2.10\pic\sources\c99\common\doprnt.c: 1374:     n
      +                          out = 0;
  7296  0029BA  0E00               	movlw	0
  7297  0029BC  0100               	movlb	0	; () banked
  7298  0029BE  6F75               	movwf	(_nout+1)& (0+255),b
  7299  0029C0  0E00               	movlw	0
  7300  0029C2  6F74               	movwf	_nout& (0+255),b
  7301                           
  7302                           ;C:\Program Files (x86)\Microchip\xc8\v2.10\pic\sources\c99\common\doprnt.c: 1375:     w
      +                          hile (*cfmt) {
  7303  0029C4  EFF7  F014         	goto	l4570
  7304  0029C8                     l4568:
  7305                           
  7306                           ; BSR set to: 0
  7307                           ;C:\Program Files (x86)\Microchip\xc8\v2.10\pic\sources\c99\common\doprnt.c: 1376:      
      +                             nout += vfpfcnvrt(fp, &cfmt, ap);
  7308  0029C8  C0B5  F049         	movff	vfprintf@fp,vfpfcnvrt@fp
  7309  0029CC  C0B6  F04A         	movff	vfprintf@fp+1,vfpfcnvrt@fp+1
  7310  0029D0  0E55               	movlw	low vfprintf@cfmt
  7311  0029D2  6E4B               	movwf	vfpfcnvrt@fmt^0,c
  7312  0029D4  0E00               	movlw	high vfprintf@cfmt
  7313  0029D6  6E4C               	movwf	(vfpfcnvrt@fmt+1)^0,c
  7314  0029D8  C0B9  F04D         	movff	vfprintf@ap,vfpfcnvrt@ap
  7315  0029DC  C0BA  F04E         	movff	vfprintf@ap+1,vfpfcnvrt@ap+1
  7316  0029E0  EC5F  F003         	call	_vfpfcnvrt	;wreg free
  7317  0029E4  5049               	movf	?_vfpfcnvrt^0,w,c
  7318  0029E6  0100               	movlb	0	; () banked
  7319  0029E8  2774               	addwf	_nout& (0+255),f,b
  7320  0029EA  504A               	movf	(?_vfpfcnvrt+1)^0,w,c
  7321  0029EC  2375               	addwfc	(_nout+1)& (0+255),f,b
  7322  0029EE                     l4570:
  7323                           
  7324                           ; BSR set to: 0
  7325                           ;C:\Program Files (x86)\Microchip\xc8\v2.10\pic\sources\c99\common\doprnt.c: 1375:     w
      +                          hile (*cfmt) {
  7326  0029EE  C055  FFF6         	movff	vfprintf@cfmt,tblptrl
  7327  0029F2  C056  FFF7         	movff	vfprintf@cfmt+1,tblptrh
  7328  0029F6                     	if	1	;Program memory is < 0x10000, tblptru is always zero
  7329  0029F6  6AF8               	clrf	tblptru,c
  7330  0029F8                     	endif
  7331  0029F8                     	if	0	;tblptru may be non-zero
  7332  0029F8                     	endif
  7333  0029F8  0008               	tblrd		*
  7334  0029FA  50F5               	movf	tablat,w,c
  7335  0029FC  0900               	iorlw	0
  7336  0029FE  A4D8               	btfss	status,2,c
  7337  002A00  EF04  F015         	goto	u4571
  7338  002A04  EF06  F015         	goto	u4570
  7339  002A08                     u4571:
  7340  002A08  EFE4  F014         	goto	l4568
  7341  002A0C                     u4570:
  7342  002A0C                     
  7343                           ; BSR set to: 0
  7344                           ;C:\Program Files (x86)\Microchip\xc8\v2.10\pic\sources\c99\common\doprnt.c: 1378:     r
      +                          eturn nout;
  7345  002A0C  C074  F0B5         	movff	_nout,?_vfprintf
  7346  002A10  C075  F0B6         	movff	_nout+1,?_vfprintf+1
  7347  002A14                     
  7348                           ; BSR set to: 0
  7349  002A14  0012               	return		;funcret
  7350  002A16                     __end_of_vfprintf:
  7351                           	opt callstack 0
  7352                           
  7353 ;; *************** function _vfpfcnvrt *****************
  7354 ;; Defined at:
  7355 ;;		line 670 in file "C:\Program Files (x86)\Microchip\xc8\v2.10\pic\sources\c99\common\doprnt.c"
  7356 ;; Parameters:    Size  Location     Type
  7357 ;;  fp              2   72[COMRAM] PTR struct _IO_FILE
  7358 ;;		 -> NULL(0), 
  7359 ;;  fmt             2   74[COMRAM] PTR PTR unsigned char 
  7360 ;;		 -> vfprintf@cfmt(2), 
  7361 ;;  ap              2   76[COMRAM] PTR PTR void 
  7362 ;;		 -> printf@ap(2), 
  7363 ;; Auto vars:     Size  Location     Type
  7364 ;;  llu             8    1[BANK0 ] unsigned long long 
  7365 ;;  ll              8    0        long long 
  7366 ;;  f               4    0        long long 
  7367 ;;  vp              3    0        PTR void 
  7368 ;;  ct              3    0        unsigned char [3]
  7369 ;;  cp              3    0        PTR unsigned char 
  7370 ;;  i               2    0        int 
  7371 ;;  done            2    0        int 
  7372 ;;  c               1    0[BANK0 ] unsigned char 
  7373 ;; Return value:  Size  Location     Type
  7374 ;;                  2   72[COMRAM] int 
  7375 ;; Registers used:
  7376 ;;		wreg, fsr1l, fsr1h, fsr2l, fsr2h, status,2, status,0, tblptrl, tblptrh, tblptru, cstack
  7377 ;; Tracked objects:
  7378 ;;		On entry : 0/0
  7379 ;;		On exit  : 0/0
  7380 ;;		Unchanged: 0/0
  7381 ;; Data sizes:     COMRAM   BANK0   BANK1   BANK2   BANK3   BANK4   BANK5   BANK6   BANK7   BANK8   BANK9  BANK10  BANK1
      +1  BANK12  BANK13  BANK14  BANK15
  7382 ;;      Params:         6       0       0       0       0       0       0       0       0       0       0       0       
      +0       0       0       0       0
  7383 ;;      Locals:         0       9       0       0       0       0       0       0       0       0       0       0       
      +0       0       0       0       0
  7384 ;;      Temps:          6       0       0       0       0       0       0       0       0       0       0       0       
      +0       0       0       0       0
  7385 ;;      Totals:        12       9       0       0       0       0       0       0       0       0       0       0       
      +0       0       0       0       0
  7386 ;;Total ram usage:       21 bytes
  7387 ;; Hardware stack levels used:    1
  7388 ;; Hardware stack levels required when called:    9
  7389 ;; This function calls:
  7390 ;;		_ctoa
  7391 ;;		_fputc
  7392 ;;		_strncmp
  7393 ;;		_utoa
  7394 ;;		_xtoa
  7395 ;; This function is called by:
  7396 ;;		_vfprintf
  7397 ;; This function uses a non-reentrant model
  7398 ;;
  7399                           
  7400                           	psect	text33
  7401  0006BE                     __ptext33:
  7402                           	opt callstack 0
  7403  0006BE                     _vfpfcnvrt:
  7404                           	opt callstack 18
  7405  0006BE                     
  7406                           ;C:\Program Files (x86)\Microchip\xc8\v2.10\pic\sources\c99\common\doprnt.c: 670: static
      +                           int vfpfcnvrt(FILE *fp, char *fmt[], va_list ap);C:\Program Files (x86)\Microchip\xc8\v
      +                          2.10\pic\sources\c99\common\doprnt.c: 671: {;C:\Program Files (x86)\Microchip\xc8\v2.10\
      +                          pic\sources\c99\common\doprnt.c: 672:     char c, *cp, ct[3];;C:\Program Files (x86)\Mic
      +                          rochip\xc8\v2.10\pic\sources\c99\common\doprnt.c: 673:     int done, i;;C:\Program Files
      +                           (x86)\Microchip\xc8\v2.10\pic\sources\c99\common\doprnt.c: 674:     long long ll;
  7407  0006BE  C04B  FFD9         	movff	vfpfcnvrt@fmt,fsr2l
  7408  0006C2  C04C  FFDA         	movff	vfpfcnvrt@fmt+1,fsr2h
  7409  0006C6  CFDE FFF6          	movff	postinc2,tblptrl
  7410  0006CA  CFDD FFF7          	movff	postdec2,tblptrh
  7411  0006CE                     	if	1	;Program memory is < 0x10000, tblptru is always zero
  7412  0006CE  6AF8               	clrf	tblptru,c
  7413  0006D0                     	endif
  7414  0006D0                     	if	0	;tblptru may be non-zero
  7415  0006D0                     	endif
  7416  0006D0  0008               	tblrd		*
  7417  0006D2  50F5               	movf	tablat,w,c
  7418  0006D4  0A25               	xorlw	37
  7419  0006D6  A4D8               	btfss	status,2,c
  7420  0006D8  EF70  F003         	goto	u4481
  7421  0006DC  EF72  F003         	goto	u4480
  7422  0006E0                     u4481:
  7423  0006E0  EFB8  F005         	goto	l4556
  7424  0006E4                     u4480:
  7425  0006E4                     
  7426                           ;C:\Program Files (x86)\Microchip\xc8\v2.10\pic\sources\c99\common\doprnt.c: 681:       
      +                            ++*fmt;
  7427  0006E4  C04B  FFD9         	movff	vfpfcnvrt@fmt,fsr2l
  7428  0006E8  C04C  FFDA         	movff	vfpfcnvrt@fmt+1,fsr2h
  7429  0006EC  2ADE               	incf	postinc2,f,c
  7430  0006EE  0E00               	movlw	0
  7431  0006F0  22DD               	addwfc	postdec2,f,c
  7432  0006F2                     
  7433                           ;C:\Program Files (x86)\Microchip\xc8\v2.10\pic\sources\c99\common\doprnt.c: 683:       
      +                            flags = width = 0;
  7434  0006F2  0E00               	movlw	0
  7435  0006F4  0100               	movlb	0	; () banked
  7436  0006F6  6F77               	movwf	(_width+1)& (0+255),b
  7437  0006F8  0E00               	movlw	0
  7438  0006FA  6F76               	movwf	_width& (0+255),b
  7439  0006FC  C076  F059         	movff	_width,_flags
  7440  000700  C077  F05A         	movff	_width+1,_flags+1
  7441  000704                     
  7442                           ; BSR set to: 0
  7443                           ;C:\Program Files (x86)\Microchip\xc8\v2.10\pic\sources\c99\common\doprnt.c: 684:       
      +                            prec = -1;
  7444  000704  6857               	setf	_prec^0,c
  7445  000706  6858               	setf	(_prec+1)^0,c
  7446  000708                     
  7447                           ; BSR set to: 0
  7448                           ;C:\Program Files (x86)\Microchip\xc8\v2.10\pic\sources\c99\common\doprnt.c: 792:       
      +                            if (*fmt[0] == 'c') {
  7449  000708  C04B  FFD9         	movff	vfpfcnvrt@fmt,fsr2l
  7450  00070C  C04C  FFDA         	movff	vfpfcnvrt@fmt+1,fsr2h
  7451  000710  CFDE FFF6          	movff	postinc2,tblptrl
  7452  000714  CFDD FFF7          	movff	postdec2,tblptrh
  7453  000718                     	if	1	;Program memory is < 0x10000, tblptru is always zero
  7454  000718  6AF8               	clrf	tblptru,c
  7455  00071A                     	endif
  7456  00071A                     	if	0	;tblptru may be non-zero
  7457  00071A                     	endif
  7458  00071A  0008               	tblrd		*
  7459  00071C  50F5               	movf	tablat,w,c
  7460  00071E  0A63               	xorlw	99
  7461  000720  A4D8               	btfss	status,2,c
  7462  000722  EF95  F003         	goto	u4491
  7463  000726  EF97  F003         	goto	u4490
  7464  00072A                     u4491:
  7465  00072A  EFBE  F003         	goto	l4496
  7466  00072E                     u4490:
  7467  00072E                     
  7468                           ; BSR set to: 0
  7469                           ;C:\Program Files (x86)\Microchip\xc8\v2.10\pic\sources\c99\common\doprnt.c: 793:       
      +                                ++*fmt;
  7470  00072E  C04B  FFD9         	movff	vfpfcnvrt@fmt,fsr2l
  7471  000732  C04C  FFDA         	movff	vfpfcnvrt@fmt+1,fsr2h
  7472  000736  2ADE               	incf	postinc2,f,c
  7473  000738  0E00               	movlw	0
  7474  00073A  22DD               	addwfc	postdec2,f,c
  7475                           
  7476                           ;C:\Program Files (x86)\Microchip\xc8\v2.10\pic\sources\c99\common\doprnt.c: 794:       
      +                                c = (unsigned char)(*(int *)__va_arg(*(int **)ap, (int)0));
  7477  00073C  C04D  FFD9         	movff	vfpfcnvrt@ap,fsr2l
  7478  000740  C04E  FFDA         	movff	vfpfcnvrt@ap+1,fsr2h
  7479  000744  CFDF F04F          	movff	indf2,??_vfpfcnvrt
  7480  000748  0E02               	movlw	2
  7481  00074A  26DE               	addwf	postinc2,f,c
  7482  00074C  CFDF F050          	movff	indf2,??_vfpfcnvrt+1
  7483  000750  0E00               	movlw	0
  7484  000752  22DD               	addwfc	postdec2,f,c
  7485  000754  C04F  FFD9         	movff	??_vfpfcnvrt,fsr2l
  7486  000758  C050  FFDA         	movff	??_vfpfcnvrt+1,fsr2h
  7487  00075C  50DF               	movf	indf2,w,c
  7488  00075E  6FAC               	movwf	vfpfcnvrt@c& (0+255),b
  7489  000760                     
  7490                           ; BSR set to: 0
  7491                           ;C:\Program Files (x86)\Microchip\xc8\v2.10\pic\sources\c99\common\doprnt.c: 795:       
      +                                return ctoa(fp, c);
  7492  000760  C049  F022         	movff	vfpfcnvrt@fp,ctoa@fp
  7493  000764  C04A  F023         	movff	vfpfcnvrt@fp+1,ctoa@fp+1
  7494  000768  C0AC  F024         	movff	vfpfcnvrt@c,ctoa@c
  7495  00076C  EC3A  F015         	call	_ctoa	;wreg free
  7496  000770  C022  F049         	movff	?_ctoa,?_vfpfcnvrt
  7497  000774  C023  F04A         	movff	?_ctoa+1,?_vfpfcnvrt+1
  7498  000778  EFD4  F005         	goto	l690
  7499  00077C                     l4496:
  7500                           
  7501                           ; BSR set to: 0
  7502                           ;C:\Program Files (x86)\Microchip\xc8\v2.10\pic\sources\c99\common\doprnt.c: 1182:      
      +                             if (*fmt[0] == 'u') {
  7503  00077C  C04B  FFD9         	movff	vfpfcnvrt@fmt,fsr2l
  7504  000780  C04C  FFDA         	movff	vfpfcnvrt@fmt+1,fsr2h
  7505  000784  CFDE FFF6          	movff	postinc2,tblptrl
  7506  000788  CFDD FFF7          	movff	postdec2,tblptrh
  7507  00078C                     	if	1	;Program memory is < 0x10000, tblptru is always zero
  7508  00078C  6AF8               	clrf	tblptru,c
  7509  00078E                     	endif
  7510  00078E                     	if	0	;tblptru may be non-zero
  7511  00078E                     	endif
  7512  00078E  0008               	tblrd		*
  7513  000790  50F5               	movf	tablat,w,c
  7514  000792  0A75               	xorlw	117
  7515  000794  A4D8               	btfss	status,2,c
  7516  000796  EFCF  F003         	goto	u4501
  7517  00079A  EFD1  F003         	goto	u4500
  7518  00079E                     u4501:
  7519  00079E  EF12  F004         	goto	l4504
  7520  0007A2                     u4500:
  7521  0007A2                     
  7522                           ; BSR set to: 0
  7523                           ;C:\Program Files (x86)\Microchip\xc8\v2.10\pic\sources\c99\common\doprnt.c: 1184:      
      +                                 ++*fmt;
  7524  0007A2  C04B  FFD9         	movff	vfpfcnvrt@fmt,fsr2l
  7525  0007A6  C04C  FFDA         	movff	vfpfcnvrt@fmt+1,fsr2h
  7526  0007AA  2ADE               	incf	postinc2,f,c
  7527  0007AC  0E00               	movlw	0
  7528  0007AE  22DD               	addwfc	postdec2,f,c
  7529                           
  7530                           ;C:\Program Files (x86)\Microchip\xc8\v2.10\pic\sources\c99\common\doprnt.c: 1185:      
      +                                 llu = (unsigned long long)(*(unsigned int *)__va_arg(*(unsigned int **)ap, (unsig
      +                          ned int)0));
  7531  0007B0  C04D  FFD9         	movff	vfpfcnvrt@ap,fsr2l
  7532  0007B4  C04E  FFDA         	movff	vfpfcnvrt@ap+1,fsr2h
  7533  0007B8  CFDF F04F          	movff	indf2,??_vfpfcnvrt
  7534  0007BC  0E02               	movlw	2
  7535  0007BE  26DE               	addwf	postinc2,f,c
  7536  0007C0  CFDF F050          	movff	indf2,??_vfpfcnvrt+1
  7537  0007C4  0E00               	movlw	0
  7538  0007C6  22DD               	addwfc	postdec2,f,c
  7539  0007C8  C04F  FFD9         	movff	??_vfpfcnvrt,fsr2l
  7540  0007CC  C050  FFDA         	movff	??_vfpfcnvrt+1,fsr2h
  7541  0007D0  CFDE F051          	movff	postinc2,??_vfpfcnvrt+2
  7542  0007D4  CFDD F052          	movff	postdec2,??_vfpfcnvrt+3
  7543  0007D8  C051  F0AD         	movff	??_vfpfcnvrt+2,vfpfcnvrt@llu
  7544  0007DC  C052  F0AE         	movff	??_vfpfcnvrt+3,vfpfcnvrt@llu+1
  7545  0007E0  6BAF               	clrf	(vfpfcnvrt@llu+2)& (0+255),b
  7546  0007E2  6BB0               	clrf	(vfpfcnvrt@llu+3)& (0+255),b
  7547  0007E4  6BB1               	clrf	(vfpfcnvrt@llu+4)& (0+255),b
  7548  0007E6  6BB2               	clrf	(vfpfcnvrt@llu+5)& (0+255),b
  7549  0007E8  6BB3               	clrf	(vfpfcnvrt@llu+6)& (0+255),b
  7550  0007EA  6BB4               	clrf	(vfpfcnvrt@llu+7)& (0+255),b
  7551  0007EC                     
  7552                           ; BSR set to: 0
  7553                           ;C:\Program Files (x86)\Microchip\xc8\v2.10\pic\sources\c99\common\doprnt.c: 1187:      
      +                                 return utoa(fp, llu);
  7554  0007EC  C049  F022         	movff	vfpfcnvrt@fp,utoa@fp
  7555  0007F0  C04A  F023         	movff	vfpfcnvrt@fp+1,utoa@fp+1
  7556  0007F4  C0AD  F024         	movff	vfpfcnvrt@llu,utoa@d
  7557  0007F8  C0AE  F025         	movff	vfpfcnvrt@llu+1,utoa@d+1
  7558  0007FC  C0AF  F026         	movff	vfpfcnvrt@llu+2,utoa@d+2
  7559  000800  C0B0  F027         	movff	vfpfcnvrt@llu+3,utoa@d+3
  7560  000804  C0B1  F028         	movff	vfpfcnvrt@llu+4,utoa@d+4
  7561  000808  C0B2  F029         	movff	vfpfcnvrt@llu+5,utoa@d+5
  7562  00080C  C0B3  F02A         	movff	vfpfcnvrt@llu+6,utoa@d+6
  7563  000810  C0B4  F02B         	movff	vfpfcnvrt@llu+7,utoa@d+7
  7564  000814  ECDB  F00D         	call	_utoa	;wreg free
  7565  000818  C022  F049         	movff	?_utoa,?_vfpfcnvrt
  7566  00081C  C023  F04A         	movff	?_utoa+1,?_vfpfcnvrt+1
  7567  000820  EFD4  F005         	goto	l690
  7568  000824                     l4504:
  7569                           
  7570                           ; BSR set to: 0
  7571                           ;C:\Program Files (x86)\Microchip\xc8\v2.10\pic\sources\c99\common\doprnt.c: 1192:      
      +                             if (!strncmp(*fmt, "lu", ((sizeof("lu")/sizeof("lu"[0]))-1))) {
  7572  000824  C04B  FFD9         	movff	vfpfcnvrt@fmt,fsr2l
  7573  000828  C04C  FFDA         	movff	vfpfcnvrt@fmt+1,fsr2h
  7574  00082C  CFDE F005          	movff	postinc2,strncmp@_l
  7575  000830  CFDD F006          	movff	postdec2,strncmp@_l+1
  7576  000834  0EF2               	movlw	low STR_36
  7577  000836  6E07               	movwf	strncmp@_r^0,c
  7578  000838  0EFF               	movlw	high STR_36
  7579  00083A  6E08               	movwf	(strncmp@_r+1)^0,c
  7580  00083C  0E00               	movlw	0
  7581  00083E  6E0A               	movwf	(strncmp@n+1)^0,c
  7582  000840  0E02               	movlw	2
  7583  000842  6E09               	movwf	strncmp@n^0,c
  7584  000844  ECB0  F012         	call	_strncmp	;wreg free
  7585  000848  5005               	movf	?_strncmp^0,w,c
  7586  00084A  1006               	iorwf	(?_strncmp+1)^0,w,c
  7587  00084C  A4D8               	btfss	status,2,c
  7588  00084E  EF2B  F004         	goto	u4511
  7589  000852  EF2D  F004         	goto	u4510
  7590  000856                     u4511:
  7591  000856  EF76  F004         	goto	l4512
  7592  00085A                     u4510:
  7593  00085A                     
  7594                           ;C:\Program Files (x86)\Microchip\xc8\v2.10\pic\sources\c99\common\doprnt.c: 1194:      
      +                                 *fmt += ((sizeof("lu")/sizeof("lu"[0]))-1);
  7595  00085A  0E02               	movlw	2
  7596  00085C  C04B  FFD9         	movff	vfpfcnvrt@fmt,fsr2l
  7597  000860  C04C  FFDA         	movff	vfpfcnvrt@fmt+1,fsr2h
  7598  000864  26DE               	addwf	postinc2,f,c
  7599  000866  0E00               	movlw	0
  7600  000868  22DD               	addwfc	postdec2,f,c
  7601                           
  7602                           ;C:\Program Files (x86)\Microchip\xc8\v2.10\pic\sources\c99\common\doprnt.c: 1195:      
      +                                 llu = (unsigned long long)(*(unsigned long *)__va_arg(*(unsigned long **)ap, (uns
      +                          igned long)0));
  7603  00086A  C04D  FFD9         	movff	vfpfcnvrt@ap,fsr2l
  7604  00086E  C04E  FFDA         	movff	vfpfcnvrt@ap+1,fsr2h
  7605  000872  CFDF F04F          	movff	indf2,??_vfpfcnvrt
  7606  000876  0E04               	movlw	4
  7607  000878  26DE               	addwf	postinc2,f,c
  7608  00087A  CFDF F050          	movff	indf2,??_vfpfcnvrt+1
  7609  00087E  0E00               	movlw	0
  7610  000880  22DD               	addwfc	postdec2,f,c
  7611  000882  C04F  FFD9         	movff	??_vfpfcnvrt,fsr2l
  7612  000886  C050  FFDA         	movff	??_vfpfcnvrt+1,fsr2h
  7613  00088A  CFDE F051          	movff	postinc2,??_vfpfcnvrt+2
  7614  00088E  CFDE F052          	movff	postinc2,??_vfpfcnvrt+3
  7615  000892  CFDE F053          	movff	postinc2,??_vfpfcnvrt+4
  7616  000896  CFDE F054          	movff	postinc2,??_vfpfcnvrt+5
  7617  00089A  5051               	movf	(??_vfpfcnvrt+2)^0,w,c
  7618  00089C  0100               	movlb	0	; () banked
  7619  00089E  6FAD               	movwf	vfpfcnvrt@llu& (0+255),b
  7620  0008A0  5052               	movf	(??_vfpfcnvrt+3)^0,w,c
  7621  0008A2  6FAE               	movwf	(vfpfcnvrt@llu+1)& (0+255),b
  7622  0008A4  5053               	movf	(??_vfpfcnvrt+4)^0,w,c
  7623  0008A6  6FAF               	movwf	(vfpfcnvrt@llu+2)& (0+255),b
  7624  0008A8  5054               	movf	(??_vfpfcnvrt+5)^0,w,c
  7625  0008AA  6FB0               	movwf	(vfpfcnvrt@llu+3)& (0+255),b
  7626  0008AC  6BB1               	clrf	(vfpfcnvrt@llu+4)& (0+255),b
  7627  0008AE  6BB2               	clrf	(vfpfcnvrt@llu+5)& (0+255),b
  7628  0008B0  6BB3               	clrf	(vfpfcnvrt@llu+6)& (0+255),b
  7629  0008B2  6BB4               	clrf	(vfpfcnvrt@llu+7)& (0+255),b
  7630  0008B4                     
  7631                           ; BSR set to: 0
  7632                           ;C:\Program Files (x86)\Microchip\xc8\v2.10\pic\sources\c99\common\doprnt.c: 1197:      
      +                                 return utoa(fp, llu);
  7633  0008B4  C049  F022         	movff	vfpfcnvrt@fp,utoa@fp
  7634  0008B8  C04A  F023         	movff	vfpfcnvrt@fp+1,utoa@fp+1
  7635  0008BC  C0AD  F024         	movff	vfpfcnvrt@llu,utoa@d
  7636  0008C0  C0AE  F025         	movff	vfpfcnvrt@llu+1,utoa@d+1
  7637  0008C4  C0AF  F026         	movff	vfpfcnvrt@llu+2,utoa@d+2
  7638  0008C8  C0B0  F027         	movff	vfpfcnvrt@llu+3,utoa@d+3
  7639  0008CC  C0B1  F028         	movff	vfpfcnvrt@llu+4,utoa@d+4
  7640  0008D0  C0B2  F029         	movff	vfpfcnvrt@llu+5,utoa@d+5
  7641  0008D4  C0B3  F02A         	movff	vfpfcnvrt@llu+6,utoa@d+6
  7642  0008D8  C0B4  F02B         	movff	vfpfcnvrt@llu+7,utoa@d+7
  7643  0008DC  ECDB  F00D         	call	_utoa	;wreg free
  7644  0008E0  C022  F049         	movff	?_utoa,?_vfpfcnvrt
  7645  0008E4  C023  F04A         	movff	?_utoa+1,?_vfpfcnvrt+1
  7646  0008E8  EFD4  F005         	goto	l690
  7647  0008EC                     l4512:
  7648                           
  7649                           ;C:\Program Files (x86)\Microchip\xc8\v2.10\pic\sources\c99\common\doprnt.c: 1274:      
      +                             if ((*fmt[0] == 'x') || (*fmt[0] == 'X')) {
  7650  0008EC  C04B  FFD9         	movff	vfpfcnvrt@fmt,fsr2l
  7651  0008F0  C04C  FFDA         	movff	vfpfcnvrt@fmt+1,fsr2h
  7652  0008F4  CFDE FFF6          	movff	postinc2,tblptrl
  7653  0008F8  CFDD FFF7          	movff	postdec2,tblptrh
  7654  0008FC                     	if	1	;Program memory is < 0x10000, tblptru is always zero
  7655  0008FC  6AF8               	clrf	tblptru,c
  7656  0008FE                     	endif
  7657  0008FE                     	if	0	;tblptru may be non-zero
  7658  0008FE                     	endif
  7659  0008FE  0008               	tblrd		*
  7660  000900  50F5               	movf	tablat,w,c
  7661  000902  0A78               	xorlw	120
  7662  000904  B4D8               	btfsc	status,2,c
  7663  000906  EF87  F004         	goto	u4521
  7664  00090A  EF89  F004         	goto	u4520
  7665  00090E                     u4521:
  7666  00090E  EF9C  F004         	goto	l4516
  7667  000912                     u4520:
  7668  000912  C04B  FFD9         	movff	vfpfcnvrt@fmt,fsr2l
  7669  000916  C04C  FFDA         	movff	vfpfcnvrt@fmt+1,fsr2h
  7670  00091A  CFDE FFF6          	movff	postinc2,tblptrl
  7671  00091E  CFDD FFF7          	movff	postdec2,tblptrh
  7672  000922                     	if	1	;Program memory is < 0x10000, tblptru is always zero
  7673  000922  6AF8               	clrf	tblptru,c
  7674  000924                     	endif
  7675  000924                     	if	0	;tblptru may be non-zero
  7676  000924                     	endif
  7677  000924  0008               	tblrd		*
  7678  000926  50F5               	movf	tablat,w,c
  7679  000928  0A58               	xorlw	88
  7680  00092A  A4D8               	btfss	status,2,c
  7681  00092C  EF9A  F004         	goto	u4531
  7682  000930  EF9C  F004         	goto	u4530
  7683  000934                     u4531:
  7684  000934  EFEC  F004         	goto	l4526
  7685  000938                     u4530:
  7686  000938                     l4516:
  7687                           
  7688                           ;C:\Program Files (x86)\Microchip\xc8\v2.10\pic\sources\c99\common\doprnt.c: 1276:      
      +                                 c = (*fmt)[0];
  7689  000938  C04B  FFD9         	movff	vfpfcnvrt@fmt,fsr2l
  7690  00093C  C04C  FFDA         	movff	vfpfcnvrt@fmt+1,fsr2h
  7691  000940  CFDE FFF6          	movff	postinc2,tblptrl
  7692  000944  CFDD FFF7          	movff	postdec2,tblptrh
  7693  000948                     	if	1	;Program memory is < 0x10000, tblptru is always zero
  7694  000948  6AF8               	clrf	tblptru,c
  7695  00094A                     	endif
  7696  00094A                     	if	0	;tblptru may be non-zero
  7697  00094A                     	endif
  7698  00094A  0008               	tblrd		*
  7699  00094C  CFF5 F0AC          	movff	tablat,vfpfcnvrt@c
  7700  000950                     
  7701                           ;C:\Program Files (x86)\Microchip\xc8\v2.10\pic\sources\c99\common\doprnt.c: 1277:      
      +                                 ++*fmt;
  7702  000950  C04B  FFD9         	movff	vfpfcnvrt@fmt,fsr2l
  7703  000954  C04C  FFDA         	movff	vfpfcnvrt@fmt+1,fsr2h
  7704  000958  2ADE               	incf	postinc2,f,c
  7705  00095A  0E00               	movlw	0
  7706  00095C  22DD               	addwfc	postdec2,f,c
  7707  00095E                     
  7708                           ;C:\Program Files (x86)\Microchip\xc8\v2.10\pic\sources\c99\common\doprnt.c: 1278:      
      +                                 llu = (unsigned long long)(*(unsigned int *)__va_arg(*(unsigned int **)ap, (unsig
      +                          ned int)0));
  7709  00095E  C04D  FFD9         	movff	vfpfcnvrt@ap,fsr2l
  7710  000962  C04E  FFDA         	movff	vfpfcnvrt@ap+1,fsr2h
  7711  000966  CFDF F04F          	movff	indf2,??_vfpfcnvrt
  7712  00096A  0E02               	movlw	2
  7713  00096C  26DE               	addwf	postinc2,f,c
  7714  00096E  CFDF F050          	movff	indf2,??_vfpfcnvrt+1
  7715  000972  0E00               	movlw	0
  7716  000974  22DD               	addwfc	postdec2,f,c
  7717  000976  C04F  FFD9         	movff	??_vfpfcnvrt,fsr2l
  7718  00097A  C050  FFDA         	movff	??_vfpfcnvrt+1,fsr2h
  7719  00097E  CFDE F051          	movff	postinc2,??_vfpfcnvrt+2
  7720  000982  CFDD F052          	movff	postdec2,??_vfpfcnvrt+3
  7721  000986  C051  F0AD         	movff	??_vfpfcnvrt+2,vfpfcnvrt@llu
  7722  00098A  C052  F0AE         	movff	??_vfpfcnvrt+3,vfpfcnvrt@llu+1
  7723  00098E  0100               	movlb	0	; () banked
  7724  000990  6BAF               	clrf	(vfpfcnvrt@llu+2)& (0+255),b
  7725  000992  6BB0               	clrf	(vfpfcnvrt@llu+3)& (0+255),b
  7726  000994  6BB1               	clrf	(vfpfcnvrt@llu+4)& (0+255),b
  7727  000996  6BB2               	clrf	(vfpfcnvrt@llu+5)& (0+255),b
  7728  000998  6BB3               	clrf	(vfpfcnvrt@llu+6)& (0+255),b
  7729  00099A  6BB4               	clrf	(vfpfcnvrt@llu+7)& (0+255),b
  7730  00099C                     
  7731                           ; BSR set to: 0
  7732                           ;C:\Program Files (x86)\Microchip\xc8\v2.10\pic\sources\c99\common\doprnt.c: 1280:      
      +                                 return xtoa(fp, llu, c);
  7733  00099C  C049  F022         	movff	vfpfcnvrt@fp,xtoa@fp
  7734  0009A0  C04A  F023         	movff	vfpfcnvrt@fp+1,xtoa@fp+1
  7735  0009A4  C0AD  F024         	movff	vfpfcnvrt@llu,xtoa@d
  7736  0009A8  C0AE  F025         	movff	vfpfcnvrt@llu+1,xtoa@d+1
  7737  0009AC  C0AF  F026         	movff	vfpfcnvrt@llu+2,xtoa@d+2
  7738  0009B0  C0B0  F027         	movff	vfpfcnvrt@llu+3,xtoa@d+3
  7739  0009B4  C0B1  F028         	movff	vfpfcnvrt@llu+4,xtoa@d+4
  7740  0009B8  C0B2  F029         	movff	vfpfcnvrt@llu+5,xtoa@d+5
  7741  0009BC  C0B3  F02A         	movff	vfpfcnvrt@llu+6,xtoa@d+6
  7742  0009C0  C0B4  F02B         	movff	vfpfcnvrt@llu+7,xtoa@d+7
  7743  0009C4  C0AC  F02C         	movff	vfpfcnvrt@c,xtoa@x
  7744  0009C8  EC71  F00C         	call	_xtoa	;wreg free
  7745  0009CC  C022  F049         	movff	?_xtoa,?_vfpfcnvrt
  7746  0009D0  C023  F04A         	movff	?_xtoa+1,?_vfpfcnvrt+1
  7747  0009D4  EFD4  F005         	goto	l690
  7748  0009D8                     l4526:
  7749                           
  7750                           ;C:\Program Files (x86)\Microchip\xc8\v2.10\pic\sources\c99\common\doprnt.c: 1285:      
      +                             if (!strncmp(*fmt, "lx", ((sizeof("lx")/sizeof("lx"[0]))-1)) || !strncmp(*fmt, "lX", 
      +                          ((sizeof("lX")/sizeof("lX"[0]))-1))) {
  7751  0009D8  C04B  FFD9         	movff	vfpfcnvrt@fmt,fsr2l
  7752  0009DC  C04C  FFDA         	movff	vfpfcnvrt@fmt+1,fsr2h
  7753  0009E0  CFDE F005          	movff	postinc2,strncmp@_l
  7754  0009E4  CFDD F006          	movff	postdec2,strncmp@_l+1
  7755  0009E8  0EF5               	movlw	low STR_41
  7756  0009EA  6E07               	movwf	strncmp@_r^0,c
  7757  0009EC  0EFF               	movlw	high STR_41
  7758  0009EE  6E08               	movwf	(strncmp@_r+1)^0,c
  7759  0009F0  0E00               	movlw	0
  7760  0009F2  6E0A               	movwf	(strncmp@n+1)^0,c
  7761  0009F4  0E02               	movlw	2
  7762  0009F6  6E09               	movwf	strncmp@n^0,c
  7763  0009F8  ECB0  F012         	call	_strncmp	;wreg free
  7764  0009FC  5005               	movf	?_strncmp^0,w,c
  7765  0009FE  1006               	iorwf	(?_strncmp+1)^0,w,c
  7766  000A00  B4D8               	btfsc	status,2,c
  7767  000A02  EF05  F005         	goto	u4541
  7768  000A06  EF07  F005         	goto	u4540
  7769  000A0A                     u4541:
  7770  000A0A  EF22  F005         	goto	l4530
  7771  000A0E                     u4540:
  7772  000A0E  C04B  FFD9         	movff	vfpfcnvrt@fmt,fsr2l
  7773  000A12  C04C  FFDA         	movff	vfpfcnvrt@fmt+1,fsr2h
  7774  000A16  CFDE F005          	movff	postinc2,strncmp@_l
  7775  000A1A  CFDD F006          	movff	postdec2,strncmp@_l+1
  7776  000A1E  0EEF               	movlw	low STR_45
  7777  000A20  6E07               	movwf	strncmp@_r^0,c
  7778  000A22  0EFF               	movlw	high STR_45
  7779  000A24  6E08               	movwf	(strncmp@_r+1)^0,c
  7780  000A26  0E00               	movlw	0
  7781  000A28  6E0A               	movwf	(strncmp@n+1)^0,c
  7782  000A2A  0E02               	movlw	2
  7783  000A2C  6E09               	movwf	strncmp@n^0,c
  7784  000A2E  ECB0  F012         	call	_strncmp	;wreg free
  7785  000A32  5005               	movf	?_strncmp^0,w,c
  7786  000A34  1006               	iorwf	(?_strncmp+1)^0,w,c
  7787  000A36  A4D8               	btfss	status,2,c
  7788  000A38  EF20  F005         	goto	u4551
  7789  000A3C  EF22  F005         	goto	u4550
  7790  000A40                     u4551:
  7791  000A40  EF81  F005         	goto	l4540
  7792  000A44                     u4550:
  7793  000A44                     l4530:
  7794                           
  7795                           ;C:\Program Files (x86)\Microchip\xc8\v2.10\pic\sources\c99\common\doprnt.c: 1286: ;C:\P
      +                          rogram Files (x86)\Microchip\xc8\v2.10\pic\sources\c99\common\doprnt.c: 1288:           
      +                            c = (*fmt)[1];
  7796  000A44  C04B  FFD9         	movff	vfpfcnvrt@fmt,fsr2l
  7797  000A48  C04C  FFDA         	movff	vfpfcnvrt@fmt+1,fsr2h
  7798  000A4C  CFDE F04F          	movff	postinc2,??_vfpfcnvrt
  7799  000A50  CFDD F050          	movff	postdec2,??_vfpfcnvrt+1
  7800  000A54  0E01               	movlw	1
  7801  000A56  264F               	addwf	??_vfpfcnvrt^0,f,c
  7802  000A58  0E00               	movlw	0
  7803  000A5A  2250               	addwfc	(??_vfpfcnvrt+1)^0,f,c
  7804  000A5C  C04F  FFF6         	movff	??_vfpfcnvrt,tblptrl
  7805  000A60  C050  FFF7         	movff	??_vfpfcnvrt+1,tblptrh
  7806  000A64                     	if	1	;Program memory is < 0x10000, tblptru is always zero
  7807  000A64  6AF8               	clrf	tblptru,c
  7808  000A66                     	endif
  7809  000A66                     	if	0	;tblptru may be non-zero
  7810  000A66                     	endif
  7811  000A66  0008               	tblrd		*
  7812  000A68  CFF5 F0AC          	movff	tablat,vfpfcnvrt@c
  7813  000A6C                     
  7814                           ;C:\Program Files (x86)\Microchip\xc8\v2.10\pic\sources\c99\common\doprnt.c: 1289:      
      +                                 *fmt += ((sizeof("lx")/sizeof("lx"[0]))-1);
  7815  000A6C  0E02               	movlw	2
  7816  000A6E  C04B  FFD9         	movff	vfpfcnvrt@fmt,fsr2l
  7817  000A72  C04C  FFDA         	movff	vfpfcnvrt@fmt+1,fsr2h
  7818  000A76  26DE               	addwf	postinc2,f,c
  7819  000A78  0E00               	movlw	0
  7820  000A7A  22DD               	addwfc	postdec2,f,c
  7821  000A7C                     
  7822                           ;C:\Program Files (x86)\Microchip\xc8\v2.10\pic\sources\c99\common\doprnt.c: 1290:      
      +                                 llu = (unsigned long long)(*(unsigned long *)__va_arg(*(unsigned long **)ap, (uns
      +                          igned long)0));
  7823  000A7C  C04D  FFD9         	movff	vfpfcnvrt@ap,fsr2l
  7824  000A80  C04E  FFDA         	movff	vfpfcnvrt@ap+1,fsr2h
  7825  000A84  CFDF F04F          	movff	indf2,??_vfpfcnvrt
  7826  000A88  0E04               	movlw	4
  7827  000A8A  26DE               	addwf	postinc2,f,c
  7828  000A8C  CFDF F050          	movff	indf2,??_vfpfcnvrt+1
  7829  000A90  0E00               	movlw	0
  7830  000A92  22DD               	addwfc	postdec2,f,c
  7831  000A94  C04F  FFD9         	movff	??_vfpfcnvrt,fsr2l
  7832  000A98  C050  FFDA         	movff	??_vfpfcnvrt+1,fsr2h
  7833  000A9C  CFDE F051          	movff	postinc2,??_vfpfcnvrt+2
  7834  000AA0  CFDE F052          	movff	postinc2,??_vfpfcnvrt+3
  7835  000AA4  CFDE F053          	movff	postinc2,??_vfpfcnvrt+4
  7836  000AA8  CFDE F054          	movff	postinc2,??_vfpfcnvrt+5
  7837  000AAC  5051               	movf	(??_vfpfcnvrt+2)^0,w,c
  7838  000AAE  0100               	movlb	0	; () banked
  7839  000AB0  6FAD               	movwf	vfpfcnvrt@llu& (0+255),b
  7840  000AB2  5052               	movf	(??_vfpfcnvrt+3)^0,w,c
  7841  000AB4  6FAE               	movwf	(vfpfcnvrt@llu+1)& (0+255),b
  7842  000AB6  5053               	movf	(??_vfpfcnvrt+4)^0,w,c
  7843  000AB8  6FAF               	movwf	(vfpfcnvrt@llu+2)& (0+255),b
  7844  000ABA  5054               	movf	(??_vfpfcnvrt+5)^0,w,c
  7845  000ABC  6FB0               	movwf	(vfpfcnvrt@llu+3)& (0+255),b
  7846  000ABE  6BB1               	clrf	(vfpfcnvrt@llu+4)& (0+255),b
  7847  000AC0  6BB2               	clrf	(vfpfcnvrt@llu+5)& (0+255),b
  7848  000AC2  6BB3               	clrf	(vfpfcnvrt@llu+6)& (0+255),b
  7849  000AC4  6BB4               	clrf	(vfpfcnvrt@llu+7)& (0+255),b
  7850  000AC6                     
  7851                           ; BSR set to: 0
  7852                           ;C:\Program Files (x86)\Microchip\xc8\v2.10\pic\sources\c99\common\doprnt.c: 1292:      
      +                                 return xtoa(fp, llu, c);
  7853  000AC6  C049  F022         	movff	vfpfcnvrt@fp,xtoa@fp
  7854  000ACA  C04A  F023         	movff	vfpfcnvrt@fp+1,xtoa@fp+1
  7855  000ACE  C0AD  F024         	movff	vfpfcnvrt@llu,xtoa@d
  7856  000AD2  C0AE  F025         	movff	vfpfcnvrt@llu+1,xtoa@d+1
  7857  000AD6  C0AF  F026         	movff	vfpfcnvrt@llu+2,xtoa@d+2
  7858  000ADA  C0B0  F027         	movff	vfpfcnvrt@llu+3,xtoa@d+3
  7859  000ADE  C0B1  F028         	movff	vfpfcnvrt@llu+4,xtoa@d+4
  7860  000AE2  C0B2  F029         	movff	vfpfcnvrt@llu+5,xtoa@d+5
  7861  000AE6  C0B3  F02A         	movff	vfpfcnvrt@llu+6,xtoa@d+6
  7862  000AEA  C0B4  F02B         	movff	vfpfcnvrt@llu+7,xtoa@d+7
  7863  000AEE  C0AC  F02C         	movff	vfpfcnvrt@c,xtoa@x
  7864  000AF2  EC71  F00C         	call	_xtoa	;wreg free
  7865  000AF6  C022  F049         	movff	?_xtoa,?_vfpfcnvrt
  7866  000AFA  C023  F04A         	movff	?_xtoa+1,?_vfpfcnvrt+1
  7867  000AFE  EFD4  F005         	goto	l690
  7868  000B02                     l4540:
  7869                           
  7870                           ;C:\Program Files (x86)\Microchip\xc8\v2.10\pic\sources\c99\common\doprnt.c: 1350:      
      +                             if ((*fmt)[0] == '%') {
  7871  000B02  C04B  FFD9         	movff	vfpfcnvrt@fmt,fsr2l
  7872  000B06  C04C  FFDA         	movff	vfpfcnvrt@fmt+1,fsr2h
  7873  000B0A  CFDE FFF6          	movff	postinc2,tblptrl
  7874  000B0E  CFDD FFF7          	movff	postdec2,tblptrh
  7875  000B12                     	if	1	;Program memory is < 0x10000, tblptru is always zero
  7876  000B12  6AF8               	clrf	tblptru,c
  7877  000B14                     	endif
  7878  000B14                     	if	0	;tblptru may be non-zero
  7879  000B14                     	endif
  7880  000B14  0008               	tblrd		*
  7881  000B16  50F5               	movf	tablat,w,c
  7882  000B18  0A25               	xorlw	37
  7883  000B1A  A4D8               	btfss	status,2,c
  7884  000B1C  EF92  F005         	goto	u4561
  7885  000B20  EF94  F005         	goto	u4560
  7886  000B24                     u4561:
  7887  000B24  EFAB  F005         	goto	l4550
  7888  000B28                     u4560:
  7889  000B28                     
  7890                           ;C:\Program Files (x86)\Microchip\xc8\v2.10\pic\sources\c99\common\doprnt.c: 1351:      
      +                                 ++*fmt;
  7891  000B28  C04B  FFD9         	movff	vfpfcnvrt@fmt,fsr2l
  7892  000B2C  C04C  FFDA         	movff	vfpfcnvrt@fmt+1,fsr2h
  7893  000B30  2ADE               	incf	postinc2,f,c
  7894  000B32  0E00               	movlw	0
  7895  000B34  22DD               	addwfc	postdec2,f,c
  7896  000B36                     
  7897                           ;C:\Program Files (x86)\Microchip\xc8\v2.10\pic\sources\c99\common\doprnt.c: 1352:      
      +                                 fputc((int)'%', fp);
  7898  000B36  0E00               	movlw	0
  7899  000B38  6E08               	movwf	(fputc@c+1)^0,c
  7900  000B3A  0E25               	movlw	37
  7901  000B3C  6E07               	movwf	fputc@c^0,c
  7902  000B3E  C049  F009         	movff	vfpfcnvrt@fp,fputc@fp
  7903  000B42  C04A  F00A         	movff	vfpfcnvrt@fp+1,fputc@fp+1
  7904  000B46  EC51  F014         	call	_fputc	;wreg free
  7905  000B4A                     l4546:
  7906                           
  7907                           ;C:\Program Files (x86)\Microchip\xc8\v2.10\pic\sources\c99\common\doprnt.c: 1353:      
      +                                 return 1;
  7908  000B4A  0E00               	movlw	0
  7909  000B4C  6E4A               	movwf	(?_vfpfcnvrt+1)^0,c
  7910  000B4E  0E01               	movlw	1
  7911  000B50  6E49               	movwf	?_vfpfcnvrt^0,c
  7912  000B52  EFD4  F005         	goto	l690
  7913  000B56                     l4550:
  7914                           
  7915                           ;C:\Program Files (x86)\Microchip\xc8\v2.10\pic\sources\c99\common\doprnt.c: 1357:      
      +                             ++*fmt;
  7916  000B56  C04B  FFD9         	movff	vfpfcnvrt@fmt,fsr2l
  7917  000B5A  C04C  FFDA         	movff	vfpfcnvrt@fmt+1,fsr2h
  7918  000B5E  2ADE               	incf	postinc2,f,c
  7919  000B60  0E00               	movlw	0
  7920  000B62  22DD               	addwfc	postdec2,f,c
  7921  000B64                     
  7922                           ;C:\Program Files (x86)\Microchip\xc8\v2.10\pic\sources\c99\common\doprnt.c: 1358:      
      +                             return 0;
  7923  000B64  0E00               	movlw	0
  7924  000B66  6E4A               	movwf	(?_vfpfcnvrt+1)^0,c
  7925  000B68  0E00               	movlw	0
  7926  000B6A  6E49               	movwf	?_vfpfcnvrt^0,c
  7927  000B6C  EFD4  F005         	goto	l690
  7928  000B70                     l4556:
  7929                           
  7930                           ;C:\Program Files (x86)\Microchip\xc8\v2.10\pic\sources\c99\common\doprnt.c: 1362:     f
      +                          putc((int)(*fmt)[0], fp);
  7931  000B70  C04B  FFD9         	movff	vfpfcnvrt@fmt,fsr2l
  7932  000B74  C04C  FFDA         	movff	vfpfcnvrt@fmt+1,fsr2h
  7933  000B78  CFDE FFF6          	movff	postinc2,tblptrl
  7934  000B7C  CFDD FFF7          	movff	postdec2,tblptrh
  7935  000B80                     	if	1	;Program memory is < 0x10000, tblptru is always zero
  7936  000B80  6AF8               	clrf	tblptru,c
  7937  000B82                     	endif
  7938  000B82                     	if	0	;tblptru may be non-zero
  7939  000B82                     	endif
  7940  000B82  0008               	tblrd		*
  7941  000B84  50F5               	movf	tablat,w,c
  7942  000B86  6E07               	movwf	fputc@c^0,c
  7943  000B88  6A08               	clrf	(fputc@c+1)^0,c
  7944  000B8A  C049  F009         	movff	vfpfcnvrt@fp,fputc@fp
  7945  000B8E  C04A  F00A         	movff	vfpfcnvrt@fp+1,fputc@fp+1
  7946  000B92  EC51  F014         	call	_fputc	;wreg free
  7947  000B96                     
  7948                           ;C:\Program Files (x86)\Microchip\xc8\v2.10\pic\sources\c99\common\doprnt.c: 1363:     +
      +                          +*fmt;
  7949  000B96  C04B  FFD9         	movff	vfpfcnvrt@fmt,fsr2l
  7950  000B9A  C04C  FFDA         	movff	vfpfcnvrt@fmt+1,fsr2h
  7951  000B9E  2ADE               	incf	postinc2,f,c
  7952  000BA0  0E00               	movlw	0
  7953  000BA2  22DD               	addwfc	postdec2,f,c
  7954  000BA4  EFA5  F005         	goto	l4546
  7955  000BA8                     l690:
  7956  000BA8  0012               	return		;funcret
  7957  000BAA                     __end_of_vfpfcnvrt:
  7958                           	opt callstack 0
  7959                           
  7960 ;; *************** function _xtoa *****************
  7961 ;; Defined at:
  7962 ;;		line 623 in file "C:\Program Files (x86)\Microchip\xc8\v2.10\pic\sources\c99\common\doprnt.c"
  7963 ;; Parameters:    Size  Location     Type
  7964 ;;  fp              2   33[COMRAM] PTR struct _IO_FILE
  7965 ;;		 -> NULL(0), 
  7966 ;;  d               8   35[COMRAM] unsigned long long 
  7967 ;;  x               1   43[COMRAM] unsigned char 
  7968 ;; Auto vars:     Size  Location     Type
  7969 ;;  n               8   60[COMRAM] unsigned long long 
  7970 ;;  c               2   70[COMRAM] int 
  7971 ;;  i               2   68[COMRAM] int 
  7972 ;;  w               2   58[COMRAM] int 
  7973 ;;  p               2   56[COMRAM] int 
  7974 ;; Return value:  Size  Location     Type
  7975 ;;                  2   33[COMRAM] int 
  7976 ;; Registers used:
  7977 ;;		wreg, fsr1l, fsr1h, fsr2l, fsr2h, status,2, status,0, cstack
  7978 ;; Tracked objects:
  7979 ;;		On entry : 0/0
  7980 ;;		On exit  : 0/0
  7981 ;;		Unchanged: 0/0
  7982 ;; Data sizes:     COMRAM   BANK0   BANK1   BANK2   BANK3   BANK4   BANK5   BANK6   BANK7   BANK8   BANK9  BANK10  BANK1
      +1  BANK12  BANK13  BANK14  BANK15
  7983 ;;      Params:        11       0       0       0       0       0       0       0       0       0       0       0       
      +0       0       0       0       0
  7984 ;;      Locals:        20       0       0       0       0       0       0       0       0       0       0       0       
      +0       0       0       0       0
  7985 ;;      Temps:          8       0       0       0       0       0       0       0       0       0       0       0       
      +0       0       0       0       0
  7986 ;;      Totals:        39       0       0       0       0       0       0       0       0       0       0       0       
      +0       0       0       0       0
  7987 ;;Total ram usage:       39 bytes
  7988 ;; Hardware stack levels used:    1
  7989 ;; Hardware stack levels required when called:    8
  7990 ;; This function calls:
  7991 ;;		_isalpha
  7992 ;;		_isupper
  7993 ;;		_pad
  7994 ;;		_toupper
  7995 ;; This function is called by:
  7996 ;;		_vfpfcnvrt
  7997 ;; This function uses a non-reentrant model
  7998 ;;
  7999                           
  8000                           	psect	text34
  8001  0018E2                     __ptext34:
  8002                           	opt callstack 0
  8003  0018E2                     _xtoa:
  8004                           	opt callstack 18
  8005  0018E2                     
  8006                           ;C:\Program Files (x86)\Microchip\xc8\v2.10\pic\sources\c99\common\doprnt.c: 623: static
      +                           int xtoa(FILE *fp, unsigned long long d, char x);C:\Program Files (x86)\Microchip\xc8\v
      +                          2.10\pic\sources\c99\common\doprnt.c: 624: {;C:\Program Files (x86)\Microchip\xc8\v2.10\
      +                          pic\sources\c99\common\doprnt.c: 625:     int c, i, p, w;;C:\Program Files (x86)\Microch
      +                          ip\xc8\v2.10\pic\sources\c99\common\doprnt.c: 626:     unsigned long long n;;C:\Program 
      +                          Files (x86)\Microchip\xc8\v2.10\pic\sources\c99\common\doprnt.c: 629:     if (!(prec < 0
      +                          )) {
  8007  0018E2  BE58               	btfsc	(_prec+1)^0,7,c
  8008  0018E4  EF76  F00C         	goto	u4261
  8009  0018E8  EF78  F00C         	goto	u4260
  8010  0018EC                     u4261:
  8011  0018EC  EF79  F00C         	goto	l4398
  8012  0018F0                     u4260:
  8013  0018F0                     
  8014                           ;C:\Program Files (x86)\Microchip\xc8\v2.10\pic\sources\c99\common\doprnt.c: 630:       
      +                            flags &= ~(1 << 1);
  8015  0018F0  9259               	bcf	_flags^0,1,c
  8016  0018F2                     l4398:
  8017                           
  8018                           ;C:\Program Files (x86)\Microchip\xc8\v2.10\pic\sources\c99\common\doprnt.c: 632:     p 
      +                          = (0 < prec) ? prec : 1;
  8019  0018F2  BE58               	btfsc	(_prec+1)^0,7,c
  8020  0018F4  EF86  F00C         	goto	u4270
  8021  0018F8  5058               	movf	(_prec+1)^0,w,c
  8022  0018FA  E106               	bnz	u4271
  8023  0018FC  0457               	decf	_prec^0,w,c
  8024  0018FE  B0D8               	btfsc	status,0,c
  8025  001900  EF84  F00C         	goto	u4271
  8026  001904  EF86  F00C         	goto	u4270
  8027  001908                     u4271:
  8028  001908  EF8C  F00C         	goto	l660
  8029  00190C                     u4270:
  8030  00190C  0E00               	movlw	0
  8031  00190E  6E3A               	movwf	(xtoa@p+1)^0,c
  8032  001910  0E01               	movlw	1
  8033  001912  6E39               	movwf	xtoa@p^0,c
  8034  001914  EF90  F00C         	goto	l662
  8035  001918                     l660:
  8036  001918  C057  F039         	movff	_prec,xtoa@p
  8037  00191C  C058  F03A         	movff	_prec+1,xtoa@p+1
  8038  001920                     l662:
  8039                           
  8040                           ;C:\Program Files (x86)\Microchip\xc8\v2.10\pic\sources\c99\common\doprnt.c: 633:     w 
      +                          = width;
  8041  001920  C076  F03B         	movff	_width,xtoa@w
  8042  001924  C077  F03C         	movff	_width+1,xtoa@w+1
  8043                           
  8044                           ;C:\Program Files (x86)\Microchip\xc8\v2.10\pic\sources\c99\common\doprnt.c: 634:     if
      +                           (flags & (1 << 4)) {
  8045  001928  A859               	btfss	_flags^0,4,c
  8046  00192A  EF99  F00C         	goto	u4281
  8047  00192E  EF9B  F00C         	goto	u4280
  8048  001932                     u4281:
  8049  001932  EF9F  F00C         	goto	l4404
  8050  001936                     u4280:
  8051  001936                     
  8052                           ;C:\Program Files (x86)\Microchip\xc8\v2.10\pic\sources\c99\common\doprnt.c: 635:       
      +                            w -= 2;
  8053  001936  0EFE               	movlw	254
  8054  001938  263B               	addwf	xtoa@w^0,f,c
  8055  00193A  0EFF               	movlw	255
  8056  00193C  223C               	addwfc	(xtoa@w+1)^0,f,c
  8057  00193E                     l4404:
  8058                           
  8059                           ;C:\Program Files (x86)\Microchip\xc8\v2.10\pic\sources\c99\common\doprnt.c: 639:     n 
      +                          = d;
  8060  00193E  C024  F03D         	movff	xtoa@d,xtoa@n
  8061  001942  C025  F03E         	movff	xtoa@d+1,xtoa@n+1
  8062  001946  C026  F03F         	movff	xtoa@d+2,xtoa@n+2
  8063  00194A  C027  F040         	movff	xtoa@d+3,xtoa@n+3
  8064  00194E  C028  F041         	movff	xtoa@d+4,xtoa@n+4
  8065  001952  C029  F042         	movff	xtoa@d+5,xtoa@n+5
  8066  001956  C02A  F043         	movff	xtoa@d+6,xtoa@n+6
  8067  00195A  C02B  F044         	movff	xtoa@d+7,xtoa@n+7
  8068  00195E                     
  8069                           ;C:\Program Files (x86)\Microchip\xc8\v2.10\pic\sources\c99\common\doprnt.c: 640:     i 
      +                          = sizeof(dbuf) - 1;
  8070  00195E  0E00               	movlw	0
  8071  001960  6E46               	movwf	(xtoa@i+1)^0,c
  8072  001962  0E1F               	movlw	31
  8073  001964  6E45               	movwf	xtoa@i^0,c
  8074  001966                     
  8075                           ;C:\Program Files (x86)\Microchip\xc8\v2.10\pic\sources\c99\common\doprnt.c: 641:     db
      +                          uf[i] = '\0';
  8076  001966  0E00               	movlw	0
  8077  001968  0100               	movlb	0	; () banked
  8078  00196A  6FAB               	movwf	(_dbuf+31)& (0+255),b
  8079                           
  8080                           ;C:\Program Files (x86)\Microchip\xc8\v2.10\pic\sources\c99\common\doprnt.c: 642:     wh
      +                          ile (!(i < 2) && (n || (0 < p) || ((0 < w) && (flags & (1 << 1))))) {
  8081  00196C  EF6B  F00D         	goto	l4440
  8082  001970                     l4410:
  8083                           
  8084                           ;C:\Program Files (x86)\Microchip\xc8\v2.10\pic\sources\c99\common\doprnt.c: 643:       
      +                            --i;
  8085  001970  0645               	decf	xtoa@i^0,f,c
  8086  001972  A0D8               	btfss	status,0,c
  8087  001974  0646               	decf	(xtoa@i+1)^0,f,c
  8088  001976                     
  8089                           ;C:\Program Files (x86)\Microchip\xc8\v2.10\pic\sources\c99\common\doprnt.c: 644:       
      +                            c = n & 0x0f;
  8090  001976  0E0F               	movlw	15
  8091  001978  143D               	andwf	xtoa@n^0,w,c
  8092  00197A  6E47               	movwf	xtoa@c^0,c
  8093  00197C  6A48               	clrf	(xtoa@c+1)^0,c
  8094  00197E                     
  8095                           ;C:\Program Files (x86)\Microchip\xc8\v2.10\pic\sources\c99\common\doprnt.c: 645:       
      +                            c = (c < 10) ? '0' + c : 'a' + (c - 10);
  8096  00197E  BE48               	btfsc	(xtoa@c+1)^0,7,c
  8097  001980  EFCB  F00C         	goto	u4291
  8098  001984  5048               	movf	(xtoa@c+1)^0,w,c
  8099  001986  E109               	bnz	u4290
  8100  001988  0E0A               	movlw	10
  8101  00198A  5C47               	subwf	xtoa@c^0,w,c
  8102  00198C  A0D8               	btfss	status,0,c
  8103  00198E  EFCB  F00C         	goto	u4291
  8104  001992  EFCD  F00C         	goto	u4290
  8105  001996                     u4291:
  8106  001996  EFD5  F00C         	goto	l4418
  8107  00199A                     u4290:
  8108  00199A  0E57               	movlw	87
  8109  00199C  2447               	addwf	xtoa@c^0,w,c
  8110  00199E  6E47               	movwf	xtoa@c^0,c
  8111  0019A0  0E00               	movlw	0
  8112  0019A2  2048               	addwfc	(xtoa@c+1)^0,w,c
  8113  0019A4  6E48               	movwf	(xtoa@c+1)^0,c
  8114  0019A6  EFDB  F00C         	goto	l669
  8115  0019AA                     l4418:
  8116  0019AA  0E30               	movlw	48
  8117  0019AC  2447               	addwf	xtoa@c^0,w,c
  8118  0019AE  6E47               	movwf	xtoa@c^0,c
  8119  0019B0  0E00               	movlw	0
  8120  0019B2  2048               	addwfc	(xtoa@c+1)^0,w,c
  8121  0019B4  6E48               	movwf	(xtoa@c+1)^0,c
  8122  0019B6                     l669:
  8123  0019B6  0EBF               	movlw	191
  8124  0019B8  6E2D               	movwf	??_xtoa^0,c
  8125  0019BA  0EFF               	movlw	255
  8126  0019BC  6E2E               	movwf	(??_xtoa+1)^0,c
  8127  0019BE  502C               	movf	xtoa@x^0,w,c
  8128  0019C0  6E2F               	movwf	(??_xtoa+2)^0,c
  8129  0019C2  6A30               	clrf	(??_xtoa+3)^0,c
  8130  0019C4  502D               	movf	??_xtoa^0,w,c
  8131  0019C6  262F               	addwf	(??_xtoa+2)^0,f,c
  8132  0019C8  502E               	movf	(??_xtoa+1)^0,w,c
  8133  0019CA  2230               	addwfc	(??_xtoa+3)^0,f,c
  8134  0019CC  5030               	movf	(??_xtoa+3)^0,w,c
  8135  0019CE  E10A               	bnz	u4300
  8136  0019D0  0E1A               	movlw	26
  8137  0019D2  5C2F               	subwf	(??_xtoa+2)^0,w,c
  8138  0019D4  A0D8               	btfss	status,0,c
  8139  0019D6  EFEF  F00C         	goto	u4301
  8140  0019DA  EFF2  F00C         	goto	u4300
  8141  0019DE                     u4301:
  8142  0019DE  0E01               	movlw	1
  8143  0019E0  EFF3  F00C         	goto	u4310
  8144  0019E4                     u4300:
  8145  0019E4  0E00               	movlw	0
  8146  0019E6                     u4310:
  8147  0019E6  6E35               	movwf	_xtoa$1433^0,c
  8148  0019E8  6A36               	clrf	(_xtoa$1433+1)^0,c
  8149  0019EA  5035               	movf	_xtoa$1433^0,w,c
  8150  0019EC  1036               	iorwf	(_xtoa$1433+1)^0,w,c
  8151  0019EE  B4D8               	btfsc	status,2,c
  8152  0019F0  EFFC  F00C         	goto	u4321
  8153  0019F4  EFFE  F00C         	goto	u4320
  8154  0019F8                     u4321:
  8155  0019F8  EF2E  F00D         	goto	l4432
  8156  0019FC                     u4320:
  8157  0019FC  0E9F               	movlw	159
  8158  0019FE  6E2D               	movwf	??_xtoa^0,c
  8159  001A00  0EFF               	movlw	255
  8160  001A02  6E2E               	movwf	(??_xtoa+1)^0,c
  8161  001A04  0E20               	movlw	32
  8162  001A06  1047               	iorwf	xtoa@c^0,w,c
  8163  001A08  6E2F               	movwf	(??_xtoa+2)^0,c
  8164  001A0A  0E00               	movlw	0
  8165  001A0C  1048               	iorwf	(xtoa@c+1)^0,w,c
  8166  001A0E  6E30               	movwf	(??_xtoa+3)^0,c
  8167  001A10  502D               	movf	??_xtoa^0,w,c
  8168  001A12  262F               	addwf	(??_xtoa+2)^0,f,c
  8169  001A14  502E               	movf	(??_xtoa+1)^0,w,c
  8170  001A16  2230               	addwfc	(??_xtoa+3)^0,f,c
  8171  001A18  5030               	movf	(??_xtoa+3)^0,w,c
  8172  001A1A  E10A               	bnz	u4330
  8173  001A1C  0E1A               	movlw	26
  8174  001A1E  5C2F               	subwf	(??_xtoa+2)^0,w,c
  8175  001A20  A0D8               	btfss	status,0,c
  8176  001A22  EF15  F00D         	goto	u4331
  8177  001A26  EF18  F00D         	goto	u4330
  8178  001A2A                     u4331:
  8179  001A2A  0E01               	movlw	1
  8180  001A2C  EF19  F00D         	goto	u4340
  8181  001A30                     u4330:
  8182  001A30  0E00               	movlw	0
  8183  001A32                     u4340:
  8184  001A32  6E37               	movwf	_xtoa$1434^0,c
  8185  001A34  6A38               	clrf	(_xtoa$1434+1)^0,c
  8186  001A36  5037               	movf	_xtoa$1434^0,w,c
  8187  001A38  1038               	iorwf	(_xtoa$1434+1)^0,w,c
  8188  001A3A  B4D8               	btfsc	status,2,c
  8189  001A3C  EF22  F00D         	goto	u4351
  8190  001A40  EF24  F00D         	goto	u4350
  8191  001A44                     u4351:
  8192  001A44  EF2E  F00D         	goto	l4432
  8193  001A48                     u4350:
  8194  001A48                     
  8195                           ;C:\Program Files (x86)\Microchip\xc8\v2.10\pic\sources\c99\common\doprnt.c: 647:       
      +                                c = toupper(c);
  8196  001A48  C047  F00B         	movff	xtoa@c,toupper@c
  8197  001A4C  C048  F00C         	movff	xtoa@c+1,toupper@c+1
  8198  001A50  EC0B  F015         	call	_toupper	;wreg free
  8199  001A54  C00B  F047         	movff	?_toupper,xtoa@c
  8200  001A58  C00C  F048         	movff	?_toupper+1,xtoa@c+1
  8201  001A5C                     l4432:
  8202                           
  8203                           ;C:\Program Files (x86)\Microchip\xc8\v2.10\pic\sources\c99\common\doprnt.c: 649:       
      +                            dbuf[i] = (char)c;
  8204  001A5C  0E8C               	movlw	low _dbuf
  8205  001A5E  2445               	addwf	xtoa@i^0,w,c
  8206  001A60  6ED9               	movwf	fsr2l,c
  8207  001A62  0E00               	movlw	high _dbuf
  8208  001A64  2046               	addwfc	(xtoa@i+1)^0,w,c
  8209  001A66  6EDA               	movwf	fsr2h,c
  8210  001A68  C047  FFDF         	movff	xtoa@c,indf2
  8211  001A6C                     
  8212                           ;C:\Program Files (x86)\Microchip\xc8\v2.10\pic\sources\c99\common\doprnt.c: 650:       
      +                            --p;
  8213  001A6C  0639               	decf	xtoa@p^0,f,c
  8214  001A6E  A0D8               	btfss	status,0,c
  8215  001A70  063A               	decf	(xtoa@p+1)^0,f,c
  8216  001A72                     
  8217                           ;C:\Program Files (x86)\Microchip\xc8\v2.10\pic\sources\c99\common\doprnt.c: 651:       
      +                            --w;
  8218  001A72  063B               	decf	xtoa@w^0,f,c
  8219  001A74  A0D8               	btfss	status,0,c
  8220  001A76  063C               	decf	(xtoa@w+1)^0,f,c
  8221  001A78                     
  8222                           ;C:\Program Files (x86)\Microchip\xc8\v2.10\pic\sources\c99\common\doprnt.c: 652:       
      +                            n = n >> 4;
  8223  001A78  C03D  F02D         	movff	xtoa@n,??_xtoa
  8224  001A7C  C03E  F02E         	movff	xtoa@n+1,??_xtoa+1
  8225  001A80  C03F  F02F         	movff	xtoa@n+2,??_xtoa+2
  8226  001A84  C040  F030         	movff	xtoa@n+3,??_xtoa+3
  8227  001A88  C041  F031         	movff	xtoa@n+4,??_xtoa+4
  8228  001A8C  C042  F032         	movff	xtoa@n+5,??_xtoa+5
  8229  001A90  C043  F033         	movff	xtoa@n+6,??_xtoa+6
  8230  001A94  C044  F034         	movff	xtoa@n+7,??_xtoa+7
  8231  001A98  0E05               	movlw	5
  8232  001A9A  EF58  F00D         	goto	u4360
  8233  001A9E                     u4365:
  8234  001A9E  90D8               	bcf	status,0,c
  8235  001AA0  3234               	rrcf	(??_xtoa+7)^0,f,c
  8236  001AA2  3233               	rrcf	(??_xtoa+6)^0,f,c
  8237  001AA4  3232               	rrcf	(??_xtoa+5)^0,f,c
  8238  001AA6  3231               	rrcf	(??_xtoa+4)^0,f,c
  8239  001AA8  3230               	rrcf	(??_xtoa+3)^0,f,c
  8240  001AAA  322F               	rrcf	(??_xtoa+2)^0,f,c
  8241  001AAC  322E               	rrcf	(??_xtoa+1)^0,f,c
  8242  001AAE  322D               	rrcf	??_xtoa^0,f,c
  8243  001AB0                     u4360:
  8244  001AB0  2EE8               	decfsz	wreg,f,c
  8245  001AB2  EF4F  F00D         	goto	u4365
  8246  001AB6  C02D  F03D         	movff	??_xtoa,xtoa@n
  8247  001ABA  C02E  F03E         	movff	??_xtoa+1,xtoa@n+1
  8248  001ABE  C02F  F03F         	movff	??_xtoa+2,xtoa@n+2
  8249  001AC2  C030  F040         	movff	??_xtoa+3,xtoa@n+3
  8250  001AC6  C031  F041         	movff	??_xtoa+4,xtoa@n+4
  8251  001ACA  C032  F042         	movff	??_xtoa+5,xtoa@n+5
  8252  001ACE  C033  F043         	movff	??_xtoa+6,xtoa@n+6
  8253  001AD2  C034  F044         	movff	??_xtoa+7,xtoa@n+7
  8254  001AD6                     l4440:
  8255                           
  8256                           ;C:\Program Files (x86)\Microchip\xc8\v2.10\pic\sources\c99\common\doprnt.c: 642:     wh
      +                          ile (!(i < 2) && (n || (0 < p) || ((0 < w) && (flags & (1 << 1))))) {
  8257  001AD6  BE46               	btfsc	(xtoa@i+1)^0,7,c
  8258  001AD8  EF77  F00D         	goto	u4371
  8259  001ADC  5046               	movf	(xtoa@i+1)^0,w,c
  8260  001ADE  E109               	bnz	u4370
  8261  001AE0  0E02               	movlw	2
  8262  001AE2  5C45               	subwf	xtoa@i^0,w,c
  8263  001AE4  A0D8               	btfss	status,0,c
  8264  001AE6  EF77  F00D         	goto	u4371
  8265  001AEA  EF79  F00D         	goto	u4370
  8266  001AEE                     u4371:
  8267  001AEE  EFA9  F00D         	goto	l683
  8268  001AF2                     u4370:
  8269  001AF2  503D               	movf	xtoa@n^0,w,c
  8270  001AF4  103E               	iorwf	(xtoa@n+1)^0,w,c
  8271  001AF6  103F               	iorwf	(xtoa@n+2)^0,w,c
  8272  001AF8  1040               	iorwf	(xtoa@n+3)^0,w,c
  8273  001AFA  1041               	iorwf	(xtoa@n+4)^0,w,c
  8274  001AFC  1042               	iorwf	(xtoa@n+5)^0,w,c
  8275  001AFE  1043               	iorwf	(xtoa@n+6)^0,w,c
  8276  001B00  1044               	iorwf	(xtoa@n+7)^0,w,c
  8277  001B02  A4D8               	btfss	status,2,c
  8278  001B04  EF86  F00D         	goto	u4381
  8279  001B08  EF88  F00D         	goto	u4380
  8280  001B0C                     u4381:
  8281  001B0C  EFB8  F00C         	goto	l4410
  8282  001B10                     u4380:
  8283  001B10  BE3A               	btfsc	(xtoa@p+1)^0,7,c
  8284  001B12  EF95  F00D         	goto	u4390
  8285  001B16  503A               	movf	(xtoa@p+1)^0,w,c
  8286  001B18  E106               	bnz	u4391
  8287  001B1A  0439               	decf	xtoa@p^0,w,c
  8288  001B1C  B0D8               	btfsc	status,0,c
  8289  001B1E  EF93  F00D         	goto	u4391
  8290  001B22  EF95  F00D         	goto	u4390
  8291  001B26                     u4391:
  8292  001B26  EFB8  F00C         	goto	l4410
  8293  001B2A                     u4390:
  8294  001B2A  BE3C               	btfsc	(xtoa@w+1)^0,7,c
  8295  001B2C  EFA0  F00D         	goto	u4401
  8296  001B30  503C               	movf	(xtoa@w+1)^0,w,c
  8297  001B32  E108               	bnz	u4400
  8298  001B34  043B               	decf	xtoa@w^0,w,c
  8299  001B36  A0D8               	btfss	status,0,c
  8300  001B38  EFA0  F00D         	goto	u4401
  8301  001B3C  EFA2  F00D         	goto	u4400
  8302  001B40                     u4401:
  8303  001B40  EFA9  F00D         	goto	l683
  8304  001B44                     u4400:
  8305  001B44  B259               	btfsc	_flags^0,1,c
  8306  001B46  EFA7  F00D         	goto	u4411
  8307  001B4A  EFA9  F00D         	goto	u4410
  8308  001B4E                     u4411:
  8309  001B4E  EFB8  F00C         	goto	l4410
  8310  001B52                     u4410:
  8311  001B52                     l683:
  8312                           
  8313                           ;C:\Program Files (x86)\Microchip\xc8\v2.10\pic\sources\c99\common\doprnt.c: 656:     if
      +                           (flags & (1 << 4)) {
  8314  001B52  A859               	btfss	_flags^0,4,c
  8315  001B54  EFAE  F00D         	goto	u4421
  8316  001B58  EFB0  F00D         	goto	u4420
  8317  001B5C                     u4421:
  8318  001B5C  EFC6  F00D         	goto	l4456
  8319  001B60                     u4420:
  8320  001B60                     
  8321                           ;C:\Program Files (x86)\Microchip\xc8\v2.10\pic\sources\c99\common\doprnt.c: 657:       
      +                            --i;
  8322  001B60  0645               	decf	xtoa@i^0,f,c
  8323  001B62  A0D8               	btfss	status,0,c
  8324  001B64  0646               	decf	(xtoa@i+1)^0,f,c
  8325  001B66                     
  8326                           ;C:\Program Files (x86)\Microchip\xc8\v2.10\pic\sources\c99\common\doprnt.c: 658:       
      +                            dbuf[i] = x;
  8327  001B66  0E8C               	movlw	low _dbuf
  8328  001B68  2445               	addwf	xtoa@i^0,w,c
  8329  001B6A  6ED9               	movwf	fsr2l,c
  8330  001B6C  0E00               	movlw	high _dbuf
  8331  001B6E  2046               	addwfc	(xtoa@i+1)^0,w,c
  8332  001B70  6EDA               	movwf	fsr2h,c
  8333  001B72  C02C  FFDF         	movff	xtoa@x,indf2
  8334  001B76                     
  8335                           ;C:\Program Files (x86)\Microchip\xc8\v2.10\pic\sources\c99\common\doprnt.c: 659:       
      +                            --i;
  8336  001B76  0645               	decf	xtoa@i^0,f,c
  8337  001B78  A0D8               	btfss	status,0,c
  8338  001B7A  0646               	decf	(xtoa@i+1)^0,f,c
  8339                           
  8340                           ;C:\Program Files (x86)\Microchip\xc8\v2.10\pic\sources\c99\common\doprnt.c: 660:       
      +                            dbuf[i] = '0';
  8341  001B7C  0E8C               	movlw	low _dbuf
  8342  001B7E  2445               	addwf	xtoa@i^0,w,c
  8343  001B80  6ED9               	movwf	fsr2l,c
  8344  001B82  0E00               	movlw	high _dbuf
  8345  001B84  2046               	addwfc	(xtoa@i+1)^0,w,c
  8346  001B86  6EDA               	movwf	fsr2h,c
  8347  001B88  0E30               	movlw	48
  8348  001B8A  6EDF               	movwf	indf2,c
  8349  001B8C                     l4456:
  8350                           
  8351                           ;C:\Program Files (x86)\Microchip\xc8\v2.10\pic\sources\c99\common\doprnt.c: 664:     re
      +                          turn pad(fp, &dbuf[i], w);
  8352  001B8C  C022  F017         	movff	xtoa@fp,pad@fp
  8353  001B90  C023  F018         	movff	xtoa@fp+1,pad@fp+1
  8354  001B94  0E8C               	movlw	low _dbuf
  8355  001B96  2445               	addwf	xtoa@i^0,w,c
  8356  001B98  6E19               	movwf	pad@buf^0,c
  8357  001B9A  0E00               	movlw	high _dbuf
  8358  001B9C  2046               	addwfc	(xtoa@i+1)^0,w,c
  8359  001B9E  6E1A               	movwf	(pad@buf+1)^0,c
  8360  001BA0  C03B  F01B         	movff	xtoa@w,pad@p
  8361  001BA4  C03C  F01C         	movff	xtoa@w+1,pad@p+1
  8362  001BA8  ECF0  F013         	call	_pad	;wreg free
  8363  001BAC  C017  F022         	movff	?_pad,?_xtoa
  8364  001BB0  C018  F023         	movff	?_pad+1,?_xtoa+1
  8365  001BB4  0012               	return		;funcret
  8366  001BB6                     __end_of_xtoa:
  8367                           	opt callstack 0
  8368                           
  8369 ;; *************** function _toupper *****************
  8370 ;; Defined at:
  8371 ;;		line 4 in file "C:\Program Files (x86)\Microchip\xc8\v2.10\pic\sources\c99\common\toupper.c"
  8372 ;; Parameters:    Size  Location     Type
  8373 ;;  c               2   10[COMRAM] int 
  8374 ;; Auto vars:     Size  Location     Type
  8375 ;;		None
  8376 ;; Return value:  Size  Location     Type
  8377 ;;                  2   10[COMRAM] int 
  8378 ;; Registers used:
  8379 ;;		wreg, status,2, status,0
  8380 ;; Tracked objects:
  8381 ;;		On entry : 0/0
  8382 ;;		On exit  : 0/0
  8383 ;;		Unchanged: 0/0
  8384 ;; Data sizes:     COMRAM   BANK0   BANK1   BANK2   BANK3   BANK4   BANK5   BANK6   BANK7   BANK8   BANK9  BANK10  BANK1
      +1  BANK12  BANK13  BANK14  BANK15
  8385 ;;      Params:         2       0       0       0       0       0       0       0       0       0       0       0       
      +0       0       0       0       0
  8386 ;;      Locals:         2       0       0       0       0       0       0       0       0       0       0       0       
      +0       0       0       0       0
  8387 ;;      Temps:          4       0       0       0       0       0       0       0       0       0       0       0       
      +0       0       0       0       0
  8388 ;;      Totals:         8       0       0       0       0       0       0       0       0       0       0       0       
      +0       0       0       0       0
  8389 ;;Total ram usage:        8 bytes
  8390 ;; Hardware stack levels used:    1
  8391 ;; Hardware stack levels required when called:    4
  8392 ;; This function calls:
  8393 ;;		_islower
  8394 ;; This function is called by:
  8395 ;;		_xtoa
  8396 ;; This function uses a non-reentrant model
  8397 ;;
  8398                           
  8399                           	psect	text35
  8400  002A16                     __ptext35:
  8401                           	opt callstack 0
  8402  002A16                     _toupper:
  8403                           	opt callstack 21
  8404  002A16  0E9F               	movlw	159
  8405  002A18  6E0D               	movwf	??_toupper^0,c
  8406  002A1A  0EFF               	movlw	255
  8407  002A1C  6E0E               	movwf	(??_toupper+1)^0,c
  8408  002A1E  C00B  F00F         	movff	toupper@c,??_toupper+2
  8409  002A22  C00C  F010         	movff	toupper@c+1,??_toupper+3
  8410  002A26  500D               	movf	??_toupper^0,w,c
  8411  002A28  260F               	addwf	(??_toupper+2)^0,f,c
  8412  002A2A  500E               	movf	(??_toupper+1)^0,w,c
  8413  002A2C  2210               	addwfc	(??_toupper+3)^0,f,c
  8414  002A2E  5010               	movf	(??_toupper+3)^0,w,c
  8415  002A30  E10A               	bnz	u4080
  8416  002A32  0E1A               	movlw	26
  8417  002A34  5C0F               	subwf	(??_toupper+2)^0,w,c
  8418  002A36  A0D8               	btfss	status,0,c
  8419  002A38  EF20  F015         	goto	u4081
  8420  002A3C  EF23  F015         	goto	u4080
  8421  002A40                     u4081:
  8422  002A40  0E01               	movlw	1
  8423  002A42  EF24  F015         	goto	u4090
  8424  002A46                     u4080:
  8425  002A46  0E00               	movlw	0
  8426  002A48                     u4090:
  8427  002A48  6E11               	movwf	_toupper$1991^0,c
  8428  002A4A  6A12               	clrf	(_toupper$1991+1)^0,c
  8429  002A4C  5011               	movf	_toupper$1991^0,w,c
  8430  002A4E  1012               	iorwf	(_toupper$1991+1)^0,w,c
  8431  002A50  B4D8               	btfsc	status,2,c
  8432  002A52  EF2D  F015         	goto	u4101
  8433  002A56  EF2F  F015         	goto	u4100
  8434  002A5A                     u4101:
  8435  002A5A  EF35  F015         	goto	l1448
  8436  002A5E                     u4100:
  8437  002A5E  0E5F               	movlw	95
  8438  002A60  140B               	andwf	toupper@c^0,w,c
  8439  002A62  6E0B               	movwf	?_toupper^0,c
  8440  002A64  6A0C               	clrf	(?_toupper+1)^0,c
  8441  002A66  EF39  F015         	goto	l1453
  8442  002A6A                     l1448:
  8443  002A6A  C00B  F00B         	movff	toupper@c,?_toupper
  8444  002A6E  C00C  F00C         	movff	toupper@c+1,?_toupper+1
  8445  002A72                     l1453:
  8446  002A72  0012               	return		;funcret
  8447  002A74                     __end_of_toupper:
  8448                           	opt callstack 0
  8449                           
  8450 ;; *************** function _islower *****************
  8451 ;; Defined at:
  8452 ;;		line 5 in file "C:\Program Files (x86)\Microchip\xc8\v2.10\pic\sources\c99\common\islower.c"
  8453 ;; Parameters:    Size  Location     Type
  8454 ;;  c               2    4[COMRAM] int 
  8455 ;; Auto vars:     Size  Location     Type
  8456 ;;		None
  8457 ;; Return value:  Size  Location     Type
  8458 ;;                  2    4[COMRAM] int 
  8459 ;; Registers used:
  8460 ;;		wreg, status,2, status,0
  8461 ;; Tracked objects:
  8462 ;;		On entry : 0/0
  8463 ;;		On exit  : 0/0
  8464 ;;		Unchanged: 0/0
  8465 ;; Data sizes:     COMRAM   BANK0   BANK1   BANK2   BANK3   BANK4   BANK5   BANK6   BANK7   BANK8   BANK9  BANK10  BANK1
      +1  BANK12  BANK13  BANK14  BANK15
  8466 ;;      Params:         2       0       0       0       0       0       0       0       0       0       0       0       
      +0       0       0       0       0
  8467 ;;      Locals:         0       0       0       0       0       0       0       0       0       0       0       0       
      +0       0       0       0       0
  8468 ;;      Temps:          4       0       0       0       0       0       0       0       0       0       0       0       
      +0       0       0       0       0
  8469 ;;      Totals:         6       0       0       0       0       0       0       0       0       0       0       0       
      +0       0       0       0       0
  8470 ;;Total ram usage:        6 bytes
  8471 ;; Hardware stack levels used:    1
  8472 ;; Hardware stack levels required when called:    3
  8473 ;; This function calls:
  8474 ;;		Nothing
  8475 ;; This function is called by:
  8476 ;;		_toupper
  8477 ;; This function uses a non-reentrant model
  8478 ;;
  8479                           
  8480                           	psect	text36
  8481  002D0E                     __ptext36:
  8482                           	opt callstack 0
  8483  002D0E                     _islower:
  8484                           	opt callstack 21
  8485  002D0E  0E9F               	movlw	159
  8486  002D10  6E07               	movwf	??_islower^0,c
  8487  002D12  0EFF               	movlw	255
  8488  002D14  6E08               	movwf	(??_islower+1)^0,c
  8489  002D16  C005  F009         	movff	islower@c,??_islower+2
  8490  002D1A  C006  F00A         	movff	islower@c+1,??_islower+3
  8491  002D1E  5007               	movf	??_islower^0,w,c
  8492  002D20  2609               	addwf	(??_islower+2)^0,f,c
  8493  002D22  5008               	movf	(??_islower+1)^0,w,c
  8494  002D24  220A               	addwfc	(??_islower+3)^0,f,c
  8495  002D26  500A               	movf	(??_islower+3)^0,w,c
  8496  002D28  E10A               	bnz	u3980
  8497  002D2A  0E1A               	movlw	26
  8498  002D2C  5C09               	subwf	(??_islower+2)^0,w,c
  8499  002D2E  A0D8               	btfss	status,0,c
  8500  002D30  EF9C  F016         	goto	u3981
  8501  002D34  EF9F  F016         	goto	u3980
  8502  002D38                     u3981:
  8503  002D38  0E01               	movlw	1
  8504  002D3A  EFA0  F016         	goto	u3990
  8505  002D3E                     u3980:
  8506  002D3E  0E00               	movlw	0
  8507  002D40                     u3990:
  8508  002D40  6E05               	movwf	?_islower^0,c
  8509  002D42  6A06               	clrf	(?_islower+1)^0,c
  8510  002D44  0012               	return		;funcret
  8511  002D46                     __end_of_islower:
  8512                           	opt callstack 0
  8513                           
  8514 ;; *************** function _isupper *****************
  8515 ;; Defined at:
  8516 ;;		line 5 in file "C:\Program Files (x86)\Microchip\xc8\v2.10\pic\sources\c99\common\isupper.c"
  8517 ;; Parameters:    Size  Location     Type
  8518 ;;  c               2    4[COMRAM] int 
  8519 ;; Auto vars:     Size  Location     Type
  8520 ;;		None
  8521 ;; Return value:  Size  Location     Type
  8522 ;;                  2    4[COMRAM] int 
  8523 ;; Registers used:
  8524 ;;		wreg, status,2, status,0
  8525 ;; Tracked objects:
  8526 ;;		On entry : 0/0
  8527 ;;		On exit  : 0/0
  8528 ;;		Unchanged: 0/0
  8529 ;; Data sizes:     COMRAM   BANK0   BANK1   BANK2   BANK3   BANK4   BANK5   BANK6   BANK7   BANK8   BANK9  BANK10  BANK1
      +1  BANK12  BANK13  BANK14  BANK15
  8530 ;;      Params:         2       0       0       0       0       0       0       0       0       0       0       0       
      +0       0       0       0       0
  8531 ;;      Locals:         0       0       0       0       0       0       0       0       0       0       0       0       
      +0       0       0       0       0
  8532 ;;      Temps:          4       0       0       0       0       0       0       0       0       0       0       0       
      +0       0       0       0       0
  8533 ;;      Totals:         6       0       0       0       0       0       0       0       0       0       0       0       
      +0       0       0       0       0
  8534 ;;Total ram usage:        6 bytes
  8535 ;; Hardware stack levels used:    1
  8536 ;; Hardware stack levels required when called:    3
  8537 ;; This function calls:
  8538 ;;		Nothing
  8539 ;; This function is called by:
  8540 ;;		_xtoa
  8541 ;; This function uses a non-reentrant model
  8542 ;;
  8543                           
  8544                           	psect	text37
  8545  002D46                     __ptext37:
  8546                           	opt callstack 0
  8547  002D46                     _isupper:
  8548                           	opt callstack 22
  8549  002D46  0EBF               	movlw	191
  8550  002D48  6E07               	movwf	??_isupper^0,c
  8551  002D4A  0EFF               	movlw	255
  8552  002D4C  6E08               	movwf	(??_isupper+1)^0,c
  8553  002D4E  C005  F009         	movff	isupper@c,??_isupper+2
  8554  002D52  C006  F00A         	movff	isupper@c+1,??_isupper+3
  8555  002D56  5007               	movf	??_isupper^0,w,c
  8556  002D58  2609               	addwf	(??_isupper+2)^0,f,c
  8557  002D5A  5008               	movf	(??_isupper+1)^0,w,c
  8558  002D5C  220A               	addwfc	(??_isupper+3)^0,f,c
  8559  002D5E  500A               	movf	(??_isupper+3)^0,w,c
  8560  002D60  E10A               	bnz	u4040
  8561  002D62  0E1A               	movlw	26
  8562  002D64  5C09               	subwf	(??_isupper+2)^0,w,c
  8563  002D66  A0D8               	btfss	status,0,c
  8564  002D68  EFB8  F016         	goto	u4041
  8565  002D6C  EFBB  F016         	goto	u4040
  8566  002D70                     u4041:
  8567  002D70  0E01               	movlw	1
  8568  002D72  EFBC  F016         	goto	u4050
  8569  002D76                     u4040:
  8570  002D76  0E00               	movlw	0
  8571  002D78                     u4050:
  8572  002D78  6E05               	movwf	?_isupper^0,c
  8573  002D7A  6A06               	clrf	(?_isupper+1)^0,c
  8574  002D7C  0012               	return		;funcret
  8575  002D7E                     __end_of_isupper:
  8576                           	opt callstack 0
  8577                           
  8578 ;; *************** function _isalpha *****************
  8579 ;; Defined at:
  8580 ;;		line 5 in file "C:\Program Files (x86)\Microchip\xc8\v2.10\pic\sources\c99\common\isalpha.c"
  8581 ;; Parameters:    Size  Location     Type
  8582 ;;  c               2    4[COMRAM] int 
  8583 ;; Auto vars:     Size  Location     Type
  8584 ;;		None
  8585 ;; Return value:  Size  Location     Type
  8586 ;;                  2    4[COMRAM] int 
  8587 ;; Registers used:
  8588 ;;		wreg, status,2, status,0
  8589 ;; Tracked objects:
  8590 ;;		On entry : 0/0
  8591 ;;		On exit  : 0/0
  8592 ;;		Unchanged: 0/0
  8593 ;; Data sizes:     COMRAM   BANK0   BANK1   BANK2   BANK3   BANK4   BANK5   BANK6   BANK7   BANK8   BANK9  BANK10  BANK1
      +1  BANK12  BANK13  BANK14  BANK15
  8594 ;;      Params:         2       0       0       0       0       0       0       0       0       0       0       0       
      +0       0       0       0       0
  8595 ;;      Locals:         0       0       0       0       0       0       0       0       0       0       0       0       
      +0       0       0       0       0
  8596 ;;      Temps:          4       0       0       0       0       0       0       0       0       0       0       0       
      +0       0       0       0       0
  8597 ;;      Totals:         6       0       0       0       0       0       0       0       0       0       0       0       
      +0       0       0       0       0
  8598 ;;Total ram usage:        6 bytes
  8599 ;; Hardware stack levels used:    1
  8600 ;; Hardware stack levels required when called:    3
  8601 ;; This function calls:
  8602 ;;		Nothing
  8603 ;; This function is called by:
  8604 ;;		_xtoa
  8605 ;; This function uses a non-reentrant model
  8606 ;;
  8607                           
  8608                           	psect	text38
  8609  002C98                     __ptext38:
  8610                           	opt callstack 0
  8611  002C98                     _isalpha:
  8612                           	opt callstack 22
  8613  002C98  0E9F               	movlw	159
  8614  002C9A  6E07               	movwf	??_isalpha^0,c
  8615  002C9C  0EFF               	movlw	255
  8616  002C9E  6E08               	movwf	(??_isalpha+1)^0,c
  8617  002CA0  0E20               	movlw	32
  8618  002CA2  1005               	iorwf	isalpha@c^0,w,c
  8619  002CA4  6E09               	movwf	(??_isalpha+2)^0,c
  8620  002CA6  0E00               	movlw	0
  8621  002CA8  1006               	iorwf	(isalpha@c+1)^0,w,c
  8622  002CAA  6E0A               	movwf	(??_isalpha+3)^0,c
  8623  002CAC  5007               	movf	??_isalpha^0,w,c
  8624  002CAE  2609               	addwf	(??_isalpha+2)^0,f,c
  8625  002CB0  5008               	movf	(??_isalpha+1)^0,w,c
  8626  002CB2  220A               	addwfc	(??_isalpha+3)^0,f,c
  8627  002CB4  500A               	movf	(??_isalpha+3)^0,w,c
  8628  002CB6  E10A               	bnz	u4060
  8629  002CB8  0E1A               	movlw	26
  8630  002CBA  5C09               	subwf	(??_isalpha+2)^0,w,c
  8631  002CBC  A0D8               	btfss	status,0,c
  8632  002CBE  EF63  F016         	goto	u4061
  8633  002CC2  EF66  F016         	goto	u4060
  8634  002CC6                     u4061:
  8635  002CC6  0E01               	movlw	1
  8636  002CC8  EF67  F016         	goto	u4070
  8637  002CCC                     u4060:
  8638  002CCC  0E00               	movlw	0
  8639  002CCE                     u4070:
  8640  002CCE  6E05               	movwf	?_isalpha^0,c
  8641  002CD0  6A06               	clrf	(?_isalpha+1)^0,c
  8642  002CD2  0012               	return		;funcret
  8643  002CD4                     __end_of_isalpha:
  8644                           	opt callstack 0
  8645                           
  8646 ;; *************** function _utoa *****************
  8647 ;; Defined at:
  8648 ;;		line 593 in file "C:\Program Files (x86)\Microchip\xc8\v2.10\pic\sources\c99\common\doprnt.c"
  8649 ;; Parameters:    Size  Location     Type
  8650 ;;  fp              2   33[COMRAM] PTR struct _IO_FILE
  8651 ;;		 -> NULL(0), 
  8652 ;;  d               8   35[COMRAM] unsigned long long 
  8653 ;; Auto vars:     Size  Location     Type
  8654 ;;  n               8   55[COMRAM] unsigned long long 
  8655 ;;  i               2   63[COMRAM] int 
  8656 ;;  w               2   53[COMRAM] int 
  8657 ;;  p               2   51[COMRAM] int 
  8658 ;; Return value:  Size  Location     Type
  8659 ;;                  2   33[COMRAM] int 
  8660 ;; Registers used:
  8661 ;;		wreg, fsr1l, fsr1h, fsr2l, fsr2h, status,2, status,0, cstack
  8662 ;; Tracked objects:
  8663 ;;		On entry : 0/0
  8664 ;;		On exit  : 0/0
  8665 ;;		Unchanged: 0/0
  8666 ;; Data sizes:     COMRAM   BANK0   BANK1   BANK2   BANK3   BANK4   BANK5   BANK6   BANK7   BANK8   BANK9  BANK10  BANK1
      +1  BANK12  BANK13  BANK14  BANK15
  8667 ;;      Params:        10       0       0       0       0       0       0       0       0       0       0       0       
      +0       0       0       0       0
  8668 ;;      Locals:        14       0       0       0       0       0       0       0       0       0       0       0       
      +0       0       0       0       0
  8669 ;;      Temps:          8       0       0       0       0       0       0       0       0       0       0       0       
      +0       0       0       0       0
  8670 ;;      Totals:        32       0       0       0       0       0       0       0       0       0       0       0       
      +0       0       0       0       0
  8671 ;;Total ram usage:       32 bytes
  8672 ;; Hardware stack levels used:    1
  8673 ;; Hardware stack levels required when called:    8
  8674 ;; This function calls:
  8675 ;;		___lodiv
  8676 ;;		___lomod
  8677 ;;		_pad
  8678 ;; This function is called by:
  8679 ;;		_vfpfcnvrt
  8680 ;; This function uses a non-reentrant model
  8681 ;;
  8682                           
  8683                           	psect	text39
  8684  001BB6                     __ptext39:
  8685                           	opt callstack 0
  8686  001BB6                     _utoa:
  8687                           	opt callstack 18
  8688  001BB6                     
  8689                           ;C:\Program Files (x86)\Microchip\xc8\v2.10\pic\sources\c99\common\doprnt.c: 593: static
      +                           int utoa(FILE *fp, unsigned long long d);C:\Program Files (x86)\Microchip\xc8\v2.10\pic
      +                          \sources\c99\common\doprnt.c: 594: {;C:\Program Files (x86)\Microchip\xc8\v2.10\pic\sour
      +                          ces\c99\common\doprnt.c: 595:     int i, p, w;;C:\Program Files (x86)\Microchip\xc8\v2.1
      +                          0\pic\sources\c99\common\doprnt.c: 596:     unsigned long long n;;C:\Program Files (x86)
      +                          \Microchip\xc8\v2.10\pic\sources\c99\common\doprnt.c: 599:     if (!(prec < 0)) {
  8690  001BB6  BE58               	btfsc	(_prec+1)^0,7,c
  8691  001BB8  EFE0  F00D         	goto	u4191
  8692  001BBC  EFE2  F00D         	goto	u4190
  8693  001BC0                     u4191:
  8694  001BC0  EFE3  F00D         	goto	l4362
  8695  001BC4                     u4190:
  8696  001BC4                     
  8697                           ;C:\Program Files (x86)\Microchip\xc8\v2.10\pic\sources\c99\common\doprnt.c: 600:       
      +                            flags &= ~(1 << 1);
  8698  001BC4  9259               	bcf	_flags^0,1,c
  8699  001BC6                     l4362:
  8700                           
  8701                           ;C:\Program Files (x86)\Microchip\xc8\v2.10\pic\sources\c99\common\doprnt.c: 602:     p 
      +                          = (0 < prec) ? prec : 1;
  8702  001BC6  BE58               	btfsc	(_prec+1)^0,7,c
  8703  001BC8  EFF0  F00D         	goto	u4200
  8704  001BCC  5058               	movf	(_prec+1)^0,w,c
  8705  001BCE  E106               	bnz	u4201
  8706  001BD0  0457               	decf	_prec^0,w,c
  8707  001BD2  B0D8               	btfsc	status,0,c
  8708  001BD4  EFEE  F00D         	goto	u4201
  8709  001BD8  EFF0  F00D         	goto	u4200
  8710  001BDC                     u4201:
  8711  001BDC  EFF6  F00D         	goto	l645
  8712  001BE0                     u4200:
  8713  001BE0  0E00               	movlw	0
  8714  001BE2  6E35               	movwf	(utoa@p+1)^0,c
  8715  001BE4  0E01               	movlw	1
  8716  001BE6  6E34               	movwf	utoa@p^0,c
  8717  001BE8  EFFA  F00D         	goto	l647
  8718  001BEC                     l645:
  8719  001BEC  C057  F034         	movff	_prec,utoa@p
  8720  001BF0  C058  F035         	movff	_prec+1,utoa@p+1
  8721  001BF4                     l647:
  8722                           
  8723                           ;C:\Program Files (x86)\Microchip\xc8\v2.10\pic\sources\c99\common\doprnt.c: 603:     w 
      +                          = width;
  8724  001BF4  C076  F036         	movff	_width,utoa@w
  8725  001BF8  C077  F037         	movff	_width+1,utoa@w+1
  8726                           
  8727                           ;C:\Program Files (x86)\Microchip\xc8\v2.10\pic\sources\c99\common\doprnt.c: 606:     n 
      +                          = d;
  8728  001BFC  C024  F038         	movff	utoa@d,utoa@n
  8729  001C00  C025  F039         	movff	utoa@d+1,utoa@n+1
  8730  001C04  C026  F03A         	movff	utoa@d+2,utoa@n+2
  8731  001C08  C027  F03B         	movff	utoa@d+3,utoa@n+3
  8732  001C0C  C028  F03C         	movff	utoa@d+4,utoa@n+4
  8733  001C10  C029  F03D         	movff	utoa@d+5,utoa@n+5
  8734  001C14  C02A  F03E         	movff	utoa@d+6,utoa@n+6
  8735  001C18  C02B  F03F         	movff	utoa@d+7,utoa@n+7
  8736  001C1C                     
  8737                           ;C:\Program Files (x86)\Microchip\xc8\v2.10\pic\sources\c99\common\doprnt.c: 607:     i 
      +                          = sizeof(dbuf) - 1;
  8738  001C1C  0E00               	movlw	0
  8739  001C1E  6E41               	movwf	(utoa@i+1)^0,c
  8740  001C20  0E1F               	movlw	31
  8741  001C22  6E40               	movwf	utoa@i^0,c
  8742  001C24                     
  8743                           ;C:\Program Files (x86)\Microchip\xc8\v2.10\pic\sources\c99\common\doprnt.c: 608:     db
      +                          uf[i] = '\0';
  8744  001C24  0E00               	movlw	0
  8745  001C26  0100               	movlb	0	; () banked
  8746  001C28  6FAB               	movwf	(_dbuf+31)& (0+255),b
  8747                           
  8748                           ;C:\Program Files (x86)\Microchip\xc8\v2.10\pic\sources\c99\common\doprnt.c: 609:     wh
      +                          ile (i && (n || (0 < p) || ((0 < w) && (flags & (1 << 1))))) {
  8749  001C2A  EF8D  F00E         	goto	l4380
  8750  001C2E                     l4370:
  8751                           
  8752                           ;C:\Program Files (x86)\Microchip\xc8\v2.10\pic\sources\c99\common\doprnt.c: 610:       
      +                            --i;
  8753  001C2E  0640               	decf	utoa@i^0,f,c
  8754  001C30  A0D8               	btfss	status,0,c
  8755  001C32  0641               	decf	(utoa@i+1)^0,f,c
  8756  001C34                     
  8757                           ;C:\Program Files (x86)\Microchip\xc8\v2.10\pic\sources\c99\common\doprnt.c: 611:       
      +                            dbuf[i] = '0' + (n % 10);
  8758  001C34  0E8C               	movlw	low _dbuf
  8759  001C36  2440               	addwf	utoa@i^0,w,c
  8760  001C38  6ED9               	movwf	fsr2l,c
  8761  001C3A  0E00               	movlw	high _dbuf
  8762  001C3C  2041               	addwfc	(utoa@i+1)^0,w,c
  8763  001C3E  6EDA               	movwf	fsr2h,c
  8764  001C40  C038  F005         	movff	utoa@n,___lomod@dividend
  8765  001C44  C039  F006         	movff	utoa@n+1,___lomod@dividend+1
  8766  001C48  C03A  F007         	movff	utoa@n+2,___lomod@dividend+2
  8767  001C4C  C03B  F008         	movff	utoa@n+3,___lomod@dividend+3
  8768  001C50  C03C  F009         	movff	utoa@n+4,___lomod@dividend+4
  8769  001C54  C03D  F00A         	movff	utoa@n+5,___lomod@dividend+5
  8770  001C58  C03E  F00B         	movff	utoa@n+6,___lomod@dividend+6
  8771  001C5C  C03F  F00C         	movff	utoa@n+7,___lomod@dividend+7
  8772  001C60  0E0A               	movlw	10
  8773  001C62  6E0D               	movwf	___lomod@divisor^0,c
  8774  001C64  0E00               	movlw	0
  8775  001C66  6E0E               	movwf	(___lomod@divisor+1)^0,c
  8776  001C68  0E00               	movlw	0
  8777  001C6A  6E0F               	movwf	(___lomod@divisor+2)^0,c
  8778  001C6C  0E00               	movlw	0
  8779  001C6E  6E10               	movwf	(___lomod@divisor+3)^0,c
  8780  001C70  0E00               	movlw	0
  8781  001C72  6E11               	movwf	(___lomod@divisor+4)^0,c
  8782  001C74  0E00               	movlw	0
  8783  001C76  6E12               	movwf	(___lomod@divisor+5)^0,c
  8784  001C78  0E00               	movlw	0
  8785  001C7A  6E13               	movwf	(___lomod@divisor+6)^0,c
  8786  001C7C  0E00               	movlw	0
  8787  001C7E  6E14               	movwf	(___lomod@divisor+7)^0,c
  8788  001C80  EC25  F013         	call	___lomod	;wreg free
  8789  001C84  C005  F02C         	movff	?___lomod,??_utoa
  8790  001C88  C006  F02D         	movff	?___lomod+1,??_utoa+1
  8791  001C8C  C007  F02E         	movff	?___lomod+2,??_utoa+2
  8792  001C90  C008  F02F         	movff	?___lomod+3,??_utoa+3
  8793  001C94  C009  F030         	movff	?___lomod+4,??_utoa+4
  8794  001C98  C00A  F031         	movff	?___lomod+5,??_utoa+5
  8795  001C9C  C00B  F032         	movff	?___lomod+6,??_utoa+6
  8796  001CA0  C00C  F033         	movff	?___lomod+7,??_utoa+7
  8797  001CA4  502C               	movf	??_utoa^0,w,c
  8798  001CA6  0F30               	addlw	48
  8799  001CA8  6EDF               	movwf	indf2,c
  8800  001CAA                     
  8801                           ;C:\Program Files (x86)\Microchip\xc8\v2.10\pic\sources\c99\common\doprnt.c: 612:       
      +                            --p;
  8802  001CAA  0634               	decf	utoa@p^0,f,c
  8803  001CAC  A0D8               	btfss	status,0,c
  8804  001CAE  0635               	decf	(utoa@p+1)^0,f,c
  8805  001CB0                     
  8806                           ;C:\Program Files (x86)\Microchip\xc8\v2.10\pic\sources\c99\common\doprnt.c: 613:       
      +                            --w;
  8807  001CB0  0636               	decf	utoa@w^0,f,c
  8808  001CB2  A0D8               	btfss	status,0,c
  8809  001CB4  0637               	decf	(utoa@w+1)^0,f,c
  8810  001CB6                     
  8811                           ;C:\Program Files (x86)\Microchip\xc8\v2.10\pic\sources\c99\common\doprnt.c: 614:       
      +                            n = n / 10;
  8812  001CB6  C038  F005         	movff	utoa@n,___lodiv@dividend
  8813  001CBA  C039  F006         	movff	utoa@n+1,___lodiv@dividend+1
  8814  001CBE  C03A  F007         	movff	utoa@n+2,___lodiv@dividend+2
  8815  001CC2  C03B  F008         	movff	utoa@n+3,___lodiv@dividend+3
  8816  001CC6  C03C  F009         	movff	utoa@n+4,___lodiv@dividend+4
  8817  001CCA  C03D  F00A         	movff	utoa@n+5,___lodiv@dividend+5
  8818  001CCE  C03E  F00B         	movff	utoa@n+6,___lodiv@dividend+6
  8819  001CD2  C03F  F00C         	movff	utoa@n+7,___lodiv@dividend+7
  8820  001CD6  0E0A               	movlw	10
  8821  001CD8  6E0D               	movwf	___lodiv@divisor^0,c
  8822  001CDA  0E00               	movlw	0
  8823  001CDC  6E0E               	movwf	(___lodiv@divisor+1)^0,c
  8824  001CDE  0E00               	movlw	0
  8825  001CE0  6E0F               	movwf	(___lodiv@divisor+2)^0,c
  8826  001CE2  0E00               	movlw	0
  8827  001CE4  6E10               	movwf	(___lodiv@divisor+3)^0,c
  8828  001CE6  0E00               	movlw	0
  8829  001CE8  6E11               	movwf	(___lodiv@divisor+4)^0,c
  8830  001CEA  0E00               	movlw	0
  8831  001CEC  6E12               	movwf	(___lodiv@divisor+5)^0,c
  8832  001CEE  0E00               	movlw	0
  8833  001CF0  6E13               	movwf	(___lodiv@divisor+6)^0,c
  8834  001CF2  0E00               	movlw	0
  8835  001CF4  6E14               	movwf	(___lodiv@divisor+7)^0,c
  8836  001CF6  EC38  F012         	call	___lodiv	;wreg free
  8837  001CFA  C005  F038         	movff	?___lodiv,utoa@n
  8838  001CFE  C006  F039         	movff	?___lodiv+1,utoa@n+1
  8839  001D02  C007  F03A         	movff	?___lodiv+2,utoa@n+2
  8840  001D06  C008  F03B         	movff	?___lodiv+3,utoa@n+3
  8841  001D0A  C009  F03C         	movff	?___lodiv+4,utoa@n+4
  8842  001D0E  C00A  F03D         	movff	?___lodiv+5,utoa@n+5
  8843  001D12  C00B  F03E         	movff	?___lodiv+6,utoa@n+6
  8844  001D16  C00C  F03F         	movff	?___lodiv+7,utoa@n+7
  8845  001D1A                     l4380:
  8846                           
  8847                           ;C:\Program Files (x86)\Microchip\xc8\v2.10\pic\sources\c99\common\doprnt.c: 609:     wh
      +                          ile (i && (n || (0 < p) || ((0 < w) && (flags & (1 << 1))))) {
  8848  001D1A  5040               	movf	utoa@i^0,w,c
  8849  001D1C  1041               	iorwf	(utoa@i+1)^0,w,c
  8850  001D1E  B4D8               	btfsc	status,2,c
  8851  001D20  EF94  F00E         	goto	u4211
  8852  001D24  EF96  F00E         	goto	u4210
  8853  001D28                     u4211:
  8854  001D28  EFC6  F00E         	goto	l4390
  8855  001D2C                     u4210:
  8856  001D2C  5038               	movf	utoa@n^0,w,c
  8857  001D2E  1039               	iorwf	(utoa@n+1)^0,w,c
  8858  001D30  103A               	iorwf	(utoa@n+2)^0,w,c
  8859  001D32  103B               	iorwf	(utoa@n+3)^0,w,c
  8860  001D34  103C               	iorwf	(utoa@n+4)^0,w,c
  8861  001D36  103D               	iorwf	(utoa@n+5)^0,w,c
  8862  001D38  103E               	iorwf	(utoa@n+6)^0,w,c
  8863  001D3A  103F               	iorwf	(utoa@n+7)^0,w,c
  8864  001D3C  A4D8               	btfss	status,2,c
  8865  001D3E  EFA3  F00E         	goto	u4221
  8866  001D42  EFA5  F00E         	goto	u4220
  8867  001D46                     u4221:
  8868  001D46  EF17  F00E         	goto	l4370
  8869  001D4A                     u4220:
  8870  001D4A  BE35               	btfsc	(utoa@p+1)^0,7,c
  8871  001D4C  EFB2  F00E         	goto	u4230
  8872  001D50  5035               	movf	(utoa@p+1)^0,w,c
  8873  001D52  E106               	bnz	u4231
  8874  001D54  0434               	decf	utoa@p^0,w,c
  8875  001D56  B0D8               	btfsc	status,0,c
  8876  001D58  EFB0  F00E         	goto	u4231
  8877  001D5C  EFB2  F00E         	goto	u4230
  8878  001D60                     u4231:
  8879  001D60  EF17  F00E         	goto	l4370
  8880  001D64                     u4230:
  8881  001D64  BE37               	btfsc	(utoa@w+1)^0,7,c
  8882  001D66  EFBD  F00E         	goto	u4241
  8883  001D6A  5037               	movf	(utoa@w+1)^0,w,c
  8884  001D6C  E108               	bnz	u4240
  8885  001D6E  0436               	decf	utoa@w^0,w,c
  8886  001D70  A0D8               	btfss	status,0,c
  8887  001D72  EFBD  F00E         	goto	u4241
  8888  001D76  EFBF  F00E         	goto	u4240
  8889  001D7A                     u4241:
  8890  001D7A  EFC6  F00E         	goto	l4390
  8891  001D7E                     u4240:
  8892  001D7E  B259               	btfsc	_flags^0,1,c
  8893  001D80  EFC4  F00E         	goto	u4251
  8894  001D84  EFC6  F00E         	goto	u4250
  8895  001D88                     u4251:
  8896  001D88  EF17  F00E         	goto	l4370
  8897  001D8C                     u4250:
  8898  001D8C                     l4390:
  8899                           
  8900                           ;C:\Program Files (x86)\Microchip\xc8\v2.10\pic\sources\c99\common\doprnt.c: 618:     re
      +                          turn pad(fp, &dbuf[i], w);
  8901  001D8C  C022  F017         	movff	utoa@fp,pad@fp
  8902  001D90  C023  F018         	movff	utoa@fp+1,pad@fp+1
  8903  001D94  0E8C               	movlw	low _dbuf
  8904  001D96  2440               	addwf	utoa@i^0,w,c
  8905  001D98  6E19               	movwf	pad@buf^0,c
  8906  001D9A  0E00               	movlw	high _dbuf
  8907  001D9C  2041               	addwfc	(utoa@i+1)^0,w,c
  8908  001D9E  6E1A               	movwf	(pad@buf+1)^0,c
  8909  001DA0  C036  F01B         	movff	utoa@w,pad@p
  8910  001DA4  C037  F01C         	movff	utoa@w+1,pad@p+1
  8911  001DA8  ECF0  F013         	call	_pad	;wreg free
  8912  001DAC  C017  F022         	movff	?_pad,?_utoa
  8913  001DB0  C018  F023         	movff	?_pad+1,?_utoa+1
  8914  001DB4  0012               	return		;funcret
  8915  001DB6                     __end_of_utoa:
  8916                           	opt callstack 0
  8917                           
  8918 ;; *************** function ___lomod *****************
  8919 ;; Defined at:
  8920 ;;		line 9 in file "C:\Program Files (x86)\Microchip\xc8\v2.10\pic\sources\c99\common\lomod.c"
  8921 ;; Parameters:    Size  Location     Type
  8922 ;;  dividend        8    4[COMRAM] unsigned long long 
  8923 ;;  divisor         8   12[COMRAM] unsigned long long 
  8924 ;; Auto vars:     Size  Location     Type
  8925 ;;  counter         1   20[COMRAM] unsigned char 
  8926 ;; Return value:  Size  Location     Type
  8927 ;;                  8    4[COMRAM] unsigned long long 
  8928 ;; Registers used:
  8929 ;;		wreg, status,2, status,0
  8930 ;; Tracked objects:
  8931 ;;		On entry : 0/0
  8932 ;;		On exit  : 0/0
  8933 ;;		Unchanged: 0/0
  8934 ;; Data sizes:     COMRAM   BANK0   BANK1   BANK2   BANK3   BANK4   BANK5   BANK6   BANK7   BANK8   BANK9  BANK10  BANK1
      +1  BANK12  BANK13  BANK14  BANK15
  8935 ;;      Params:        16       0       0       0       0       0       0       0       0       0       0       0       
      +0       0       0       0       0
  8936 ;;      Locals:         1       0       0       0       0       0       0       0       0       0       0       0       
      +0       0       0       0       0
  8937 ;;      Temps:          0       0       0       0       0       0       0       0       0       0       0       0       
      +0       0       0       0       0
  8938 ;;      Totals:        17       0       0       0       0       0       0       0       0       0       0       0       
      +0       0       0       0       0
  8939 ;;Total ram usage:       17 bytes
  8940 ;; Hardware stack levels used:    1
  8941 ;; Hardware stack levels required when called:    3
  8942 ;; This function calls:
  8943 ;;		Nothing
  8944 ;; This function is called by:
  8945 ;;		_utoa
  8946 ;; This function uses a non-reentrant model
  8947 ;;
  8948                           
  8949                           	psect	text40
  8950  00264A                     __ptext40:
  8951                           	opt callstack 0
  8952  00264A                     ___lomod:
  8953                           	opt callstack 22
  8954  00264A  500D               	movf	___lomod@divisor^0,w,c
  8955  00264C  100E               	iorwf	(___lomod@divisor+1)^0,w,c
  8956  00264E  100F               	iorwf	(___lomod@divisor+2)^0,w,c
  8957  002650  1010               	iorwf	(___lomod@divisor+3)^0,w,c
  8958  002652  1011               	iorwf	(___lomod@divisor+4)^0,w,c
  8959  002654  1012               	iorwf	(___lomod@divisor+5)^0,w,c
  8960  002656  1013               	iorwf	(___lomod@divisor+6)^0,w,c
  8961  002658  1014               	iorwf	(___lomod@divisor+7)^0,w,c
  8962  00265A  B4D8               	btfsc	status,2,c
  8963  00265C  EF32  F013         	goto	u4151
  8964  002660  EF34  F013         	goto	u4150
  8965  002664                     u4151:
  8966  002664  EF7C  F013         	goto	l1156
  8967  002668                     u4150:
  8968  002668  0E01               	movlw	1
  8969  00266A  6E15               	movwf	___lomod@counter^0,c
  8970  00266C  EF42  F013         	goto	l4334
  8971  002670                     l4332:
  8972  002670  90D8               	bcf	status,0,c
  8973  002672  360D               	rlcf	___lomod@divisor^0,f,c
  8974  002674  360E               	rlcf	(___lomod@divisor+1)^0,f,c
  8975  002676  360F               	rlcf	(___lomod@divisor+2)^0,f,c
  8976  002678  3610               	rlcf	(___lomod@divisor+3)^0,f,c
  8977  00267A  3611               	rlcf	(___lomod@divisor+4)^0,f,c
  8978  00267C  3612               	rlcf	(___lomod@divisor+5)^0,f,c
  8979  00267E  3613               	rlcf	(___lomod@divisor+6)^0,f,c
  8980  002680  3614               	rlcf	(___lomod@divisor+7)^0,f,c
  8981  002682  2A15               	incf	___lomod@counter^0,f,c
  8982  002684                     l4334:
  8983  002684  AE14               	btfss	(___lomod@divisor+7)^0,7,c
  8984  002686  EF47  F013         	goto	u4161
  8985  00268A  EF49  F013         	goto	u4160
  8986  00268E                     u4161:
  8987  00268E  EF38  F013         	goto	l4332
  8988  002692                     u4160:
  8989  002692                     l4336:
  8990  002692  500D               	movf	___lomod@divisor^0,w,c
  8991  002694  5C05               	subwf	___lomod@dividend^0,w,c
  8992  002696  500E               	movf	(___lomod@divisor+1)^0,w,c
  8993  002698  5806               	subwfb	(___lomod@dividend+1)^0,w,c
  8994  00269A  500F               	movf	(___lomod@divisor+2)^0,w,c
  8995  00269C  5807               	subwfb	(___lomod@dividend+2)^0,w,c
  8996  00269E  5010               	movf	(___lomod@divisor+3)^0,w,c
  8997  0026A0  5808               	subwfb	(___lomod@dividend+3)^0,w,c
  8998  0026A2  5011               	movf	(___lomod@divisor+4)^0,w,c
  8999  0026A4  5809               	subwfb	(___lomod@dividend+4)^0,w,c
  9000  0026A6  5012               	movf	(___lomod@divisor+5)^0,w,c
  9001  0026A8  580A               	subwfb	(___lomod@dividend+5)^0,w,c
  9002  0026AA  5013               	movf	(___lomod@divisor+6)^0,w,c
  9003  0026AC  580B               	subwfb	(___lomod@dividend+6)^0,w,c
  9004  0026AE  5014               	movf	(___lomod@divisor+7)^0,w,c
  9005  0026B0  580C               	subwfb	(___lomod@dividend+7)^0,w,c
  9006  0026B2  A0D8               	btfss	status,0,c
  9007  0026B4  EF5E  F013         	goto	u4171
  9008  0026B8  EF60  F013         	goto	u4170
  9009  0026BC                     u4171:
  9010  0026BC  EF70  F013         	goto	l4340
  9011  0026C0                     u4170:
  9012  0026C0  500D               	movf	___lomod@divisor^0,w,c
  9013  0026C2  5E05               	subwf	___lomod@dividend^0,f,c
  9014  0026C4  500E               	movf	(___lomod@divisor+1)^0,w,c
  9015  0026C6  5A06               	subwfb	(___lomod@dividend+1)^0,f,c
  9016  0026C8  500F               	movf	(___lomod@divisor+2)^0,w,c
  9017  0026CA  5A07               	subwfb	(___lomod@dividend+2)^0,f,c
  9018  0026CC  5010               	movf	(___lomod@divisor+3)^0,w,c
  9019  0026CE  5A08               	subwfb	(___lomod@dividend+3)^0,f,c
  9020  0026D0  5011               	movf	(___lomod@divisor+4)^0,w,c
  9021  0026D2  5A09               	subwfb	(___lomod@dividend+4)^0,f,c
  9022  0026D4  5012               	movf	(___lomod@divisor+5)^0,w,c
  9023  0026D6  5A0A               	subwfb	(___lomod@dividend+5)^0,f,c
  9024  0026D8  5013               	movf	(___lomod@divisor+6)^0,w,c
  9025  0026DA  5A0B               	subwfb	(___lomod@dividend+6)^0,f,c
  9026  0026DC  5014               	movf	(___lomod@divisor+7)^0,w,c
  9027  0026DE  5A0C               	subwfb	(___lomod@dividend+7)^0,f,c
  9028  0026E0                     l4340:
  9029  0026E0  90D8               	bcf	status,0,c
  9030  0026E2  3214               	rrcf	(___lomod@divisor+7)^0,f,c
  9031  0026E4  3213               	rrcf	(___lomod@divisor+6)^0,f,c
  9032  0026E6  3212               	rrcf	(___lomod@divisor+5)^0,f,c
  9033  0026E8  3211               	rrcf	(___lomod@divisor+4)^0,f,c
  9034  0026EA  3210               	rrcf	(___lomod@divisor+3)^0,f,c
  9035  0026EC  320F               	rrcf	(___lomod@divisor+2)^0,f,c
  9036  0026EE  320E               	rrcf	(___lomod@divisor+1)^0,f,c
  9037  0026F0  320D               	rrcf	___lomod@divisor^0,f,c
  9038  0026F2  2E15               	decfsz	___lomod@counter^0,f,c
  9039  0026F4  EF49  F013         	goto	l4336
  9040  0026F8                     l1156:
  9041  0026F8  C005  F005         	movff	___lomod@dividend,?___lomod
  9042  0026FC  C006  F006         	movff	___lomod@dividend+1,?___lomod+1
  9043  002700  C007  F007         	movff	___lomod@dividend+2,?___lomod+2
  9044  002704  C008  F008         	movff	___lomod@dividend+3,?___lomod+3
  9045  002708  C009  F009         	movff	___lomod@dividend+4,?___lomod+4
  9046  00270C  C00A  F00A         	movff	___lomod@dividend+5,?___lomod+5
  9047  002710  C00B  F00B         	movff	___lomod@dividend+6,?___lomod+6
  9048  002714  C00C  F00C         	movff	___lomod@dividend+7,?___lomod+7
  9049  002718  0012               	return		;funcret
  9050  00271A                     __end_of___lomod:
  9051                           	opt callstack 0
  9052                           
  9053 ;; *************** function ___lodiv *****************
  9054 ;; Defined at:
  9055 ;;		line 9 in file "C:\Program Files (x86)\Microchip\xc8\v2.10\pic\sources\c99\common\lodiv.c"
  9056 ;; Parameters:    Size  Location     Type
  9057 ;;  dividend        8    4[COMRAM] unsigned long long 
  9058 ;;  divisor         8   12[COMRAM] unsigned long long 
  9059 ;; Auto vars:     Size  Location     Type
  9060 ;;  quotient        8   20[COMRAM] unsigned long long 
  9061 ;;  counter         1   28[COMRAM] unsigned char 
  9062 ;; Return value:  Size  Location     Type
  9063 ;;                  8    4[COMRAM] unsigned long long 
  9064 ;; Registers used:
  9065 ;;		wreg, fsr2l, fsr2h, status,2, status,0
  9066 ;; Tracked objects:
  9067 ;;		On entry : 0/0
  9068 ;;		On exit  : 0/0
  9069 ;;		Unchanged: 0/0
  9070 ;; Data sizes:     COMRAM   BANK0   BANK1   BANK2   BANK3   BANK4   BANK5   BANK6   BANK7   BANK8   BANK9  BANK10  BANK1
      +1  BANK12  BANK13  BANK14  BANK15
  9071 ;;      Params:        16       0       0       0       0       0       0       0       0       0       0       0       
      +0       0       0       0       0
  9072 ;;      Locals:         9       0       0       0       0       0       0       0       0       0       0       0       
      +0       0       0       0       0
  9073 ;;      Temps:          0       0       0       0       0       0       0       0       0       0       0       0       
      +0       0       0       0       0
  9074 ;;      Totals:        25       0       0       0       0       0       0       0       0       0       0       0       
      +0       0       0       0       0
  9075 ;;Total ram usage:       25 bytes
  9076 ;; Hardware stack levels used:    1
  9077 ;; Hardware stack levels required when called:    3
  9078 ;; This function calls:
  9079 ;;		Nothing
  9080 ;; This function is called by:
  9081 ;;		_utoa
  9082 ;; This function uses a non-reentrant model
  9083 ;;
  9084                           
  9085                           	psect	text41
  9086  002470                     __ptext41:
  9087                           	opt callstack 0
  9088  002470                     ___lodiv:
  9089                           	opt callstack 22
  9090  002470  EE20  F015         	lfsr	2,___lodiv@quotient
  9091  002474  0E07               	movlw	7
  9092  002476                     u4111:
  9093  002476  6ADE               	clrf	postinc2,c
  9094  002478  06E8               	decf	wreg,f,c
  9095  00247A  E2FD               	bc	u4111
  9096  00247C  500D               	movf	___lodiv@divisor^0,w,c
  9097  00247E  100E               	iorwf	(___lodiv@divisor+1)^0,w,c
  9098  002480  100F               	iorwf	(___lodiv@divisor+2)^0,w,c
  9099  002482  1010               	iorwf	(___lodiv@divisor+3)^0,w,c
  9100  002484  1011               	iorwf	(___lodiv@divisor+4)^0,w,c
  9101  002486  1012               	iorwf	(___lodiv@divisor+5)^0,w,c
  9102  002488  1013               	iorwf	(___lodiv@divisor+6)^0,w,c
  9103  00248A  1014               	iorwf	(___lodiv@divisor+7)^0,w,c
  9104  00248C  B4D8               	btfsc	status,2,c
  9105  00248E  EF4B  F012         	goto	u4121
  9106  002492  EF4D  F012         	goto	u4120
  9107  002496                     u4121:
  9108  002496  EF9F  F012         	goto	l1146
  9109  00249A                     u4120:
  9110  00249A  0E01               	movlw	1
  9111  00249C  6E1D               	movwf	___lodiv@counter^0,c
  9112  00249E  EF5B  F012         	goto	l4314
  9113  0024A2                     l4312:
  9114  0024A2  90D8               	bcf	status,0,c
  9115  0024A4  360D               	rlcf	___lodiv@divisor^0,f,c
  9116  0024A6  360E               	rlcf	(___lodiv@divisor+1)^0,f,c
  9117  0024A8  360F               	rlcf	(___lodiv@divisor+2)^0,f,c
  9118  0024AA  3610               	rlcf	(___lodiv@divisor+3)^0,f,c
  9119  0024AC  3611               	rlcf	(___lodiv@divisor+4)^0,f,c
  9120  0024AE  3612               	rlcf	(___lodiv@divisor+5)^0,f,c
  9121  0024B0  3613               	rlcf	(___lodiv@divisor+6)^0,f,c
  9122  0024B2  3614               	rlcf	(___lodiv@divisor+7)^0,f,c
  9123  0024B4  2A1D               	incf	___lodiv@counter^0,f,c
  9124  0024B6                     l4314:
  9125  0024B6  AE14               	btfss	(___lodiv@divisor+7)^0,7,c
  9126  0024B8  EF60  F012         	goto	u4131
  9127  0024BC  EF62  F012         	goto	u4130
  9128  0024C0                     u4131:
  9129  0024C0  EF51  F012         	goto	l4312
  9130  0024C4                     u4130:
  9131  0024C4                     l4316:
  9132  0024C4  90D8               	bcf	status,0,c
  9133  0024C6  3615               	rlcf	___lodiv@quotient^0,f,c
  9134  0024C8  3616               	rlcf	(___lodiv@quotient+1)^0,f,c
  9135  0024CA  3617               	rlcf	(___lodiv@quotient+2)^0,f,c
  9136  0024CC  3618               	rlcf	(___lodiv@quotient+3)^0,f,c
  9137  0024CE  3619               	rlcf	(___lodiv@quotient+4)^0,f,c
  9138  0024D0  361A               	rlcf	(___lodiv@quotient+5)^0,f,c
  9139  0024D2  361B               	rlcf	(___lodiv@quotient+6)^0,f,c
  9140  0024D4  361C               	rlcf	(___lodiv@quotient+7)^0,f,c
  9141  0024D6  500D               	movf	___lodiv@divisor^0,w,c
  9142  0024D8  5C05               	subwf	___lodiv@dividend^0,w,c
  9143  0024DA  500E               	movf	(___lodiv@divisor+1)^0,w,c
  9144  0024DC  5806               	subwfb	(___lodiv@dividend+1)^0,w,c
  9145  0024DE  500F               	movf	(___lodiv@divisor+2)^0,w,c
  9146  0024E0  5807               	subwfb	(___lodiv@dividend+2)^0,w,c
  9147  0024E2  5010               	movf	(___lodiv@divisor+3)^0,w,c
  9148  0024E4  5808               	subwfb	(___lodiv@dividend+3)^0,w,c
  9149  0024E6  5011               	movf	(___lodiv@divisor+4)^0,w,c
  9150  0024E8  5809               	subwfb	(___lodiv@dividend+4)^0,w,c
  9151  0024EA  5012               	movf	(___lodiv@divisor+5)^0,w,c
  9152  0024EC  580A               	subwfb	(___lodiv@dividend+5)^0,w,c
  9153  0024EE  5013               	movf	(___lodiv@divisor+6)^0,w,c
  9154  0024F0  580B               	subwfb	(___lodiv@dividend+6)^0,w,c
  9155  0024F2  5014               	movf	(___lodiv@divisor+7)^0,w,c
  9156  0024F4  580C               	subwfb	(___lodiv@dividend+7)^0,w,c
  9157  0024F6  A0D8               	btfss	status,0,c
  9158  0024F8  EF80  F012         	goto	u4141
  9159  0024FC  EF82  F012         	goto	u4140
  9160  002500                     u4141:
  9161  002500  EF93  F012         	goto	l4324
  9162  002504                     u4140:
  9163  002504  500D               	movf	___lodiv@divisor^0,w,c
  9164  002506  5E05               	subwf	___lodiv@dividend^0,f,c
  9165  002508  500E               	movf	(___lodiv@divisor+1)^0,w,c
  9166  00250A  5A06               	subwfb	(___lodiv@dividend+1)^0,f,c
  9167  00250C  500F               	movf	(___lodiv@divisor+2)^0,w,c
  9168  00250E  5A07               	subwfb	(___lodiv@dividend+2)^0,f,c
  9169  002510  5010               	movf	(___lodiv@divisor+3)^0,w,c
  9170  002512  5A08               	subwfb	(___lodiv@dividend+3)^0,f,c
  9171  002514  5011               	movf	(___lodiv@divisor+4)^0,w,c
  9172  002516  5A09               	subwfb	(___lodiv@dividend+4)^0,f,c
  9173  002518  5012               	movf	(___lodiv@divisor+5)^0,w,c
  9174  00251A  5A0A               	subwfb	(___lodiv@dividend+5)^0,f,c
  9175  00251C  5013               	movf	(___lodiv@divisor+6)^0,w,c
  9176  00251E  5A0B               	subwfb	(___lodiv@dividend+6)^0,f,c
  9177  002520  5014               	movf	(___lodiv@divisor+7)^0,w,c
  9178  002522  5A0C               	subwfb	(___lodiv@dividend+7)^0,f,c
  9179  002524  8015               	bsf	___lodiv@quotient^0,0,c
  9180  002526                     l4324:
  9181  002526  90D8               	bcf	status,0,c
  9182  002528  3214               	rrcf	(___lodiv@divisor+7)^0,f,c
  9183  00252A  3213               	rrcf	(___lodiv@divisor+6)^0,f,c
  9184  00252C  3212               	rrcf	(___lodiv@divisor+5)^0,f,c
  9185  00252E  3211               	rrcf	(___lodiv@divisor+4)^0,f,c
  9186  002530  3210               	rrcf	(___lodiv@divisor+3)^0,f,c
  9187  002532  320F               	rrcf	(___lodiv@divisor+2)^0,f,c
  9188  002534  320E               	rrcf	(___lodiv@divisor+1)^0,f,c
  9189  002536  320D               	rrcf	___lodiv@divisor^0,f,c
  9190  002538  2E1D               	decfsz	___lodiv@counter^0,f,c
  9191  00253A  EF62  F012         	goto	l4316
  9192  00253E                     l1146:
  9193  00253E  C015  F005         	movff	___lodiv@quotient,?___lodiv
  9194  002542  C016  F006         	movff	___lodiv@quotient+1,?___lodiv+1
  9195  002546  C017  F007         	movff	___lodiv@quotient+2,?___lodiv+2
  9196  00254A  C018  F008         	movff	___lodiv@quotient+3,?___lodiv+3
  9197  00254E  C019  F009         	movff	___lodiv@quotient+4,?___lodiv+4
  9198  002552  C01A  F00A         	movff	___lodiv@quotient+5,?___lodiv+5
  9199  002556  C01B  F00B         	movff	___lodiv@quotient+6,?___lodiv+6
  9200  00255A  C01C  F00C         	movff	___lodiv@quotient+7,?___lodiv+7
  9201  00255E  0012               	return		;funcret
  9202  002560                     __end_of___lodiv:
  9203                           	opt callstack 0
  9204                           
  9205 ;; *************** function _strncmp *****************
  9206 ;; Defined at:
  9207 ;;		line 3 in file "C:\Program Files (x86)\Microchip\xc8\v2.10\pic\sources\c99\common\strncmp.c"
  9208 ;; Parameters:    Size  Location     Type
  9209 ;;  _l              2    4[COMRAM] PTR const unsigned char 
  9210 ;;		 -> STR_35(3), STR_34(3), STR_33(248), STR_32(3), 
  9211 ;;		 -> STR_31(2), STR_30(2), STR_29(8), STR_28(407), 
  9212 ;;		 -> STR_27(17), STR_26(2), STR_25(2), STR_24(8), 
  9213 ;;		 -> STR_23(5), STR_22(50), STR_21(65), STR_20(16), 
  9214 ;;		 -> STR_19(15), STR_18(24), STR_17(9), STR_16(32), 
  9215 ;;		 -> STR_15(30), STR_14(11), STR_13(13), STR_12(80), 
  9216 ;;		 -> STR_11(33), STR_10(32), STR_9(14), STR_8(22), 
  9217 ;;		 -> STR_7(26), STR_6(13), STR_5(36), STR_4(40), 
  9218 ;;		 -> STR_3(31), STR_2(30), STR_1(64), 
  9219 ;;  _r              2    6[COMRAM] PTR const unsigned char 
  9220 ;;		 -> STR_47(3), STR_43(3), STR_38(3), 
  9221 ;;  n               2    8[COMRAM] unsigned int 
  9222 ;; Auto vars:     Size  Location     Type
  9223 ;;  r               2   13[COMRAM] PTR const unsigned char 
  9224 ;;		 -> STR_47(3), STR_43(3), STR_38(3), 
  9225 ;;  l               2   11[COMRAM] PTR const unsigned char 
  9226 ;;		 -> STR_35(3), STR_34(3), STR_33(248), STR_32(3), 
  9227 ;;		 -> STR_31(2), STR_30(2), STR_29(8), STR_28(407), 
  9228 ;;		 -> STR_27(17), STR_26(2), STR_25(2), STR_24(8), 
  9229 ;;		 -> STR_23(5), STR_22(50), STR_21(65), STR_20(16), 
  9230 ;;		 -> STR_19(15), STR_18(24), STR_17(9), STR_16(32), 
  9231 ;;		 -> STR_15(30), STR_14(11), STR_13(13), STR_12(80), 
  9232 ;;		 -> STR_11(33), STR_10(32), STR_9(14), STR_8(22), 
  9233 ;;		 -> STR_7(26), STR_6(13), STR_5(36), STR_4(40), 
  9234 ;;		 -> STR_3(31), STR_2(30), STR_1(64), 
  9235 ;; Return value:  Size  Location     Type
  9236 ;;                  2    4[COMRAM] int 
  9237 ;; Registers used:
  9238 ;;		wreg, status,2, status,0, tblptrl, tblptrh, tblptru
  9239 ;; Tracked objects:
  9240 ;;		On entry : 0/0
  9241 ;;		On exit  : 0/0
  9242 ;;		Unchanged: 0/0
  9243 ;; Data sizes:     COMRAM   BANK0   BANK1   BANK2   BANK3   BANK4   BANK5   BANK6   BANK7   BANK8   BANK9  BANK10  BANK1
      +1  BANK12  BANK13  BANK14  BANK15
  9244 ;;      Params:         6       0       0       0       0       0       0       0       0       0       0       0       
      +0       0       0       0       0
  9245 ;;      Locals:         4       0       0       0       0       0       0       0       0       0       0       0       
      +0       0       0       0       0
  9246 ;;      Temps:          1       0       0       0       0       0       0       0       0       0       0       0       
      +0       0       0       0       0
  9247 ;;      Totals:        11       0       0       0       0       0       0       0       0       0       0       0       
      +0       0       0       0       0
  9248 ;;Total ram usage:       11 bytes
  9249 ;; Hardware stack levels used:    1
  9250 ;; Hardware stack levels required when called:    3
  9251 ;; This function calls:
  9252 ;;		Nothing
  9253 ;; This function is called by:
  9254 ;;		_vfpfcnvrt
  9255 ;; This function uses a non-reentrant model
  9256 ;;
  9257                           
  9258                           	psect	text42
  9259  002560                     __ptext42:
  9260                           	opt callstack 0
  9261  002560                     _strncmp:
  9262                           	opt callstack 23
  9263  002560  C005  F00C         	movff	strncmp@_l,strncmp@l
  9264  002564  C006  F00D         	movff	strncmp@_l+1,strncmp@l+1
  9265  002568  C007  F00E         	movff	strncmp@_r,strncmp@r
  9266  00256C  C008  F00F         	movff	strncmp@_r+1,strncmp@r+1
  9267  002570  0609               	decf	strncmp@n^0,f,c
  9268  002572  A0D8               	btfss	status,0,c
  9269  002574  060A               	decf	(strncmp@n+1)^0,f,c
  9270  002576  2809               	incf	strncmp@n^0,w,c
  9271  002578  E106               	bnz	u4431
  9272  00257A  280A               	incf	(strncmp@n+1)^0,w,c
  9273  00257C  A4D8               	btfss	status,2,c
  9274  00257E  EFC3  F012         	goto	u4431
  9275  002582  EFC5  F012         	goto	u4430
  9276  002586                     u4431:
  9277  002586  EFD2  F012         	goto	l4468
  9278  00258A                     u4430:
  9279  00258A  0E00               	movlw	0
  9280  00258C  6E06               	movwf	(?_strncmp+1)^0,c
  9281  00258E  0E00               	movlw	0
  9282  002590  6E05               	movwf	?_strncmp^0,c
  9283  002592  EF24  F013         	goto	l1438
  9284  002596                     l4466:
  9285  002596  4A0C               	infsnz	strncmp@l^0,f,c
  9286  002598  2A0D               	incf	(strncmp@l+1)^0,f,c
  9287  00259A  4A0E               	infsnz	strncmp@r^0,f,c
  9288  00259C  2A0F               	incf	(strncmp@r+1)^0,f,c
  9289  00259E  0609               	decf	strncmp@n^0,f,c
  9290  0025A0  A0D8               	btfss	status,0,c
  9291  0025A2  060A               	decf	(strncmp@n+1)^0,f,c
  9292  0025A4                     l4468:
  9293  0025A4  C00C  FFF6         	movff	strncmp@l,tblptrl
  9294  0025A8  C00D  FFF7         	movff	strncmp@l+1,tblptrh
  9295  0025AC                     	if	1	;Program memory is < 0x10000, tblptru is always zero
  9296  0025AC  6AF8               	clrf	tblptru,c
  9297  0025AE                     	endif
  9298  0025AE                     	if	0	;tblptru may be non-zero
  9299  0025AE                     	endif
  9300  0025AE  0008               	tblrd		*
  9301  0025B0  50F5               	movf	tablat,w,c
  9302  0025B2  0900               	iorlw	0
  9303  0025B4  B4D8               	btfsc	status,2,c
  9304  0025B6  EFDF  F012         	goto	u4441
  9305  0025BA  EFE1  F012         	goto	u4440
  9306  0025BE                     u4441:
  9307  0025BE  EF10  F013         	goto	l4476
  9308  0025C2                     u4440:
  9309  0025C2  C00E  FFF6         	movff	strncmp@r,tblptrl
  9310  0025C6  C00F  FFF7         	movff	strncmp@r+1,tblptrh
  9311  0025CA                     	if	1	;Program memory is < 0x10000, tblptru is always zero
  9312  0025CA  6AF8               	clrf	tblptru,c
  9313  0025CC                     	endif
  9314  0025CC                     	if	0	;tblptru may be non-zero
  9315  0025CC                     	endif
  9316  0025CC  0008               	tblrd		*
  9317  0025CE  50F5               	movf	tablat,w,c
  9318  0025D0  0900               	iorlw	0
  9319  0025D2  B4D8               	btfsc	status,2,c
  9320  0025D4  EFEE  F012         	goto	u4451
  9321  0025D8  EFF0  F012         	goto	u4450
  9322  0025DC                     u4451:
  9323  0025DC  EF10  F013         	goto	l4476
  9324  0025E0                     u4450:
  9325  0025E0  5009               	movf	strncmp@n^0,w,c
  9326  0025E2  100A               	iorwf	(strncmp@n+1)^0,w,c
  9327  0025E4  B4D8               	btfsc	status,2,c
  9328  0025E6  EFF7  F012         	goto	u4461
  9329  0025EA  EFF9  F012         	goto	u4460
  9330  0025EE                     u4461:
  9331  0025EE  EF10  F013         	goto	l4476
  9332  0025F2                     u4460:
  9333  0025F2  C00C  FFF6         	movff	strncmp@l,tblptrl
  9334  0025F6  C00D  FFF7         	movff	strncmp@l+1,tblptrh
  9335  0025FA                     	if	1	;Program memory is < 0x10000, tblptru is always zero
  9336  0025FA  6AF8               	clrf	tblptru,c
  9337  0025FC                     	endif
  9338  0025FC                     	if	0	;tblptru may be non-zero
  9339  0025FC                     	endif
  9340  0025FC  0008               	tblrd		*
  9341  0025FE  CFF5 F00B          	movff	tablat,??_strncmp
  9342  002602  C00E  FFF6         	movff	strncmp@r,tblptrl
  9343  002606  C00F  FFF7         	movff	strncmp@r+1,tblptrh
  9344  00260A                     	if	1	;Program memory is < 0x10000, tblptru is always zero
  9345  00260A  6AF8               	clrf	tblptru,c
  9346  00260C                     	endif
  9347  00260C                     	if	0	;tblptru may be non-zero
  9348  00260C                     	endif
  9349  00260C  0008               	tblrd		*
  9350  00260E  50F5               	movf	tablat,w,c
  9351  002610  180B               	xorwf	??_strncmp^0,w,c
  9352  002612  B4D8               	btfsc	status,2,c
  9353  002614  EF0E  F013         	goto	u4471
  9354  002618  EF10  F013         	goto	u4470
  9355  00261C                     u4471:
  9356  00261C  EFCB  F012         	goto	l4466
  9357  002620                     u4470:
  9358  002620                     l4476:
  9359  002620  C00C  FFF6         	movff	strncmp@l,tblptrl
  9360  002624  C00D  FFF7         	movff	strncmp@l+1,tblptrh
  9361  002628                     	if	1	;Program memory is < 0x10000, tblptru is always zero
  9362  002628  6AF8               	clrf	tblptru,c
  9363  00262A                     	endif
  9364  00262A                     	if	0	;tblptru may be non-zero
  9365  00262A                     	endif
  9366  00262A  0008               	tblrd		*
  9367  00262C  CFF5 F00B          	movff	tablat,??_strncmp
  9368  002630  C00E  FFF6         	movff	strncmp@r,tblptrl
  9369  002634  C00F  FFF7         	movff	strncmp@r+1,tblptrh
  9370  002638                     	if	1	;Program memory is < 0x10000, tblptru is always zero
  9371  002638  6AF8               	clrf	tblptru,c
  9372  00263A                     	endif
  9373  00263A                     	if	0	;tblptru may be non-zero
  9374  00263A                     	endif
  9375  00263A  0008               	tblrd		*
  9376  00263C  50F5               	movf	tablat,w,c
  9377  00263E  5C0B               	subwf	??_strncmp^0,w,c
  9378  002640  6E05               	movwf	?_strncmp^0,c
  9379  002642  6A06               	clrf	(?_strncmp+1)^0,c
  9380  002644  A0D8               	btfss	status,0,c
  9381  002646  0606               	decf	(?_strncmp+1)^0,f,c
  9382  002648                     l1438:
  9383  002648  0012               	return		;funcret
  9384  00264A                     __end_of_strncmp:
  9385                           	opt callstack 0
  9386                           
  9387 ;; *************** function _ctoa *****************
  9388 ;; Defined at:
  9389 ;;		line 259 in file "C:\Program Files (x86)\Microchip\xc8\v2.10\pic\sources\c99\common\doprnt.c"
  9390 ;; Parameters:    Size  Location     Type
  9391 ;;  fp              2   33[COMRAM] PTR struct _IO_FILE
  9392 ;;		 -> NULL(0), 
  9393 ;;  c               1   35[COMRAM] unsigned char 
  9394 ;; Auto vars:     Size  Location     Type
  9395 ;;  w               2   36[COMRAM] int 
  9396 ;;  l               2    0        int 
  9397 ;; Return value:  Size  Location     Type
  9398 ;;                  2   33[COMRAM] int 
  9399 ;; Registers used:
  9400 ;;		wreg, fsr1l, fsr1h, fsr2l, fsr2h, status,2, status,0, cstack
  9401 ;; Tracked objects:
  9402 ;;		On entry : 0/0
  9403 ;;		On exit  : 0/0
  9404 ;;		Unchanged: 0/0
  9405 ;; Data sizes:     COMRAM   BANK0   BANK1   BANK2   BANK3   BANK4   BANK5   BANK6   BANK7   BANK8   BANK9  BANK10  BANK1
      +1  BANK12  BANK13  BANK14  BANK15
  9406 ;;      Params:         3       0       0       0       0       0       0       0       0       0       0       0       
      +0       0       0       0       0
  9407 ;;      Locals:         2       0       0       0       0       0       0       0       0       0       0       0       
      +0       0       0       0       0
  9408 ;;      Temps:          0       0       0       0       0       0       0       0       0       0       0       0       
      +0       0       0       0       0
  9409 ;;      Totals:         5       0       0       0       0       0       0       0       0       0       0       0       
      +0       0       0       0       0
  9410 ;;Total ram usage:        5 bytes
  9411 ;; Hardware stack levels used:    1
  9412 ;; Hardware stack levels required when called:    8
  9413 ;; This function calls:
  9414 ;;		_pad
  9415 ;; This function is called by:
  9416 ;;		_vfpfcnvrt
  9417 ;; This function uses a non-reentrant model
  9418 ;;
  9419                           
  9420                           	psect	text43
  9421  002A74                     __ptext43:
  9422                           	opt callstack 0
  9423  002A74                     _ctoa:
  9424                           	opt callstack 18
  9425  002A74                     
  9426                           ;C:\Program Files (x86)\Microchip\xc8\v2.10\pic\sources\c99\common\doprnt.c: 259: static
      +                           int ctoa(FILE *fp, char c);C:\Program Files (x86)\Microchip\xc8\v2.10\pic\sources\c99\c
      +                          ommon\doprnt.c: 260: {;C:\Program Files (x86)\Microchip\xc8\v2.10\pic\sources\c99\common
      +                          \doprnt.c: 261:     int l, w;;C:\Program Files (x86)\Microchip\xc8\v2.10\pic\sources\c99
      +                          \common\doprnt.c: 264:     w = width ? width - 1 : width;
  9427  002A74  0100               	movlb	0	; () banked
  9428  002A76  5176               	movf	_width& (0+255),w,b
  9429  002A78  1177               	iorwf	(_width+1)& (0+255),w,b
  9430  002A7A  A4D8               	btfss	status,2,c
  9431  002A7C  EF42  F015         	goto	u4181
  9432  002A80  EF44  F015         	goto	u4180
  9433  002A84                     u4181:
  9434  002A84  EF4A  F015         	goto	l4348
  9435  002A88                     u4180:
  9436  002A88                     
  9437                           ; BSR set to: 0
  9438  002A88  C076  F025         	movff	_width,ctoa@w
  9439  002A8C  C077  F026         	movff	_width+1,ctoa@w+1
  9440  002A90  EF50  F015         	goto	l4350
  9441  002A94                     l4348:
  9442                           
  9443                           ; BSR set to: 0
  9444  002A94  0EFF               	movlw	255
  9445  002A96  2576               	addwf	_width& (0+255),w,b
  9446  002A98  6E25               	movwf	ctoa@w^0,c
  9447  002A9A  0EFF               	movlw	255
  9448  002A9C  2177               	addwfc	(_width+1)& (0+255),w,b
  9449  002A9E  6E26               	movwf	(ctoa@w+1)^0,c
  9450  002AA0                     l4350:
  9451                           
  9452                           ; BSR set to: 0
  9453                           ;C:\Program Files (x86)\Microchip\xc8\v2.10\pic\sources\c99\common\doprnt.c: 267:     db
      +                          uf[0] = c;
  9454  002AA0  C024  F08C         	movff	ctoa@c,_dbuf
  9455  002AA4                     
  9456                           ; BSR set to: 0
  9457                           ;C:\Program Files (x86)\Microchip\xc8\v2.10\pic\sources\c99\common\doprnt.c: 268:     db
      +                          uf[1] = '\0';
  9458  002AA4  0E00               	movlw	0
  9459  002AA6  6F8D               	movwf	(_dbuf+1)& (0+255),b
  9460  002AA8                     
  9461                           ; BSR set to: 0
  9462                           ;C:\Program Files (x86)\Microchip\xc8\v2.10\pic\sources\c99\common\doprnt.c: 269:     re
      +                          turn pad(fp, &dbuf[0], w);
  9463  002AA8  C022  F017         	movff	ctoa@fp,pad@fp
  9464  002AAC  C023  F018         	movff	ctoa@fp+1,pad@fp+1
  9465  002AB0  0E8C               	movlw	low _dbuf
  9466  002AB2  6E19               	movwf	pad@buf^0,c
  9467  002AB4  0E00               	movlw	high _dbuf
  9468  002AB6  6E1A               	movwf	(pad@buf+1)^0,c
  9469  002AB8  C025  F01B         	movff	ctoa@w,pad@p
  9470  002ABC  C026  F01C         	movff	ctoa@w+1,pad@p+1
  9471  002AC0  ECF0  F013         	call	_pad	;wreg free
  9472  002AC4  C017  F022         	movff	?_pad,?_ctoa
  9473  002AC8  C018  F023         	movff	?_pad+1,?_ctoa+1
  9474  002ACC  0012               	return		;funcret
  9475  002ACE                     __end_of_ctoa:
  9476                           	opt callstack 0
  9477                           
  9478 ;; *************** function _pad *****************
  9479 ;; Defined at:
  9480 ;;		line 72 in file "C:\Program Files (x86)\Microchip\xc8\v2.10\pic\sources\c99\common\doprnt.c"
  9481 ;; Parameters:    Size  Location     Type
  9482 ;;  fp              2   22[COMRAM] PTR struct _IO_FILE
  9483 ;;		 -> NULL(0), 
  9484 ;;  buf             2   24[COMRAM] PTR unsigned char 
  9485 ;;		 -> dbuf(32), 
  9486 ;;  p               2   26[COMRAM] int 
  9487 ;; Auto vars:     Size  Location     Type
  9488 ;;  w               2   31[COMRAM] int 
  9489 ;;  i               2   29[COMRAM] int 
  9490 ;; Return value:  Size  Location     Type
  9491 ;;                  2   22[COMRAM] int 
  9492 ;; Registers used:
  9493 ;;		wreg, fsr1l, fsr1h, fsr2l, fsr2h, status,2, status,0, cstack
  9494 ;; Tracked objects:
  9495 ;;		On entry : 0/0
  9496 ;;		On exit  : 0/0
  9497 ;;		Unchanged: 0/0
  9498 ;; Data sizes:     COMRAM   BANK0   BANK1   BANK2   BANK3   BANK4   BANK5   BANK6   BANK7   BANK8   BANK9  BANK10  BANK1
      +1  BANK12  BANK13  BANK14  BANK15
  9499 ;;      Params:         6       0       0       0       0       0       0       0       0       0       0       0       
      +0       0       0       0       0
  9500 ;;      Locals:         4       0       0       0       0       0       0       0       0       0       0       0       
      +0       0       0       0       0
  9501 ;;      Temps:          1       0       0       0       0       0       0       0       0       0       0       0       
      +0       0       0       0       0
  9502 ;;      Totals:        11       0       0       0       0       0       0       0       0       0       0       0       
      +0       0       0       0       0
  9503 ;;Total ram usage:       11 bytes
  9504 ;; Hardware stack levels used:    1
  9505 ;; Hardware stack levels required when called:    7
  9506 ;; This function calls:
  9507 ;;		_fputc
  9508 ;;		_fputs
  9509 ;;		_strlen
  9510 ;; This function is called by:
  9511 ;;		_ctoa
  9512 ;;		_utoa
  9513 ;;		_xtoa
  9514 ;; This function uses a non-reentrant model
  9515 ;;
  9516                           
  9517                           	psect	text44
  9518  0027E0                     __ptext44:
  9519                           	opt callstack 0
  9520  0027E0                     _pad:
  9521                           	opt callstack 18
  9522  0027E0                     
  9523                           ;C:\Program Files (x86)\Microchip\xc8\v2.10\pic\sources\c99\common\doprnt.c: 72: static 
      +                          int pad(FILE *fp, char *buf, int p);C:\Program Files (x86)\Microchip\xc8\v2.10\pic\sourc
      +                          es\c99\common\doprnt.c: 73: {;C:\Program Files (x86)\Microchip\xc8\v2.10\pic\sources\c99
      +                          \common\doprnt.c: 74:     int i, w;;C:\Program Files (x86)\Microchip\xc8\v2.10\pic\sourc
      +                          es\c99\common\doprnt.c: 77:     if (flags & (1 << 0)) {
  9524  0027E0  A059               	btfss	_flags^0,0,c
  9525  0027E2  EFF5  F013         	goto	u4001
  9526  0027E6  EFF7  F013         	goto	u4000
  9527  0027EA                     u4001:
  9528  0027EA  EF01  F014         	goto	l4270
  9529  0027EE                     u4000:
  9530  0027EE                     
  9531                           ;C:\Program Files (x86)\Microchip\xc8\v2.10\pic\sources\c99\common\doprnt.c: 78:        
      +                           fputs((const char *)buf, fp);
  9532  0027EE  C019  F010         	movff	pad@buf,fputs@s
  9533  0027F2  C01A  F011         	movff	pad@buf+1,fputs@s+1
  9534  0027F6  C017  F012         	movff	pad@fp,fputs@fp
  9535  0027FA  C018  F013         	movff	pad@fp+1,fputs@fp+1
  9536  0027FE  EC0A  F016         	call	_fputs	;wreg free
  9537  002802                     l4270:
  9538                           
  9539                           ;C:\Program Files (x86)\Microchip\xc8\v2.10\pic\sources\c99\common\doprnt.c: 82:     w =
      +                           (p < 0) ? 0 : p;
  9540  002802  BE1C               	btfsc	(pad@p+1)^0,7,c
  9541  002804  EF06  F014         	goto	u4011
  9542  002808  EF08  F014         	goto	u4010
  9543  00280C                     u4011:
  9544  00280C  EF0E  F014         	goto	l4274
  9545  002810                     u4010:
  9546  002810  C01B  F020         	movff	pad@p,pad@w
  9547  002814  C01C  F021         	movff	pad@p+1,pad@w+1
  9548  002818  EF12  F014         	goto	l628
  9549  00281C                     l4274:
  9550  00281C  0E00               	movlw	0
  9551  00281E  6E21               	movwf	(pad@w+1)^0,c
  9552  002820  0E00               	movlw	0
  9553  002822  6E20               	movwf	pad@w^0,c
  9554  002824                     l628:
  9555                           
  9556                           ;C:\Program Files (x86)\Microchip\xc8\v2.10\pic\sources\c99\common\doprnt.c: 83:     i =
      +                           0;
  9557  002824  0E00               	movlw	0
  9558  002826  6E1F               	movwf	(pad@i+1)^0,c
  9559  002828  0E00               	movlw	0
  9560  00282A  6E1E               	movwf	pad@i^0,c
  9561                           
  9562                           ;C:\Program Files (x86)\Microchip\xc8\v2.10\pic\sources\c99\common\doprnt.c: 84:     whi
      +                          le (i < w) {
  9563  00282C  EF24  F014         	goto	l4280
  9564  002830                     l4276:
  9565                           
  9566                           ;C:\Program Files (x86)\Microchip\xc8\v2.10\pic\sources\c99\common\doprnt.c: 85:        
      +                           fputc(' ', fp);
  9567  002830  0E00               	movlw	0
  9568  002832  6E08               	movwf	(fputc@c+1)^0,c
  9569  002834  0E20               	movlw	32
  9570  002836  6E07               	movwf	fputc@c^0,c
  9571  002838  C017  F009         	movff	pad@fp,fputc@fp
  9572  00283C  C018  F00A         	movff	pad@fp+1,fputc@fp+1
  9573  002840  EC51  F014         	call	_fputc	;wreg free
  9574  002844                     
  9575                           ;C:\Program Files (x86)\Microchip\xc8\v2.10\pic\sources\c99\common\doprnt.c: 86:        
      +                           ++i;
  9576  002844  4A1E               	infsnz	pad@i^0,f,c
  9577  002846  2A1F               	incf	(pad@i+1)^0,f,c
  9578  002848                     l4280:
  9579                           
  9580                           ;C:\Program Files (x86)\Microchip\xc8\v2.10\pic\sources\c99\common\doprnt.c: 84:     whi
      +                          le (i < w) {
  9581  002848  5020               	movf	pad@w^0,w,c
  9582  00284A  5C1E               	subwf	pad@i^0,w,c
  9583  00284C  501F               	movf	(pad@i+1)^0,w,c
  9584  00284E  0A80               	xorlw	128
  9585  002850  6E1D               	movwf	??_pad^0,c
  9586  002852  5021               	movf	(pad@w+1)^0,w,c
  9587  002854  0A80               	xorlw	128
  9588  002856  581D               	subwfb	??_pad^0,w,c
  9589  002858  A0D8               	btfss	status,0,c
  9590  00285A  EF31  F014         	goto	u4021
  9591  00285E  EF33  F014         	goto	u4020
  9592  002862                     u4021:
  9593  002862  EF18  F014         	goto	l4276
  9594  002866                     u4020:
  9595  002866                     
  9596                           ;C:\Program Files (x86)\Microchip\xc8\v2.10\pic\sources\c99\common\doprnt.c: 90:     if 
      +                          (!(flags & (1 << 0))) {
  9597  002866  B059               	btfsc	_flags^0,0,c
  9598  002868  EF38  F014         	goto	u4031
  9599  00286C  EF3A  F014         	goto	u4030
  9600  002870                     u4031:
  9601  002870  EF44  F014         	goto	l4284
  9602  002874                     u4030:
  9603  002874                     
  9604                           ;C:\Program Files (x86)\Microchip\xc8\v2.10\pic\sources\c99\common\doprnt.c: 91:        
      +                           fputs((const char *)buf, fp);
  9605  002874  C019  F010         	movff	pad@buf,fputs@s
  9606  002878  C01A  F011         	movff	pad@buf+1,fputs@s+1
  9607  00287C  C017  F012         	movff	pad@fp,fputs@fp
  9608  002880  C018  F013         	movff	pad@fp+1,fputs@fp+1
  9609  002884  EC0A  F016         	call	_fputs	;wreg free
  9610  002888                     l4284:
  9611                           
  9612                           ;C:\Program Files (x86)\Microchip\xc8\v2.10\pic\sources\c99\common\doprnt.c: 94:     ret
      +                          urn strlen(buf) + w;
  9613  002888  C019  F005         	movff	pad@buf,strlen@s
  9614  00288C  C01A  F006         	movff	pad@buf+1,strlen@s+1
  9615  002890  ECBF  F016         	call	_strlen	;wreg free
  9616  002894  5020               	movf	pad@w^0,w,c
  9617  002896  2405               	addwf	?_strlen^0,w,c
  9618  002898  6E17               	movwf	?_pad^0,c
  9619  00289A  5021               	movf	(pad@w+1)^0,w,c
  9620  00289C  2006               	addwfc	(?_strlen+1)^0,w,c
  9621  00289E  6E18               	movwf	(?_pad+1)^0,c
  9622  0028A0  0012               	return		;funcret
  9623  0028A2                     __end_of_pad:
  9624                           	opt callstack 0
  9625                           
  9626 ;; *************** function _strlen *****************
  9627 ;; Defined at:
  9628 ;;		line 5 in file "C:\Program Files (x86)\Microchip\xc8\v2.10\pic\sources\c99\common\strlen.c"
  9629 ;; Parameters:    Size  Location     Type
  9630 ;;  s               2    4[COMRAM] PTR const unsigned char 
  9631 ;;		 -> dbuf(32), 
  9632 ;; Auto vars:     Size  Location     Type
  9633 ;;  a               2    6[COMRAM] PTR const unsigned char 
  9634 ;;		 -> dbuf(32), 
  9635 ;; Return value:  Size  Location     Type
  9636 ;;                  2    4[COMRAM] unsigned int 
  9637 ;; Registers used:
  9638 ;;		wreg, fsr2l, fsr2h, status,2, status,0
  9639 ;; Tracked objects:
  9640 ;;		On entry : 0/0
  9641 ;;		On exit  : 0/0
  9642 ;;		Unchanged: 0/0
  9643 ;; Data sizes:     COMRAM   BANK0   BANK1   BANK2   BANK3   BANK4   BANK5   BANK6   BANK7   BANK8   BANK9  BANK10  BANK1
      +1  BANK12  BANK13  BANK14  BANK15
  9644 ;;      Params:         2       0       0       0       0       0       0       0       0       0       0       0       
      +0       0       0       0       0
  9645 ;;      Locals:         2       0       0       0       0       0       0       0       0       0       0       0       
      +0       0       0       0       0
  9646 ;;      Temps:          0       0       0       0       0       0       0       0       0       0       0       0       
      +0       0       0       0       0
  9647 ;;      Totals:         4       0       0       0       0       0       0       0       0       0       0       0       
      +0       0       0       0       0
  9648 ;;Total ram usage:        4 bytes
  9649 ;; Hardware stack levels used:    1
  9650 ;; Hardware stack levels required when called:    3
  9651 ;; This function calls:
  9652 ;;		Nothing
  9653 ;; This function is called by:
  9654 ;;		_pad
  9655 ;; This function uses a non-reentrant model
  9656 ;;
  9657                           
  9658                           	psect	text45
  9659  002D7E                     __ptext45:
  9660                           	opt callstack 0
  9661  002D7E                     _strlen:
  9662                           	opt callstack 21
  9663  002D7E  C005  F007         	movff	strlen@s,strlen@a
  9664  002D82  C006  F008         	movff	strlen@s+1,strlen@a+1
  9665  002D86  EFC7  F016         	goto	l4256
  9666  002D8A                     l4254:
  9667  002D8A  4A05               	infsnz	strlen@s^0,f,c
  9668  002D8C  2A06               	incf	(strlen@s+1)^0,f,c
  9669  002D8E                     l4256:
  9670  002D8E  C005  FFD9         	movff	strlen@s,fsr2l
  9671  002D92  C006  FFDA         	movff	strlen@s+1,fsr2h
  9672  002D96  50DF               	movf	indf2,w,c
  9673  002D98  A4D8               	btfss	status,2,c
  9674  002D9A  EFD1  F016         	goto	u3971
  9675  002D9E  EFD3  F016         	goto	u3970
  9676  002DA2                     u3971:
  9677  002DA2  EFC5  F016         	goto	l4254
  9678  002DA6                     u3970:
  9679  002DA6  5007               	movf	strlen@a^0,w,c
  9680  002DA8  5C05               	subwf	strlen@s^0,w,c
  9681  002DAA  6E05               	movwf	?_strlen^0,c
  9682  002DAC  5008               	movf	(strlen@a+1)^0,w,c
  9683  002DAE  5806               	subwfb	(strlen@s+1)^0,w,c
  9684  002DB0  6E06               	movwf	(?_strlen+1)^0,c
  9685  002DB2  0012               	return		;funcret
  9686  002DB4                     __end_of_strlen:
  9687                           	opt callstack 0
  9688                           
  9689 ;; *************** function _fputs *****************
  9690 ;; Defined at:
  9691 ;;		line 8 in file "C:\Program Files (x86)\Microchip\xc8\v2.10\pic\sources\c99\common\nf_fputs.c"
  9692 ;; Parameters:    Size  Location     Type
  9693 ;;  s               2   15[COMRAM] PTR const unsigned char 
  9694 ;;		 -> dbuf(32), 
  9695 ;;  fp              2   17[COMRAM] PTR struct _IO_FILE
  9696 ;;		 -> NULL(0), 
  9697 ;; Auto vars:     Size  Location     Type
  9698 ;;  i               2   20[COMRAM] int 
  9699 ;;  c               1   19[COMRAM] unsigned char 
  9700 ;; Return value:  Size  Location     Type
  9701 ;;                  2   15[COMRAM] int 
  9702 ;; Registers used:
  9703 ;;		wreg, fsr1l, fsr1h, fsr2l, fsr2h, status,2, status,0, cstack
  9704 ;; Tracked objects:
  9705 ;;		On entry : 0/0
  9706 ;;		On exit  : 0/0
  9707 ;;		Unchanged: 0/0
  9708 ;; Data sizes:     COMRAM   BANK0   BANK1   BANK2   BANK3   BANK4   BANK5   BANK6   BANK7   BANK8   BANK9  BANK10  BANK1
      +1  BANK12  BANK13  BANK14  BANK15
  9709 ;;      Params:         4       0       0       0       0       0       0       0       0       0       0       0       
      +0       0       0       0       0
  9710 ;;      Locals:         3       0       0       0       0       0       0       0       0       0       0       0       
      +0       0       0       0       0
  9711 ;;      Temps:          0       0       0       0       0       0       0       0       0       0       0       0       
      +0       0       0       0       0
  9712 ;;      Totals:         7       0       0       0       0       0       0       0       0       0       0       0       
      +0       0       0       0       0
  9713 ;;Total ram usage:        7 bytes
  9714 ;; Hardware stack levels used:    1
  9715 ;; Hardware stack levels required when called:    6
  9716 ;; This function calls:
  9717 ;;		_fputc
  9718 ;; This function is called by:
  9719 ;;		_pad
  9720 ;; This function uses a non-reentrant model
  9721 ;;
  9722                           
  9723                           	psect	text46
  9724  002C14                     __ptext46:
  9725                           	opt callstack 0
  9726  002C14                     _fputs:
  9727                           	opt callstack 18
  9728  002C14  0E00               	movlw	0
  9729  002C16  6E16               	movwf	(fputs@i+1)^0,c
  9730  002C18  0E00               	movlw	0
  9731  002C1A  6E15               	movwf	fputs@i^0,c
  9732  002C1C  EF1B  F016         	goto	l4250
  9733  002C20                     l4246:
  9734  002C20  C014  F007         	movff	fputs@c,fputc@c
  9735  002C24  6A08               	clrf	(fputc@c+1)^0,c
  9736  002C26  C012  F009         	movff	fputs@fp,fputc@fp
  9737  002C2A  C013  F00A         	movff	fputs@fp+1,fputc@fp+1
  9738  002C2E  EC51  F014         	call	_fputc	;wreg free
  9739  002C32  4A15               	infsnz	fputs@i^0,f,c
  9740  002C34  2A16               	incf	(fputs@i+1)^0,f,c
  9741  002C36                     l4250:
  9742  002C36  5015               	movf	fputs@i^0,w,c
  9743  002C38  2410               	addwf	fputs@s^0,w,c
  9744  002C3A  6ED9               	movwf	fsr2l,c
  9745  002C3C  5016               	movf	(fputs@i+1)^0,w,c
  9746  002C3E  2011               	addwfc	(fputs@s+1)^0,w,c
  9747  002C40  6EDA               	movwf	fsr2h,c
  9748  002C42  50DF               	movf	indf2,w,c
  9749  002C44  6E14               	movwf	fputs@c^0,c
  9750  002C46  5014               	movf	fputs@c^0,w,c
  9751  002C48  A4D8               	btfss	status,2,c
  9752  002C4A  EF29  F016         	goto	u3961
  9753  002C4E  EF2B  F016         	goto	u3960
  9754  002C52                     u3961:
  9755  002C52  EF10  F016         	goto	l4246
  9756  002C56                     u3960:
  9757  002C56  0012               	return		;funcret
  9758  002C58                     __end_of_fputs:
  9759                           	opt callstack 0
  9760                           
  9761 ;; *************** function _fputc *****************
  9762 ;; Defined at:
  9763 ;;		line 8 in file "C:\Program Files (x86)\Microchip\xc8\v2.10\pic\sources\c99\common\nf_fputc.c"
  9764 ;; Parameters:    Size  Location     Type
  9765 ;;  c               2    6[COMRAM] int 
  9766 ;;  fp              2    8[COMRAM] PTR struct _IO_FILE
  9767 ;;		 -> NULL(0), 
  9768 ;; Auto vars:     Size  Location     Type
  9769 ;;		None
  9770 ;; Return value:  Size  Location     Type
  9771 ;;                  2    6[COMRAM] int 
  9772 ;; Registers used:
  9773 ;;		wreg, fsr1l, fsr1h, fsr2l, fsr2h, status,2, status,0, cstack
  9774 ;; Tracked objects:
  9775 ;;		On entry : 0/0
  9776 ;;		On exit  : 0/0
  9777 ;;		Unchanged: 0/0
  9778 ;; Data sizes:     COMRAM   BANK0   BANK1   BANK2   BANK3   BANK4   BANK5   BANK6   BANK7   BANK8   BANK9  BANK10  BANK1
      +1  BANK12  BANK13  BANK14  BANK15
  9779 ;;      Params:         4       0       0       0       0       0       0       0       0       0       0       0       
      +0       0       0       0       0
  9780 ;;      Locals:         0       0       0       0       0       0       0       0       0       0       0       0       
      +0       0       0       0       0
  9781 ;;      Temps:          5       0       0       0       0       0       0       0       0       0       0       0       
      +0       0       0       0       0
  9782 ;;      Totals:         9       0       0       0       0       0       0       0       0       0       0       0       
      +0       0       0       0       0
  9783 ;;Total ram usage:        9 bytes
  9784 ;; Hardware stack levels used:    1
  9785 ;; Hardware stack levels required when called:    5
  9786 ;; This function calls:
  9787 ;;		_putch
  9788 ;; This function is called by:
  9789 ;;		_pad
  9790 ;;		_vfpfcnvrt
  9791 ;;		_fputs
  9792 ;; This function uses a non-reentrant model
  9793 ;;
  9794                           
  9795                           	psect	text47
  9796  0028A2                     __ptext47:
  9797                           	opt callstack 0
  9798  0028A2                     _fputc:
  9799                           	opt callstack 18
  9800  0028A2  5009               	movf	fputc@fp^0,w,c
  9801  0028A4  100A               	iorwf	(fputc@fp+1)^0,w,c
  9802  0028A6  B4D8               	btfsc	status,2,c
  9803  0028A8  EF58  F014         	goto	u3921
  9804  0028AC  EF5A  F014         	goto	u3920
  9805  0028B0                     u3921:
  9806  0028B0  EF63  F014         	goto	l4234
  9807  0028B4                     u3920:
  9808  0028B4  5009               	movf	fputc@fp^0,w,c
  9809  0028B6  100A               	iorwf	(fputc@fp+1)^0,w,c
  9810  0028B8  A4D8               	btfss	status,2,c
  9811  0028BA  EF61  F014         	goto	u3931
  9812  0028BE  EF63  F014         	goto	u3930
  9813  0028C2                     u3931:
  9814  0028C2  EF68  F014         	goto	l4236
  9815  0028C6                     u3930:
  9816  0028C6                     l4234:
  9817  0028C6  5007               	movf	fputc@c^0,w,c
  9818  0028C8  ECC5  F017         	call	_putch
  9819  0028CC  EF9B  F014         	goto	l1413
  9820  0028D0                     l4236:
  9821  0028D0  EE20 F004          	lfsr	2,4
  9822  0028D4  5009               	movf	fputc@fp^0,w,c
  9823  0028D6  26D9               	addwf	fsr2l,f,c
  9824  0028D8  500A               	movf	(fputc@fp+1)^0,w,c
  9825  0028DA  22DA               	addwfc	fsr2h,f,c
  9826  0028DC  50DE               	movf	postinc2,w,c
  9827  0028DE  10DE               	iorwf	postinc2,w,c
  9828  0028E0  B4D8               	btfsc	status,2,c
  9829  0028E2  EF75  F014         	goto	u3941
  9830  0028E6  EF77  F014         	goto	u3940
  9831  0028EA                     u3941:
  9832  0028EA  EF92  F014         	goto	l4240
  9833  0028EE                     u3940:
  9834  0028EE  EE20 F004          	lfsr	2,4
  9835  0028F2  5009               	movf	fputc@fp^0,w,c
  9836  0028F4  26D9               	addwf	fsr2l,f,c
  9837  0028F6  500A               	movf	(fputc@fp+1)^0,w,c
  9838  0028F8  22DA               	addwfc	fsr2h,f,c
  9839  0028FA  EE10 F002          	lfsr	1,2
  9840  0028FE  5009               	movf	fputc@fp^0,w,c
  9841  002900  26E1               	addwf	fsr1l,f,c
  9842  002902  500A               	movf	(fputc@fp+1)^0,w,c
  9843  002904  22E2               	addwfc	fsr1h,f,c
  9844  002906  50DE               	movf	postinc2,w,c
  9845  002908  5CE6               	subwf	postinc1,w,c
  9846  00290A  50E6               	movf	postinc1,w,c
  9847  00290C  0A80               	xorlw	128
  9848  00290E  6E0F               	movwf	(??_fputc+4)^0,c
  9849  002910  50DE               	movf	postinc2,w,c
  9850  002912  0A80               	xorlw	128
  9851  002914  580F               	subwfb	(??_fputc+4)^0,w,c
  9852  002916  B0D8               	btfsc	status,0,c
  9853  002918  EF90  F014         	goto	u3951
  9854  00291C  EF92  F014         	goto	u3950
  9855  002920                     u3951:
  9856  002920  EF9B  F014         	goto	l1413
  9857  002924                     u3950:
  9858  002924                     l4240:
  9859  002924  EE20 F002          	lfsr	2,2
  9860  002928  5009               	movf	fputc@fp^0,w,c
  9861  00292A  26D9               	addwf	fsr2l,f,c
  9862  00292C  500A               	movf	(fputc@fp+1)^0,w,c
  9863  00292E  22DA               	addwfc	fsr2h,f,c
  9864  002930  2ADE               	incf	postinc2,f,c
  9865  002932  0E00               	movlw	0
  9866  002934  22DD               	addwfc	postdec2,f,c
  9867  002936                     l1413:
  9868  002936  0012               	return		;funcret
  9869  002938                     __end_of_fputc:
  9870                           	opt callstack 0
  9871                           
  9872 ;; *************** function _putch *****************
  9873 ;; Defined at:
  9874 ;;		line 146 in file "mcc_generated_files/eusart1.c"
  9875 ;; Parameters:    Size  Location     Type
  9876 ;;  txData          1    wreg     unsigned char 
  9877 ;; Auto vars:     Size  Location     Type
  9878 ;;  txData          1    5[COMRAM] unsigned char 
  9879 ;; Return value:  Size  Location     Type
  9880 ;;                  1    wreg      void 
  9881 ;; Registers used:
  9882 ;;		wreg, status,2, cstack
  9883 ;; Tracked objects:
  9884 ;;		On entry : 0/0
  9885 ;;		On exit  : 0/0
  9886 ;;		Unchanged: 0/0
  9887 ;; Data sizes:     COMRAM   BANK0   BANK1   BANK2   BANK3   BANK4   BANK5   BANK6   BANK7   BANK8   BANK9  BANK10  BANK1
      +1  BANK12  BANK13  BANK14  BANK15
  9888 ;;      Params:         0       0       0       0       0       0       0       0       0       0       0       0       
      +0       0       0       0       0
  9889 ;;      Locals:         1       0       0       0       0       0       0       0       0       0       0       0       
      +0       0       0       0       0
  9890 ;;      Temps:          0       0       0       0       0       0       0       0       0       0       0       0       
      +0       0       0       0       0
  9891 ;;      Totals:         1       0       0       0       0       0       0       0       0       0       0       0       
      +0       0       0       0       0
  9892 ;;Total ram usage:        1 bytes
  9893 ;; Hardware stack levels used:    1
  9894 ;; Hardware stack levels required when called:    4
  9895 ;; This function calls:
  9896 ;;		_EUSART1_Write
  9897 ;; This function is called by:
  9898 ;;		_fputc
  9899 ;; This function uses a non-reentrant model
  9900 ;;
  9901                           
  9902                           	psect	text48
  9903  002F8A                     __ptext48:
  9904                           	opt callstack 0
  9905  002F8A                     _putch:
  9906                           	opt callstack 18
  9907                           
  9908                           ;incstack = 0
  9909                           ;putch@txData stored from wreg
  9910  002F8A  6E06               	movwf	putch@txData^0,c
  9911  002F8C                     
  9912                           ;mcc_generated_files/eusart1.c: 146: void putch(char txData);mcc_generated_files/eusart1
      +                          .c: 147: {;mcc_generated_files/eusart1.c: 148:     EUSART1_Write(txData);
  9913  002F8C  5006               	movf	putch@txData^0,w,c
  9914  002F8E  EC72  F017         	call	_EUSART1_Write
  9915  002F92  0012               	return		;funcret
  9916  002F94                     __end_of_putch:
  9917                           	opt callstack 0
  9918                           
  9919 ;; *************** function _EUSART1_Write *****************
  9920 ;; Defined at:
  9921 ;;		line 132 in file "mcc_generated_files/eusart1.c"
  9922 ;; Parameters:    Size  Location     Type
  9923 ;;  txData          1    wreg     unsigned char 
  9924 ;; Auto vars:     Size  Location     Type
  9925 ;;  txData          1    4[COMRAM] unsigned char 
  9926 ;; Return value:  Size  Location     Type
  9927 ;;                  1    wreg      void 
  9928 ;; Registers used:
  9929 ;;		wreg
  9930 ;; Tracked objects:
  9931 ;;		On entry : 0/0
  9932 ;;		On exit  : 0/0
  9933 ;;		Unchanged: 0/0
  9934 ;; Data sizes:     COMRAM   BANK0   BANK1   BANK2   BANK3   BANK4   BANK5   BANK6   BANK7   BANK8   BANK9  BANK10  BANK1
      +1  BANK12  BANK13  BANK14  BANK15
  9935 ;;      Params:         0       0       0       0       0       0       0       0       0       0       0       0       
      +0       0       0       0       0
  9936 ;;      Locals:         1       0       0       0       0       0       0       0       0       0       0       0       
      +0       0       0       0       0
  9937 ;;      Temps:          0       0       0       0       0       0       0       0       0       0       0       0       
      +0       0       0       0       0
  9938 ;;      Totals:         1       0       0       0       0       0       0       0       0       0       0       0       
      +0       0       0       0       0
  9939 ;;Total ram usage:        1 bytes
  9940 ;; Hardware stack levels used:    1
  9941 ;; Hardware stack levels required when called:    3
  9942 ;; This function calls:
  9943 ;;		Nothing
  9944 ;; This function is called by:
  9945 ;;		_putch
  9946 ;; This function uses a non-reentrant model
  9947 ;;
  9948                           
  9949                           	psect	text49
  9950  002EE4                     __ptext49:
  9951                           	opt callstack 0
  9952  002EE4                     _EUSART1_Write:
  9953                           	opt callstack 18
  9954                           
  9955                           ;incstack = 0
  9956                           ;EUSART1_Write@txData stored from wreg
  9957  002EE4  6E05               	movwf	EUSART1_Write@txData^0,c
  9958  002EE6                     l114:
  9959                           
  9960                           ;mcc_generated_files/eusart1.c: 134:     while(0 == PIR1bits.TX1IF)
  9961  002EE6  A89E               	btfss	158,4,c	;volatile
  9962  002EE8  EF78  F017         	goto	u3911
  9963  002EEC  EF7A  F017         	goto	u3910
  9964  002EF0                     u3911:
  9965  002EF0  EF73  F017         	goto	l114
  9966  002EF4                     u3910:
  9967  002EF4                     
  9968                           ;mcc_generated_files/eusart1.c: 138:     TXREG1 = txData;
  9969  002EF4  C005  FFAD         	movff	EUSART1_Write@txData,4013	;volatile
  9970  002EF8  0012               	return		;funcret
  9971  002EFA                     __end_of_EUSART1_Write:
  9972                           	opt callstack 0
  9973                           
  9974 ;; *************** function _EUSART1_is_rx_ready *****************
  9975 ;; Defined at:
  9976 ;;		line 99 in file "mcc_generated_files/eusart1.c"
  9977 ;; Parameters:    Size  Location     Type
  9978 ;;		None
  9979 ;; Auto vars:     Size  Location     Type
  9980 ;;		None
  9981 ;; Return value:  Size  Location     Type
  9982 ;;                  1    wreg      _Bool 
  9983 ;; Registers used:
  9984 ;;		wreg
  9985 ;; Tracked objects:
  9986 ;;		On entry : 0/0
  9987 ;;		On exit  : 0/0
  9988 ;;		Unchanged: 0/0
  9989 ;; Data sizes:     COMRAM   BANK0   BANK1   BANK2   BANK3   BANK4   BANK5   BANK6   BANK7   BANK8   BANK9  BANK10  BANK1
      +1  BANK12  BANK13  BANK14  BANK15
  9990 ;;      Params:         0       0       0       0       0       0       0       0       0       0       0       0       
      +0       0       0       0       0
  9991 ;;      Locals:         0       0       0       0       0       0       0       0       0       0       0       0       
      +0       0       0       0       0
  9992 ;;      Temps:          0       0       0       0       0       0       0       0       0       0       0       0       
      +0       0       0       0       0
  9993 ;;      Totals:         0       0       0       0       0       0       0       0       0       0       0       0       
      +0       0       0       0       0
  9994 ;;Total ram usage:        0 bytes
  9995 ;; Hardware stack levels used:    1
  9996 ;; Hardware stack levels required when called:    3
  9997 ;; This function calls:
  9998 ;;		Nothing
  9999 ;; This function is called by:
 10000 ;;		_main
 10001 ;; This function uses a non-reentrant model
 10002 ;;
 10003                           
 10004                           	psect	text50
 10005  002F36                     __ptext50:
 10006                           	opt callstack 0
 10007  002F36                     _EUSART1_is_rx_ready:
 10008                           	opt callstack 27
 10009  002F36                     
 10010                           ;mcc_generated_files/eusart1.c: 101:     return (_Bool)(PIR1bits.RC1IF);
 10011  002F36  BA9E               	btfsc	158,5,c	;volatile
 10012  002F38  EFA0  F017         	goto	u3501
 10013  002F3C  EFA3  F017         	goto	u3500
 10014  002F40                     u3501:
 10015  002F40  0E01               	movlw	1
 10016  002F42  EFA4  F017         	goto	u3506
 10017  002F46                     u3500:
 10018  002F46  0E00               	movlw	0
 10019  002F48                     u3506:
 10020  002F48  0012               	return		;funcret
 10021  002F4A                     __end_of_EUSART1_is_rx_ready:
 10022                           	opt callstack 0
 10023                           
 10024 ;; *************** function _EUSART1_Read *****************
 10025 ;; Defined at:
 10026 ;;		line 113 in file "mcc_generated_files/eusart1.c"
 10027 ;; Parameters:    Size  Location     Type
 10028 ;;		None
 10029 ;; Auto vars:     Size  Location     Type
 10030 ;;		None
 10031 ;; Return value:  Size  Location     Type
 10032 ;;                  1    wreg      unsigned char 
 10033 ;; Registers used:
 10034 ;;		wreg, status,2
 10035 ;; Tracked objects:
 10036 ;;		On entry : 0/0
 10037 ;;		On exit  : 0/0
 10038 ;;		Unchanged: 0/0
 10039 ;; Data sizes:     COMRAM   BANK0   BANK1   BANK2   BANK3   BANK4   BANK5   BANK6   BANK7   BANK8   BANK9  BANK10  BANK1
      +1  BANK12  BANK13  BANK14  BANK15
 10040 ;;      Params:         0       0       0       0       0       0       0       0       0       0       0       0       
      +0       0       0       0       0
 10041 ;;      Locals:         0       0       0       0       0       0       0       0       0       0       0       0       
      +0       0       0       0       0
 10042 ;;      Temps:          0       0       0       0       0       0       0       0       0       0       0       0       
      +0       0       0       0       0
 10043 ;;      Totals:         0       0       0       0       0       0       0       0       0       0       0       0       
      +0       0       0       0       0
 10044 ;;Total ram usage:        0 bytes
 10045 ;; Hardware stack levels used:    1
 10046 ;; Hardware stack levels required when called:    3
 10047 ;; This function calls:
 10048 ;;		Nothing
 10049 ;; This function is called by:
 10050 ;;		_main
 10051 ;;		_getch
 10052 ;; This function uses a non-reentrant model
 10053 ;;
 10054                           
 10055                           	psect	text51
 10056  002DDE                     __ptext51:
 10057                           	opt callstack 0
 10058  002DDE                     _EUSART1_Read:
 10059                           	opt callstack 27
 10060  002DDE                     l107:
 10061                           
 10062                           ;mcc_generated_files/eusart1.c: 115:     while(!PIR1bits.RC1IF)
 10063  002DDE  AA9E               	btfss	158,5,c	;volatile
 10064  002DE0  EFF4  F016         	goto	u3511
 10065  002DE4  EFF6  F016         	goto	u3510
 10066  002DE8                     u3511:
 10067  002DE8  EFEF  F016         	goto	l107
 10068  002DEC                     u3510:
 10069  002DEC                     
 10070                           ;mcc_generated_files/eusart1.c: 119:     eusart1RxLastError.status = 0;
 10071  002DEC  0E00               	movlw	0
 10072  002DEE  0100               	movlb	0	; () banked
 10073  002DF0  6F8B               	movwf	_eusart1RxLastError& (0+255),b	;volatile
 10074  002DF2                     
 10075                           ; BSR set to: 0
 10076                           ;mcc_generated_files/eusart1.c: 121:     if(1 == RCSTA1bits.OERR)
 10077  002DF2  A2AB               	btfss	171,1,c	;volatile
 10078  002DF4  EFFE  F016         	goto	u3521
 10079  002DF8  EF00  F017         	goto	u3520
 10080  002DFC                     u3521:
 10081  002DFC  EF02  F017         	goto	l3776
 10082  002E00                     u3520:
 10083  002E00                     
 10084                           ; BSR set to: 0
 10085                           ;mcc_generated_files/eusart1.c: 122:     {;mcc_generated_files/eusart1.c: 125:         R
      +                          CSTA1bits.CREN = 0;
 10086  002E00  98AB               	bcf	171,4,c	;volatile
 10087                           
 10088                           ;mcc_generated_files/eusart1.c: 126:         RCSTA1bits.CREN = 1;
 10089  002E02  88AB               	bsf	171,4,c	;volatile
 10090  002E04                     l3776:
 10091                           
 10092                           ; BSR set to: 0
 10093                           ;mcc_generated_files/eusart1.c: 129:     return RCREG1;
 10094  002E04  50AE               	movf	174,w,c	;volatile
 10095  002E06                     
 10096                           ; BSR set to: 0
 10097  002E06  0012               	return		;funcret
 10098  002E08                     __end_of_EUSART1_Read:
 10099                           	opt callstack 0
 10100                           
 10101 ;; *************** function _INTERRUPT_InterruptManager *****************
 10102 ;; Defined at:
 10103 ;;		line 58 in file "mcc_generated_files/interrupt_manager.c"
 10104 ;; Parameters:    Size  Location     Type
 10105 ;;		None
 10106 ;; Auto vars:     Size  Location     Type
 10107 ;;		None
 10108 ;; Return value:  Size  Location     Type
 10109 ;;                  1    wreg      void 
 10110 ;; Registers used:
 10111 ;;		wreg, status,2, status,0, cstack
 10112 ;; Tracked objects:
 10113 ;;		On entry : 0/0
 10114 ;;		On exit  : 0/0
 10115 ;;		Unchanged: 0/0
 10116 ;; Data sizes:     COMRAM   BANK0   BANK1   BANK2   BANK3   BANK4   BANK5   BANK6   BANK7   BANK8   BANK9  BANK10  BANK1
      +1  BANK12  BANK13  BANK14  BANK15
 10117 ;;      Params:         0       0       0       0       0       0       0       0       0       0       0       0       
      +0       0       0       0       0
 10118 ;;      Locals:         0       0       0       0       0       0       0       0       0       0       0       0       
      +0       0       0       0       0
 10119 ;;      Temps:          0       0       0       0       0       0       0       0       0       0       0       0       
      +0       0       0       0       0
 10120 ;;      Totals:         0       0       0       0       0       0       0       0       0       0       0       0       
      +0       0       0       0       0
 10121 ;;Total ram usage:        0 bytes
 10122 ;; Hardware stack levels used:    1
 10123 ;; Hardware stack levels required when called:    2
 10124 ;; This function calls:
 10125 ;;		_ECCP2_CompareISR
 10126 ;; This function is called by:
 10127 ;;		Interrupt level 2
 10128 ;; This function uses a non-reentrant model
 10129 ;;
 10130                           
 10131                           	psect	intcode
 10132  000008                     __pintcode:
 10133                           	opt callstack 0
 10134  000008                     _INTERRUPT_InterruptManager:
 10135                           	opt callstack 16
 10136                           
 10137                           ; BSR set to: 0
 10138                           ;incstack = 0
 10139  000008  825B               	bsf	int$flags,1,c	;set compiler interrupt flag (level 2)
 10140  00000A                     
 10141                           ;mcc_generated_files/interrupt_manager.c: 61:     if(INTCONbits.PEIE == 1)
 10142  00000A  ACF2               	btfss	242,6,c	;volatile
 10143  00000C  EF0A  F000         	goto	i2u388_41
 10144  000010  EF0C  F000         	goto	i2u388_40
 10145  000014                     i2u388_41:
 10146  000014  EF1C  F000         	goto	i2l595
 10147  000018                     i2u388_40:
 10148  000018                     
 10149                           ;mcc_generated_files/interrupt_manager.c: 62:     {;mcc_generated_files/interrupt_manage
      +                          r.c: 63:         if(PIE2bits.CCP2IE == 1 && PIR2bits.CCP2IF == 1)
 10150  000018  A0A0               	btfss	160,0,c	;volatile
 10151  00001A  EF11  F000         	goto	i2u389_41
 10152  00001E  EF13  F000         	goto	i2u389_40
 10153  000022                     i2u389_41:
 10154  000022  EF1C  F000         	goto	i2l595
 10155  000026                     i2u389_40:
 10156  000026  A0A1               	btfss	161,0,c	;volatile
 10157  000028  EF18  F000         	goto	i2u390_41
 10158  00002C  EF1A  F000         	goto	i2u390_40
 10159  000030                     i2u390_41:
 10160  000030  EF1C  F000         	goto	i2l595
 10161  000034                     i2u390_40:
 10162  000034                     
 10163                           ;mcc_generated_files/interrupt_manager.c: 64:         {;mcc_generated_files/interrupt_ma
      +                          nager.c: 65:             ECCP2_CompareISR();
 10164  000034  ECCA  F017         	call	_ECCP2_CompareISR	;wreg free
 10165  000038                     i2l595:
 10166  000038  925B               	bcf	int$flags,1,c	;clear compiler interrupt flag (level 2)
 10167  00003A  0011               	retfie		f
 10168  00003C                     __end_of_INTERRUPT_InterruptManager:
 10169                           	opt callstack 0
 10170                           
 10171 ;; *************** function _ECCP2_CompareISR *****************
 10172 ;; Defined at:
 10173 ;;		line 93 in file "mcc_generated_files/eccp2.c"
 10174 ;; Parameters:    Size  Location     Type
 10175 ;;		None
 10176 ;; Auto vars:     Size  Location     Type
 10177 ;;		None
 10178 ;; Return value:  Size  Location     Type
 10179 ;;                  1    wreg      void 
 10180 ;; Registers used:
 10181 ;;		wreg, status,2, status,0, cstack
 10182 ;; Tracked objects:
 10183 ;;		On entry : 0/0
 10184 ;;		On exit  : 0/0
 10185 ;;		Unchanged: 0/0
 10186 ;; Data sizes:     COMRAM   BANK0   BANK1   BANK2   BANK3   BANK4   BANK5   BANK6   BANK7   BANK8   BANK9  BANK10  BANK1
      +1  BANK12  BANK13  BANK14  BANK15
 10187 ;;      Params:         0       0       0       0       0       0       0       0       0       0       0       0       
      +0       0       0       0       0
 10188 ;;      Locals:         0       0       0       0       0       0       0       0       0       0       0       0       
      +0       0       0       0       0
 10189 ;;      Temps:          0       0       0       0       0       0       0       0       0       0       0       0       
      +0       0       0       0       0
 10190 ;;      Totals:         0       0       0       0       0       0       0       0       0       0       0       0       
      +0       0       0       0       0
 10191 ;;Total ram usage:        0 bytes
 10192 ;; Hardware stack levels used:    1
 10193 ;; Hardware stack levels required when called:    1
 10194 ;; This function calls:
 10195 ;;		_ECCP2_ISR
 10196 ;; This function is called by:
 10197 ;;		_INTERRUPT_InterruptManager
 10198 ;; This function uses a non-reentrant model
 10199 ;;
 10200                           
 10201                           	psect	text53
 10202  002F94                     __ptext53:
 10203                           	opt callstack 0
 10204  002F94                     _ECCP2_CompareISR:
 10205                           	opt callstack 16
 10206  002F94                     
 10207                           ;mcc_generated_files/eccp2.c: 95:     ECCP2_ISR();
 10208  002F94  ECB5  F00F         	call	_ECCP2_ISR	;wreg free
 10209  002F98  0012               	return		;funcret
 10210  002F9A                     __end_of_ECCP2_CompareISR:
 10211                           	opt callstack 0
 10212                           
 10213 ;; *************** function _ECCP2_ISR *****************
 10214 ;; Defined at:
 10215 ;;		line 128 in file "func.c"
 10216 ;; Parameters:    Size  Location     Type
 10217 ;;		None
 10218 ;; Auto vars:     Size  Location     Type
 10219 ;;		None
 10220 ;; Return value:  Size  Location     Type
 10221 ;;                  1    wreg      void 
 10222 ;; Registers used:
 10223 ;;		wreg, status,2, status,0
 10224 ;; Tracked objects:
 10225 ;;		On entry : 0/0
 10226 ;;		On exit  : 0/0
 10227 ;;		Unchanged: 0/0
 10228 ;; Data sizes:     COMRAM   BANK0   BANK1   BANK2   BANK3   BANK4   BANK5   BANK6   BANK7   BANK8   BANK9  BANK10  BANK1
      +1  BANK12  BANK13  BANK14  BANK15
 10229 ;;      Params:         0       0       0       0       0       0       0       0       0       0       0       0       
      +0       0       0       0       0
 10230 ;;      Locals:         0       0       0       0       0       0       0       0       0       0       0       0       
      +0       0       0       0       0
 10231 ;;      Temps:          4       0       0       0       0       0       0       0       0       0       0       0       
      +0       0       0       0       0
 10232 ;;      Totals:         4       0       0       0       0       0       0       0       0       0       0       0       
      +0       0       0       0       0
 10233 ;;Total ram usage:        4 bytes
 10234 ;; Hardware stack levels used:    1
 10235 ;; This function calls:
 10236 ;;		Nothing
 10237 ;; This function is called by:
 10238 ;;		_ECCP2_CompareISR
 10239 ;; This function uses a non-reentrant model
 10240 ;;
 10241                           
 10242                           	psect	text54
 10243  001F6A                     __ptext54:
 10244                           	opt callstack 0
 10245  001F6A                     _ECCP2_ISR:
 10246                           	opt callstack 16
 10247  001F6A                     
 10248                           ;func.c: 129:     static txStates state = TX_IDLE;;func.c: 130:     static uint8_t shift
      +                          Mag;;func.c: 131:     static uint8_t sentLow;;func.c: 132:     static uint16_t waitDurat
      +                          ion;;func.c: 134:     if(transmitting) {
 10249  001F6A  0100               	movlb	0	; () banked
 10250  001F6C  5188               	movf	_transmitting& (0+255),w,b
 10251  001F6E  B4D8               	btfsc	status,2,c
 10252  001F70  EFBC  F00F         	goto	i2u306_41
 10253  001F74  EFBE  F00F         	goto	i2u306_40
 10254  001F78                     i2u306_41:
 10255  001F78  EF5F  F010         	goto	i2l3526
 10256  001F7C                     i2u306_40:
 10257  001F7C  EF42  F010         	goto	i2l3524
 10258  001F80                     i2l3484:
 10259                           
 10260                           ; BSR set to: 0
 10261                           ;func.c: 137:                 shiftMag = 33 -1;
 10262  001F80  0E20               	movlw	32
 10263  001F82  6F85               	movwf	ECCP2_ISR@shiftMag& (0+255),b
 10264                           
 10265                           ;func.c: 138:                 sentLow = 0;
 10266  001F84  0E00               	movlw	0
 10267  001F86  6F84               	movwf	ECCP2_ISR@sentLow& (0+255),b
 10268                           
 10269                           ;func.c: 139:                 state = TX_START;
 10270  001F88  0E01               	movlw	1
 10271  001F8A  6F86               	movwf	ECCP2_ISR@state& (0+255),b
 10272                           
 10273                           ;func.c: 140:                 break;
 10274  001F8C  EF5F  F010         	goto	i2l3526
 10275  001F90                     i2l3486:
 10276                           
 10277                           ; BSR set to: 0
 10278                           ;func.c: 143:                 if(!sentLow) {
 10279  001F90  5184               	movf	ECCP2_ISR@sentLow& (0+255),w,b
 10280  001F92  A4D8               	btfss	status,2,c
 10281  001F94  EFCE  F00F         	goto	i2u307_41
 10282  001F98  EFD0  F00F         	goto	i2u307_40
 10283  001F9C                     i2u307_41:
 10284  001F9C  EFDA  F00F         	goto	i2l540
 10285  001FA0                     i2u307_40:
 10286  001FA0                     
 10287                           ; BSR set to: 0
 10288                           ;func.c: 144:                     state = TX_DATA;
 10289  001FA0  0E02               	movlw	2
 10290  001FA2  6F86               	movwf	ECCP2_ISR@state& (0+255),b
 10291  001FA4                     
 10292                           ; BSR set to: 0
 10293                           ;func.c: 145:                     waitDuration = referenceDurations.startHigh;
 10294  001FA4  C0EB  F078         	movff	_referenceDurations+2,ECCP2_ISR@waitDuration
 10295  001FA8  C0EC  F079         	movff	_referenceDurations+3,ECCP2_ISR@waitDuration+1
 10296                           
 10297                           ;func.c: 146:                     sentLow = 0;
 10298  001FAC  0E00               	movlw	0
 10299  001FAE  6F84               	movwf	ECCP2_ISR@sentLow& (0+255),b
 10300                           
 10301                           ;func.c: 147:                 } else{
 10302  001FB0  EF5F  F010         	goto	i2l3526
 10303  001FB4                     i2l540:
 10304                           
 10305                           ; BSR set to: 0
 10306                           ;func.c: 148:                     waitDuration = referenceDurations.startLow;
 10307  001FB4  C0E9  F078         	movff	_referenceDurations,ECCP2_ISR@waitDuration
 10308  001FB8  C0EA  F079         	movff	_referenceDurations+1,ECCP2_ISR@waitDuration+1
 10309  001FBC                     
 10310                           ; BSR set to: 0
 10311                           ;func.c: 149:                     sentLow = 1;
 10312  001FBC  0E01               	movlw	1
 10313  001FBE  6F84               	movwf	ECCP2_ISR@sentLow& (0+255),b
 10314  001FC0  EF5F  F010         	goto	i2l3526
 10315  001FC4                     i2l3494:
 10316                           
 10317                           ; BSR set to: 0
 10318                           ;func.c: 154:                 if( (decodedValue>>shiftMag) % 2) {
 10319  001FC4  5185               	movf	ECCP2_ISR@shiftMag& (0+255),w,b
 10320  001FC6  C070  F001         	movff	_decodedValue,??_ECCP2_ISR
 10321  001FCA  C071  F002         	movff	_decodedValue+1,??_ECCP2_ISR+1
 10322  001FCE  C072  F003         	movff	_decodedValue+2,??_ECCP2_ISR+2
 10323  001FD2  C073  F004         	movff	_decodedValue+3,??_ECCP2_ISR+3
 10324  001FD6  2AE8               	incf	wreg,f,c
 10325  001FD8  EFF3  F00F         	goto	i2u308_40
 10326  001FDC                     i2u308_45:
 10327  001FDC  90D8               	bcf	status,0,c
 10328  001FDE  3204               	rrcf	(??_ECCP2_ISR+3)^0,f,c
 10329  001FE0  3203               	rrcf	(??_ECCP2_ISR+2)^0,f,c
 10330  001FE2  3202               	rrcf	(??_ECCP2_ISR+1)^0,f,c
 10331  001FE4  3201               	rrcf	??_ECCP2_ISR^0,f,c
 10332  001FE6                     i2u308_40:
 10333  001FE6  2EE8               	decfsz	wreg,f,c
 10334  001FE8  EFEE  F00F         	goto	i2u308_45
 10335  001FEC  A001               	btfss	??_ECCP2_ISR^0,0,c
 10336  001FEE  EFFB  F00F         	goto	i2u309_41
 10337  001FF2  EFFD  F00F         	goto	i2u309_40
 10338  001FF6                     i2u309_41:
 10339  001FF6  EF16  F010         	goto	i2l3506
 10340  001FFA                     i2u309_40:
 10341  001FFA                     
 10342                           ; BSR set to: 0
 10343                           ;func.c: 155:                     if(!sentLow) {
 10344  001FFA  5184               	movf	ECCP2_ISR@sentLow& (0+255),w,b
 10345  001FFC  A4D8               	btfss	status,2,c
 10346  001FFE  EF03  F010         	goto	i2u310_41
 10347  002002  EF05  F010         	goto	i2u310_40
 10348  002006                     i2u310_41:
 10349  002006  EF0D  F010         	goto	i2l544
 10350  00200A                     i2u310_40:
 10351  00200A                     
 10352                           ; BSR set to: 0
 10353                           ;func.c: 156:                         waitDuration = referenceDurations.dataOneLow;
 10354  00200A  C0F1  F078         	movff	_referenceDurations+8,ECCP2_ISR@waitDuration
 10355  00200E  C0F2  F079         	movff	_referenceDurations+9,ECCP2_ISR@waitDuration+1
 10356  002012                     i2l3500:
 10357                           
 10358                           ; BSR set to: 0
 10359                           ;func.c: 157:                         sentLow = 1;
 10360  002012  0E01               	movlw	1
 10361  002014  6F84               	movwf	ECCP2_ISR@sentLow& (0+255),b
 10362                           
 10363                           ;func.c: 158:                     } else {
 10364  002016  EF2A  F010         	goto	i2l3516
 10365  00201A                     i2l544:
 10366                           
 10367                           ; BSR set to: 0
 10368                           ;func.c: 159:                         waitDuration = referenceDurations.dataOneHigh;
 10369  00201A  C0F3  F078         	movff	_referenceDurations+10,ECCP2_ISR@waitDuration
 10370  00201E  C0F4  F079         	movff	_referenceDurations+11,ECCP2_ISR@waitDuration+1
 10371  002022                     i2l3502:
 10372                           
 10373                           ; BSR set to: 0
 10374                           ;func.c: 160:                         sentLow = 0;
 10375  002022  0E00               	movlw	0
 10376  002024  6F84               	movwf	ECCP2_ISR@sentLow& (0+255),b
 10377  002026                     
 10378                           ; BSR set to: 0
 10379                           ;func.c: 161:                         shiftMag--;
 10380  002026  0785               	decf	ECCP2_ISR@shiftMag& (0+255),f,b
 10381  002028  EF2A  F010         	goto	i2l3516
 10382  00202C                     i2l3506:
 10383                           
 10384                           ; BSR set to: 0
 10385                           ;func.c: 164:                     if(!sentLow) {
 10386  00202C  5184               	movf	ECCP2_ISR@sentLow& (0+255),w,b
 10387  00202E  A4D8               	btfss	status,2,c
 10388  002030  EF1C  F010         	goto	i2u311_41
 10389  002034  EF1E  F010         	goto	i2u311_40
 10390  002038                     i2u311_41:
 10391  002038  EF24  F010         	goto	i2l547
 10392  00203C                     i2u311_40:
 10393  00203C                     
 10394                           ; BSR set to: 0
 10395                           ;func.c: 165:                         waitDuration = referenceDurations.dataZeroLow;
 10396  00203C  C0ED  F078         	movff	_referenceDurations+4,ECCP2_ISR@waitDuration
 10397  002040  C0EE  F079         	movff	_referenceDurations+5,ECCP2_ISR@waitDuration+1
 10398  002044  EF09  F010         	goto	i2l3500
 10399  002048                     i2l547:
 10400                           
 10401                           ; BSR set to: 0
 10402                           ;func.c: 168:                         waitDuration = referenceDurations.dataZeroHigh;
 10403  002048  C0EF  F078         	movff	_referenceDurations+6,ECCP2_ISR@waitDuration
 10404  00204C  C0F0  F079         	movff	_referenceDurations+7,ECCP2_ISR@waitDuration+1
 10405  002050  EF11  F010         	goto	i2l3502
 10406  002054                     i2l3516:
 10407                           
 10408                           ; BSR set to: 0
 10409                           ;func.c: 173:                 if(shiftMag == 1) {
 10410  002054  0585               	decf	ECCP2_ISR@shiftMag& (0+255),w,b
 10411  002056  A4D8               	btfss	status,2,c
 10412  002058  EF30  F010         	goto	i2u312_41
 10413  00205C  EF32  F010         	goto	i2u312_40
 10414  002060                     i2u312_41:
 10415  002060  EF5F  F010         	goto	i2l3526
 10416  002064                     i2u312_40:
 10417  002064                     
 10418                           ; BSR set to: 0
 10419                           ;func.c: 174:                     state = TX_STOP;
 10420  002064  0E03               	movlw	3
 10421  002066  6F86               	movwf	ECCP2_ISR@state& (0+255),b
 10422  002068  EF5F  F010         	goto	i2l3526
 10423  00206C                     i2l550:
 10424                           
 10425                           ; BSR set to: 0
 10426                           ;func.c: 179:                 waitDuration = referenceDurations.stopLow;
 10427  00206C  C0F5  F078         	movff	_referenceDurations+12,ECCP2_ISR@waitDuration
 10428  002070  C0F6  F079         	movff	_referenceDurations+13,ECCP2_ISR@waitDuration+1
 10429  002074                     
 10430                           ; BSR set to: 0
 10431                           ;func.c: 180:                 state = TX_IDLE;
 10432  002074  0E00               	movlw	0
 10433  002076  6F86               	movwf	ECCP2_ISR@state& (0+255),b
 10434                           
 10435                           ;func.c: 181:                 transmitting = 0;
 10436  002078  0E00               	movlw	0
 10437  00207A  6F88               	movwf	_transmitting& (0+255),b
 10438                           
 10439                           ;func.c: 182:                 transmittingFinished = 1;
 10440  00207C  0E01               	movlw	1
 10441  00207E  6F87               	movwf	_transmittingFinished& (0+255),b
 10442                           
 10443                           ;func.c: 183:                 break;
 10444  002080  EF5F  F010         	goto	i2l3526
 10445  002084                     i2l3524:
 10446                           
 10447                           ; BSR set to: 0
 10448  002084  5186               	movf	ECCP2_ISR@state& (0+255),w,b
 10449  002086  6E01               	movwf	??_ECCP2_ISR^0,c
 10450  002088  6A02               	clrf	(??_ECCP2_ISR+1)^0,c
 10451                           
 10452                           ; Switch on 2 bytes has been partitioned into a top level switch of size 1, and 1 sub-sw
      +                          itches
 10453                           ; Switch size 1, requested type "simple"
 10454                           ; Number of cases is 1, Range of values is 0 to 0
 10455                           ; switch strategies available:
 10456                           ; Name         Instructions Cycles
 10457                           ; simple_byte            4     3 (average)
 10458                           ;	Chosen strategy is simple_byte
 10459  00208A  5002               	movf	(??_ECCP2_ISR+1)^0,w,c
 10460  00208C  0A00               	xorlw	0	; case 0
 10461  00208E  B4D8               	btfsc	status,2,c
 10462  002090  EF4C  F010         	goto	i2l4980
 10463  002094  EF5F  F010         	goto	i2l3526
 10464  002098                     i2l4980:
 10465                           
 10466                           ; BSR set to: 0
 10467                           ; Switch size 1, requested type "simple"
 10468                           ; Number of cases is 4, Range of values is 0 to 3
 10469                           ; switch strategies available:
 10470                           ; Name         Instructions Cycles
 10471                           ; simple_byte           13     7 (average)
 10472                           ;	Chosen strategy is simple_byte
 10473  002098  5001               	movf	??_ECCP2_ISR^0,w,c
 10474  00209A  0A00               	xorlw	0	; case 0
 10475  00209C  B4D8               	btfsc	status,2,c
 10476  00209E  EFC0  F00F         	goto	i2l3484
 10477  0020A2  0A01               	xorlw	1	; case 1
 10478  0020A4  B4D8               	btfsc	status,2,c
 10479  0020A6  EFC8  F00F         	goto	i2l3486
 10480  0020AA  0A03               	xorlw	3	; case 2
 10481  0020AC  B4D8               	btfsc	status,2,c
 10482  0020AE  EFE2  F00F         	goto	i2l3494
 10483  0020B2  0A01               	xorlw	1	; case 3
 10484  0020B4  B4D8               	btfsc	status,2,c
 10485  0020B6  EF36  F010         	goto	i2l550
 10486  0020BA  EF5F  F010         	goto	i2l3526
 10487  0020BE                     i2l3526:
 10488                           
 10489                           ; BSR set to: 0
 10490                           ;func.c: 186:     CCPR2 = TMR1+ waitDuration/(8)/(16);
 10491  0020BE  C078  F001         	movff	ECCP2_ISR@waitDuration,??_ECCP2_ISR
 10492  0020C2  C079  F002         	movff	ECCP2_ISR@waitDuration+1,??_ECCP2_ISR+1
 10493  0020C6  90D8               	bcf	status,0,c
 10494  0020C8  3202               	rrcf	(??_ECCP2_ISR+1)^0,f,c
 10495  0020CA  3201               	rrcf	??_ECCP2_ISR^0,f,c
 10496  0020CC  90D8               	bcf	status,0,c
 10497  0020CE  3202               	rrcf	(??_ECCP2_ISR+1)^0,f,c
 10498  0020D0  3201               	rrcf	??_ECCP2_ISR^0,f,c
 10499  0020D2  90D8               	bcf	status,0,c
 10500  0020D4  3202               	rrcf	(??_ECCP2_ISR+1)^0,f,c
 10501  0020D6  3201               	rrcf	??_ECCP2_ISR^0,f,c
 10502  0020D8  0E04               	movlw	4
 10503  0020DA  6E03               	movwf	(??_ECCP2_ISR+2)^0,c
 10504  0020DC                     i2u313_45:
 10505  0020DC  90D8               	bcf	status,0,c
 10506  0020DE  3202               	rrcf	(??_ECCP2_ISR+1)^0,f,c
 10507  0020E0  3201               	rrcf	??_ECCP2_ISR^0,f,c
 10508  0020E2  2E03               	decfsz	(??_ECCP2_ISR+2)^0,f,c
 10509  0020E4  EF6E  F010         	goto	i2u313_45
 10510  0020E8  50CE               	movf	206,w,c	;volatile
 10511  0020EA  2401               	addwf	??_ECCP2_ISR^0,w,c
 10512  0020EC  6E67               	movwf	103,c	;volatile
 10513  0020EE  50CF               	movf	207,w,c	;volatile
 10514  0020F0  2002               	addwfc	(??_ECCP2_ISR+1)^0,w,c
 10515  0020F2  6E68               	movwf	104,c	;volatile
 10516  0020F4                     
 10517                           ; BSR set to: 0
 10518                           ;func.c: 188:     PIR2bits.CCP2IF = 0;
 10519  0020F4  90A1               	bcf	161,0,c	;volatile
 10520  0020F6                     
 10521                           ; BSR set to: 0
 10522  0020F6  0012               	return		;funcret
 10523  0020F8                     __end_of_ECCP2_ISR:
 10524                           	opt callstack 0
 10525                           
 10526                           	psect	rparam
 10527  0000                     
 10528                           	psect	temp
 10529  00005B                     btemp:
 10530                           	opt callstack 0
 10531  00005B                     	ds	1
 10532  0000                     int$flags	set	btemp
 10533  0000                     wtemp8	set	btemp+1
 10534  0000                     ttemp5	set	btemp+1
 10535  0000                     ttemp6	set	btemp+4
 10536  0000                     ttemp7	set	btemp+8
 10537                           tosu	equ	0xFFF
 10538                           tosh	equ	0xFFE
 10539                           tosl	equ	0xFFD
 10540                           stkptr	equ	0xFFC
 10541                           pclatu	equ	0xFFB
 10542                           pclath	equ	0xFFA
 10543                           pcl	equ	0xFF9
 10544                           tblptru	equ	0xFF8
 10545                           tblptrh	equ	0xFF7
 10546                           tblptrl	equ	0xFF6
 10547                           tablat	equ	0xFF5
 10548                           prodh	equ	0xFF4
 10549                           prodl	equ	0xFF3
 10550                           indf0	equ	0xFEF
 10551                           postinc0	equ	0xFEE
 10552                           postdec0	equ	0xFED
 10553                           preinc0	equ	0xFEC
 10554                           plusw0	equ	0xFEB
 10555                           fsr0h	equ	0xFEA
 10556                           fsr0l	equ	0xFE9
 10557                           wreg	equ	0xFE8
 10558                           indf1	equ	0xFE7
 10559                           postinc1	equ	0xFE6
 10560                           postdec1	equ	0xFE5
 10561                           preinc1	equ	0xFE4
 10562                           plusw1	equ	0xFE3
 10563                           fsr1h	equ	0xFE2
 10564                           fsr1l	equ	0xFE1
 10565                           bsr	equ	0xFE0
 10566                           indf2	equ	0xFDF
 10567                           postinc2	equ	0xFDE
 10568                           postdec2	equ	0xFDD
 10569                           preinc2	equ	0xFDC
 10570                           plusw2	equ	0xFDB
 10571                           fsr2h	equ	0xFDA
 10572                           fsr2l	equ	0xFD9
 10573                           status	equ	0xFD8


Data Sizes:
    Strings     1382
    Constant    0
    Data        14
    BSS         376
    Persistent  0
    Stack       0

Auto Spaces:
    Space          Size  Autos    Used
    COMRAM           94     86      90
    BANK0           160     61     151
    BANK1           256      0     164
    BANK2           256      0     132
    BANK3           256      0       0
    BANK4           256      0       0
    BANK5           256      0       0
    BANK6           256      0       0
    BANK7           256      0       0
    BANK8           256      0       0
    BANK9           256      0       0
    BANK10          256      0       0
    BANK11          256      0       0
    BANK12          256      0       0
    BANK13          256      0       0
    BANK14          256      0       0
    BANK15           56      0       0

Pointer List with Targets:

    strncmp@_r	PTR const unsigned char  size(2) Largest target is 3
		 -> STR_47(CODE[3]), STR_43(CODE[3]), STR_38(CODE[3]), 

    strncmp@r	PTR const unsigned char  size(2) Largest target is 3
		 -> STR_47(CODE[3]), STR_43(CODE[3]), STR_38(CODE[3]), 

    strncmp@_l	PTR const unsigned char  size(2) Largest target is 407
		 -> STR_35(CODE[3]), STR_34(CODE[3]), STR_33(CODE[248]), STR_32(CODE[3]), 
		 -> STR_31(CODE[2]), STR_30(CODE[2]), STR_29(CODE[8]), STR_28(CODE[407]), 
		 -> STR_27(CODE[17]), STR_26(CODE[2]), STR_25(CODE[2]), STR_24(CODE[8]), 
		 -> STR_23(CODE[5]), STR_22(CODE[50]), STR_21(CODE[65]), STR_20(CODE[16]), 
		 -> STR_19(CODE[15]), STR_18(CODE[24]), STR_17(CODE[9]), STR_16(CODE[32]), 
		 -> STR_15(CODE[30]), STR_14(CODE[11]), STR_13(CODE[13]), STR_12(CODE[80]), 
		 -> STR_11(CODE[33]), STR_10(CODE[32]), STR_9(CODE[14]), STR_8(CODE[22]), 
		 -> STR_7(CODE[26]), STR_6(CODE[13]), STR_5(CODE[36]), STR_4(CODE[40]), 
		 -> STR_3(CODE[31]), STR_2(CODE[30]), STR_1(CODE[64]), 

    strncmp@l	PTR const unsigned char  size(2) Largest target is 407
		 -> STR_35(CODE[3]), STR_34(CODE[3]), STR_33(CODE[248]), STR_32(CODE[3]), 
		 -> STR_31(CODE[2]), STR_30(CODE[2]), STR_29(CODE[8]), STR_28(CODE[407]), 
		 -> STR_27(CODE[17]), STR_26(CODE[2]), STR_25(CODE[2]), STR_24(CODE[8]), 
		 -> STR_23(CODE[5]), STR_22(CODE[50]), STR_21(CODE[65]), STR_20(CODE[16]), 
		 -> STR_19(CODE[15]), STR_18(CODE[24]), STR_17(CODE[9]), STR_16(CODE[32]), 
		 -> STR_15(CODE[30]), STR_14(CODE[11]), STR_13(CODE[13]), STR_12(CODE[80]), 
		 -> STR_11(CODE[33]), STR_10(CODE[32]), STR_9(CODE[14]), STR_8(CODE[22]), 
		 -> STR_7(CODE[26]), STR_6(CODE[13]), STR_5(CODE[36]), STR_4(CODE[40]), 
		 -> STR_3(CODE[31]), STR_2(CODE[30]), STR_1(CODE[64]), 

    strlen@s	PTR const unsigned char  size(2) Largest target is 32
		 -> dbuf(BANK0[32]), 

    strlen@a	PTR const unsigned char  size(2) Largest target is 32
		 -> dbuf(BANK0[32]), 

    printf@fmt	PTR const unsigned char  size(2) Largest target is 407
		 -> STR_35(CODE[3]), STR_34(CODE[3]), STR_33(CODE[248]), STR_32(CODE[3]), 
		 -> STR_31(CODE[2]), STR_30(CODE[2]), STR_29(CODE[8]), STR_28(CODE[407]), 
		 -> STR_27(CODE[17]), STR_26(CODE[2]), STR_25(CODE[2]), STR_24(CODE[8]), 
		 -> STR_23(CODE[5]), STR_22(CODE[50]), STR_21(CODE[65]), STR_20(CODE[16]), 
		 -> STR_19(CODE[15]), STR_18(CODE[24]), STR_17(CODE[9]), STR_16(CODE[32]), 
		 -> STR_15(CODE[30]), STR_14(CODE[11]), STR_13(CODE[13]), STR_12(CODE[80]), 
		 -> STR_11(CODE[33]), STR_10(CODE[32]), STR_9(CODE[14]), STR_8(CODE[22]), 
		 -> STR_7(CODE[26]), STR_6(CODE[13]), STR_5(CODE[36]), STR_4(CODE[40]), 
		 -> STR_3(CODE[31]), STR_2(CODE[30]), STR_1(CODE[64]), 

    printf@ap	PTR void [1] size(2) Largest target is 2
		 -> ?_printf(BANK0[2]), 

    fputs@s	PTR const unsigned char  size(2) Largest target is 32
		 -> dbuf(BANK0[32]), 

    fputs@fp	PTR struct _IO_FILE size(2) Largest target is 0
		 -> NULL(NULL[0]), 

    S1933_IO_FILE$buffer	PTR unsigned char  size(2) Largest target is 0

    fputc@fp.buffer	PTR unsigned char  size(2) Largest target is 0

    fputc@fp	PTR struct _IO_FILE size(2) Largest target is 0
		 -> NULL(NULL[0]), 

    memset@dest	PTR void  size(2) Largest target is 32
		 -> buttonSequenceCodes(BANK1[32]), 

    memset@s	PTR unsigned char  size(2) Largest target is 32
		 -> buttonSequenceCodes(BANK1[32]), 

    vfprintf@ap	PTR PTR void  size(2) Largest target is 2
		 -> printf@ap(BANK0[2]), 

    vfprintf@fp	PTR struct _IO_FILE size(2) Largest target is 0
		 -> NULL(NULL[0]), 

    vfprintf@fmt	PTR const unsigned char  size(2) Largest target is 407
		 -> STR_35(CODE[3]), STR_34(CODE[3]), STR_33(CODE[248]), STR_32(CODE[3]), 
		 -> STR_31(CODE[2]), STR_30(CODE[2]), STR_29(CODE[8]), STR_28(CODE[407]), 
		 -> STR_27(CODE[17]), STR_26(CODE[2]), STR_25(CODE[2]), STR_24(CODE[8]), 
		 -> STR_23(CODE[5]), STR_22(CODE[50]), STR_21(CODE[65]), STR_20(CODE[16]), 
		 -> STR_19(CODE[15]), STR_18(CODE[24]), STR_17(CODE[9]), STR_16(CODE[32]), 
		 -> STR_15(CODE[30]), STR_14(CODE[11]), STR_13(CODE[13]), STR_12(CODE[80]), 
		 -> STR_11(CODE[33]), STR_10(CODE[32]), STR_9(CODE[14]), STR_8(CODE[22]), 
		 -> STR_7(CODE[26]), STR_6(CODE[13]), STR_5(CODE[36]), STR_4(CODE[40]), 
		 -> STR_3(CODE[31]), STR_2(CODE[30]), STR_1(CODE[64]), 

    vfprintf@cfmt	PTR unsigned char  size(2) Largest target is 407
		 -> STR_35(CODE[3]), STR_34(CODE[3]), STR_33(CODE[248]), STR_32(CODE[3]), 
		 -> STR_31(CODE[2]), STR_30(CODE[2]), STR_29(CODE[8]), STR_28(CODE[407]), 
		 -> STR_27(CODE[17]), STR_26(CODE[2]), STR_25(CODE[2]), STR_24(CODE[8]), 
		 -> STR_23(CODE[5]), STR_22(CODE[50]), STR_21(CODE[65]), STR_20(CODE[16]), 
		 -> STR_19(CODE[15]), STR_18(CODE[24]), STR_17(CODE[9]), STR_16(CODE[32]), 
		 -> STR_15(CODE[30]), STR_14(CODE[11]), STR_13(CODE[13]), STR_12(CODE[80]), 
		 -> STR_11(CODE[33]), STR_10(CODE[32]), STR_9(CODE[14]), STR_8(CODE[22]), 
		 -> STR_7(CODE[26]), STR_6(CODE[13]), STR_5(CODE[36]), STR_4(CODE[40]), 
		 -> STR_3(CODE[31]), STR_2(CODE[30]), STR_1(CODE[64]), 

    vfpfcnvrt@fp	PTR struct _IO_FILE size(2) Largest target is 0
		 -> NULL(NULL[0]), 

    vfpfcnvrt@ap	PTR PTR void  size(2) Largest target is 2
		 -> printf@ap(BANK0[2]), 

    vfpfcnvrt@fmt	PTR PTR unsigned char  size(2) Largest target is 2
		 -> vfprintf@cfmt(COMRAM[2]), 

    xtoa@fp	PTR struct _IO_FILE size(2) Largest target is 0
		 -> NULL(NULL[0]), 

    utoa@fp	PTR struct _IO_FILE size(2) Largest target is 0
		 -> NULL(NULL[0]), 

    ctoa@fp	PTR struct _IO_FILE size(2) Largest target is 0
		 -> NULL(NULL[0]), 

    pad@fp	PTR struct _IO_FILE size(2) Largest target is 0
		 -> NULL(NULL[0]), 

    pad@buf	PTR unsigned char  size(2) Largest target is 32
		 -> dbuf(BANK0[32]), 

    sp__memset	PTR void  size(2) Largest target is 32
		 -> buttonSequenceCodes(BANK1[32]), 

    EUSART1_SetErrorHandler@interruptHandler	PTR FTN()void  size(2) Largest target is 1
		 -> EUSART1_DefaultErrorHandler(), 

    EUSART1_ErrorHandler	PTR FTN()void  size(2) Largest target is 1
		 -> Absolute function(), EUSART1_DefaultErrorHandler(), 

    EUSART1_SetOverrunErrorHandler@interruptHandler	PTR FTN()void  size(2) Largest target is 1
		 -> EUSART1_DefaultOverrunErrorHandler(), 

    EUSART1_OverrunErrorHandler	PTR FTN()void  size(2) Largest target is 1
		 -> Absolute function(), EUSART1_DefaultOverrunErrorHandler(), 

    EUSART1_SetFramingErrorHandler@interruptHandler	PTR FTN()void  size(2) Largest target is 1
		 -> EUSART1_DefaultFramingErrorHandler(), 

    EUSART1_FramingErrorHandler	PTR FTN()void  size(2) Largest target is 1
		 -> Absolute function(), EUSART1_DefaultFramingErrorHandler(), 


Critical Paths under _main in COMRAM

    _EUSART1_Initialize->_EUSART1_SetErrorHandler
    _EUSART1_Initialize->_EUSART1_SetFramingErrorHandler
    _EUSART1_Initialize->_EUSART1_SetOverrunErrorHandler
    ___flsub->___fladd
    ___fladd->___flmul
    ___flmul->___xxtofl
    ___flge->___flsub
    _printf->_vfprintf
    _vfprintf->_vfpfcnvrt
    _vfpfcnvrt->_xtoa
    _xtoa->_pad
    _toupper->_islower
    _utoa->_pad
    _ctoa->_pad
    _pad->_fputs
    _fputs->_fputc
    _fputc->_putch
    _putch->_EUSART1_Write

Critical Paths under _INTERRUPT_InterruptManager in COMRAM

    _ECCP2_CompareISR->_ECCP2_ISR

Critical Paths under _main in BANK0

    _main->_decodeBits
    _recordDurations->_printf
    _initializeAll->_printf
    _generalCases->_printf
    _printMenu->_printf
    _printSevenDurations->_printf
    _decodeBits->_printf
    _binaryPrint->_printf
    _printf->_vfprintf
    _vfprintf->_vfpfcnvrt

Critical Paths under _INTERRUPT_InterruptManager in BANK0

    None.

Critical Paths under _main in BANK1

    None.

Critical Paths under _INTERRUPT_InterruptManager in BANK1

    None.

Critical Paths under _main in BANK2

    None.

Critical Paths under _INTERRUPT_InterruptManager in BANK2

    None.

Critical Paths under _main in BANK3

    None.

Critical Paths under _INTERRUPT_InterruptManager in BANK3

    None.

Critical Paths under _main in BANK4

    None.

Critical Paths under _INTERRUPT_InterruptManager in BANK4

    None.

Critical Paths under _main in BANK5

    None.

Critical Paths under _INTERRUPT_InterruptManager in BANK5

    None.

Critical Paths under _main in BANK6

    None.

Critical Paths under _INTERRUPT_InterruptManager in BANK6

    None.

Critical Paths under _main in BANK7

    None.

Critical Paths under _INTERRUPT_InterruptManager in BANK7

    None.

Critical Paths under _main in BANK8

    None.

Critical Paths under _INTERRUPT_InterruptManager in BANK8

    None.

Critical Paths under _main in BANK9

    None.

Critical Paths under _INTERRUPT_InterruptManager in BANK9

    None.

Critical Paths under _main in BANK10

    None.

Critical Paths under _INTERRUPT_InterruptManager in BANK10

    None.

Critical Paths under _main in BANK11

    None.

Critical Paths under _INTERRUPT_InterruptManager in BANK11

    None.

Critical Paths under _main in BANK12

    None.

Critical Paths under _INTERRUPT_InterruptManager in BANK12

    None.

Critical Paths under _main in BANK13

    None.

Critical Paths under _INTERRUPT_InterruptManager in BANK13

    None.

Critical Paths under _main in BANK14

    None.

Critical Paths under _INTERRUPT_InterruptManager in BANK14

    None.

Critical Paths under _main in BANK15

    None.

Critical Paths under _INTERRUPT_InterruptManager in BANK15

    None.

Call Graph Tables:

 ---------------------------------------------------------------------------------
 (Depth) Function   	        Calls       Base Space   Used Autos Params    Refs
 ---------------------------------------------------------------------------------
 (0) _main                                                 6     6      0  225821
                                             55 BANK0      6     6      0
                       _EUSART1_Read
                _EUSART1_is_rx_ready
                        _binaryPrint
                         _captureOne
                         _decodeBits
                       _generalCases
                      _initializeAll
                             _memset
                _printSevenDurations
                             _printf
                    _recordDurations
                  _setSevenDurations
 ---------------------------------------------------------------------------------
 (1) _setSevenDurations                                    0     0      0       0
 ---------------------------------------------------------------------------------
 (1) _recordDurations                                     12    12      0   23623
                                             37 BANK0     12    12      0
                   _ECCP_SET_FALLING
                         _captureOne
                             _printf
 ---------------------------------------------------------------------------------
 (2) _captureOne                                           0     0      0       0
          _ECCP1_IsCapturedDataReady
                _ECCP_TRIGGER_TOGGLE
 ---------------------------------------------------------------------------------
 (3) _ECCP_TRIGGER_TOGGLE                                  0     0      0       0
                   _ECCP_SET_FALLING
                    _ECCP_SET_RISING
 ---------------------------------------------------------------------------------
 (4) _ECCP_SET_RISING                                      0     0      0       0
 ---------------------------------------------------------------------------------
 (4) _ECCP_SET_FALLING                                     0     0      0       0
 ---------------------------------------------------------------------------------
 (3) _ECCP1_IsCapturedDataReady                            0     0      0       0
 ---------------------------------------------------------------------------------
 (1) _memset                                              12     6      6     947
                                              4 COMRAM    12     6      6
 ---------------------------------------------------------------------------------
 (1) _initializeAll                                        0     0      0   23595
                   _ECCP1_Initialize
                   _ECCP2_Initialize
                  _SYSTEM_Initialize
                             _printf
 ---------------------------------------------------------------------------------
 (2) _SYSTEM_Initialize                                    0     0      0     294
                   _ECCP1_Initialize
                   _ECCP2_Initialize
                 _EUSART1_Initialize
               _INTERRUPT_Initialize
              _OSCILLATOR_Initialize
             _PIN_MANAGER_Initialize
                    _TMR1_Initialize
 ---------------------------------------------------------------------------------
 (3) _TMR1_Initialize                                      0     0      0       0
 ---------------------------------------------------------------------------------
 (3) _PIN_MANAGER_Initialize                               0     0      0       0
 ---------------------------------------------------------------------------------
 (3) _OSCILLATOR_Initialize                                0     0      0       0
 ---------------------------------------------------------------------------------
 (3) _INTERRUPT_Initialize                                 0     0      0       0
 ---------------------------------------------------------------------------------
 (3) _EUSART1_Initialize                                   0     0      0     294
            _EUSART1_SetErrorHandler
     _EUSART1_SetFramingErrorHandler
     _EUSART1_SetOverrunErrorHandler
 ---------------------------------------------------------------------------------
 (4) _EUSART1_SetOverrunErrorHandler                       2     0      2      98
                                              4 COMRAM     2     0      2
 ---------------------------------------------------------------------------------
 (4) _EUSART1_SetFramingErrorHandler                       2     0      2      98
                                              4 COMRAM     2     0      2
 ---------------------------------------------------------------------------------
 (4) _EUSART1_SetErrorHandler                              2     0      2      98
                                              4 COMRAM     2     0      2
 ---------------------------------------------------------------------------------
 (3) _ECCP2_Initialize                                     0     0      0       0
 ---------------------------------------------------------------------------------
 (3) _ECCP1_Initialize                                     0     0      0       0
 ---------------------------------------------------------------------------------
 (1) _generalCases                                         4     4      0   70101
                                             37 BANK0      4     4      0
                          _printMenu
                             _printf
 ---------------------------------------------------------------------------------
 (2) _printMenu                                            0     0      0   46602
                _printSevenDurations
                             _printf
 ---------------------------------------------------------------------------------
 (1) _printSevenDurations                                  0     0      0   23301
                             _printf
 ---------------------------------------------------------------------------------
 (1) _decodeBits                                          19    15      4   36748
                                             37 BANK0     18    14      4
                            ___fladd
                             ___flge
                            ___flmul
                            ___flsub
                           ___xxtofl
                             _printf
 ---------------------------------------------------------------------------------
 (2) ___xxtofl                                            14    10      4    2146
                                              4 COMRAM    14    10      4
 ---------------------------------------------------------------------------------
 (2) ___flsub                                              8     0      8    3649
                                             59 COMRAM     8     0      8
                            ___fladd
                            ___flmul (ARG)
                           ___xxtofl (ARG)
 ---------------------------------------------------------------------------------
 (3) ___fladd                                             16     8      8    2870
                                             43 COMRAM    16     8      8
                            ___flmul (ARG)
                           ___xxtofl (ARG)
 ---------------------------------------------------------------------------------
 (2) ___flmul                                             25    17      8    2808
                                             18 COMRAM    25    17      8
                           ___xxtofl (ARG)
 ---------------------------------------------------------------------------------
 (2) ___flge                                              12     4      8    1398
                                             67 COMRAM    12     4      8
                            ___fladd (ARG)
                            ___flmul (ARG)
                            ___flsub (ARG)
                           ___xxtofl (ARG)
 ---------------------------------------------------------------------------------
 (1) _binaryPrint                                         10     6      4   23521
                                             37 BANK0     10     6      4
                             _printf
 ---------------------------------------------------------------------------------
 (2) _printf                                              22     4     18   23301
                                             15 BANK0     22     4     18
                           _vfprintf
 ---------------------------------------------------------------------------------
 (3) _vfprintf                                             8     2      6   20046
                                             84 COMRAM     2     2      0
                                              9 BANK0      6     0      6
                          _vfpfcnvrt
 ---------------------------------------------------------------------------------
 (4) _vfpfcnvrt                                           46    40      6   19528
                                             72 COMRAM    12     6      6
                                              0 BANK0      9     9      0
                               _ctoa
                              _fputc
                            _strncmp
                               _utoa
                               _xtoa
 ---------------------------------------------------------------------------------
 (5) _xtoa                                                39    28     11    6195
                                             33 COMRAM    39    28     11
                            _isalpha
                            _isupper
                                _pad
                            _toupper
 ---------------------------------------------------------------------------------
 (6) _toupper                                              8     6      2     512
                                             10 COMRAM     8     6      2
                            _islower
 ---------------------------------------------------------------------------------
 (7) _islower                                              6     4      2     191
                                              4 COMRAM     6     4      2
 ---------------------------------------------------------------------------------
 (6) _isupper                                              6     4      2     191
                                              4 COMRAM     6     4      2
 ---------------------------------------------------------------------------------
 (6) _isalpha                                              6     4      2     191
                                              4 COMRAM     6     4      2
 ---------------------------------------------------------------------------------
 (5) _utoa                                                32    22     10    5487
                                             33 COMRAM    32    22     10
                            ___lodiv
                            ___lomod
                                _pad
 ---------------------------------------------------------------------------------
 (6) ___lomod                                             17     1     16     412
                                              4 COMRAM    17     1     16
 ---------------------------------------------------------------------------------
 (6) ___lodiv                                             25     9     16     421
                                              4 COMRAM    25     9     16
 ---------------------------------------------------------------------------------
 (5) _strncmp                                             11     5      6    1135
                                              4 COMRAM    11     5      6
 ---------------------------------------------------------------------------------
 (5) _ctoa                                                 7     4      3    4174
                                             33 COMRAM     5     2      3
                                _pad
 ---------------------------------------------------------------------------------
 (6) _pad                                                 11     5      6    3895
                                             22 COMRAM    11     5      6
                              _fputc
                              _fputs
                             _strlen
 ---------------------------------------------------------------------------------
 (7) _strlen                                               4     2      2     220
                                              4 COMRAM     4     2      2
 ---------------------------------------------------------------------------------
 (7) _fputs                                                7     3      4    1506
                                             15 COMRAM     7     3      4
                              _fputc
 ---------------------------------------------------------------------------------
 (8) _fputc                                                9     5      4    1006
                                              6 COMRAM     9     5      4
                              _putch
 ---------------------------------------------------------------------------------
 (9) _putch                                                1     1      0      62
                                              5 COMRAM     1     1      0
                      _EUSART1_Write
 ---------------------------------------------------------------------------------
 (10) _EUSART1_Write                                       1     1      0      31
                                              4 COMRAM     1     1      0
 ---------------------------------------------------------------------------------
 (1) _EUSART1_is_rx_ready                                  0     0      0       0
 ---------------------------------------------------------------------------------
 (1) _EUSART1_Read                                         0     0      0       0
 ---------------------------------------------------------------------------------
 Estimated maximum stack depth 10
 ---------------------------------------------------------------------------------
 (Depth) Function   	        Calls       Base Space   Used Autos Params    Refs
 ---------------------------------------------------------------------------------
 (13) _INTERRUPT_InterruptManager                          0     0      0       0
                   _ECCP2_CompareISR
 ---------------------------------------------------------------------------------
 (14) _ECCP2_CompareISR                                    0     0      0       0
                          _ECCP2_ISR
 ---------------------------------------------------------------------------------
 (15) _ECCP2_ISR                                           4     4      0       0
                                              0 COMRAM     4     4      0
 ---------------------------------------------------------------------------------
 Estimated maximum stack depth 15
 ---------------------------------------------------------------------------------

 Call Graph Graphs:

 _main (ROOT)
   _EUSART1_Read
   _EUSART1_is_rx_ready
   _binaryPrint
     _printf
       _vfprintf
         _vfpfcnvrt
           _ctoa
             _pad
               _fputc
                 _putch
                   _EUSART1_Write
               _fputs
                 _fputc
                   _putch
                     _EUSART1_Write
               _strlen
           _fputc
             _putch
               _EUSART1_Write
           _strncmp
           _utoa
             ___lodiv
             ___lomod
             _pad
               _fputc
                 _putch
                   _EUSART1_Write
               _fputs
                 _fputc
                   _putch
                     _EUSART1_Write
               _strlen
           _xtoa
             _isalpha
             _isupper
             _pad
               _fputc
                 _putch
                   _EUSART1_Write
               _fputs
                 _fputc
                   _putch
                     _EUSART1_Write
               _strlen
             _toupper
               _islower
   _captureOne
     _ECCP1_IsCapturedDataReady
     _ECCP_TRIGGER_TOGGLE
       _ECCP_SET_FALLING
       _ECCP_SET_RISING
   _decodeBits
     ___fladd
       ___flmul (ARG)
         ___xxtofl (ARG)
       ___xxtofl (ARG)
     ___flge
       ___fladd (ARG)
         ___flmul (ARG)
           ___xxtofl (ARG)
         ___xxtofl (ARG)
       ___flmul (ARG)
         ___xxtofl (ARG)
       ___flsub (ARG)
         ___fladd
           ___flmul (ARG)
             ___xxtofl (ARG)
           ___xxtofl (ARG)
         ___flmul (ARG)
           ___xxtofl (ARG)
         ___xxtofl (ARG)
       ___xxtofl (ARG)
     ___flmul
       ___xxtofl (ARG)
     ___flsub
       ___fladd
         ___flmul (ARG)
           ___xxtofl (ARG)
         ___xxtofl (ARG)
       ___flmul (ARG)
         ___xxtofl (ARG)
       ___xxtofl (ARG)
     ___xxtofl
     _printf
       _vfprintf
         _vfpfcnvrt
           _ctoa
             _pad
               _fputc
                 _putch
                   _EUSART1_Write
               _fputs
                 _fputc
                   _putch
                     _EUSART1_Write
               _strlen
           _fputc
             _putch
               _EUSART1_Write
           _strncmp
           _utoa
             ___lodiv
             ___lomod
             _pad
               _fputc
                 _putch
                   _EUSART1_Write
               _fputs
                 _fputc
                   _putch
                     _EUSART1_Write
               _strlen
           _xtoa
             _isalpha
             _isupper
             _pad
               _fputc
                 _putch
                   _EUSART1_Write
               _fputs
                 _fputc
                   _putch
                     _EUSART1_Write
               _strlen
             _toupper
               _islower
   _generalCases
     _printMenu
       _printSevenDurations
         _printf
           _vfprintf
             _vfpfcnvrt
               _ctoa
                 _pad
                   _fputc
                     _putch
                       _EUSART1_Write
                   _fputs
                     _fputc
                       _putch
                         _EUSART1_Write
                   _strlen
               _fputc
                 _putch
                   _EUSART1_Write
               _strncmp
               _utoa
                 ___lodiv
                 ___lomod
                 _pad
                   _fputc
                     _putch
                       _EUSART1_Write
                   _fputs
                     _fputc
                       _putch
                         _EUSART1_Write
                   _strlen
               _xtoa
                 _isalpha
                 _isupper
                 _pad
                   _fputc
                     _putch
                       _EUSART1_Write
                   _fputs
                     _fputc
                       _putch
                         _EUSART1_Write
                   _strlen
                 _toupper
                   _islower
       _printf
         _vfprintf
           _vfpfcnvrt
             _ctoa
               _pad
                 _fputc
                   _putch
                     _EUSART1_Write
                 _fputs
                   _fputc
                     _putch
                       _EUSART1_Write
                 _strlen
             _fputc
               _putch
                 _EUSART1_Write
             _strncmp
             _utoa
               ___lodiv
               ___lomod
               _pad
                 _fputc
                   _putch
                     _EUSART1_Write
                 _fputs
                   _fputc
                     _putch
                       _EUSART1_Write
                 _strlen
             _xtoa
               _isalpha
               _isupper
               _pad
                 _fputc
                   _putch
                     _EUSART1_Write
                 _fputs
                   _fputc
                     _putch
                       _EUSART1_Write
                 _strlen
               _toupper
                 _islower
     _printf
       _vfprintf
         _vfpfcnvrt
           _ctoa
             _pad
               _fputc
                 _putch
                   _EUSART1_Write
               _fputs
                 _fputc
                   _putch
                     _EUSART1_Write
               _strlen
           _fputc
             _putch
               _EUSART1_Write
           _strncmp
           _utoa
             ___lodiv
             ___lomod
             _pad
               _fputc
                 _putch
                   _EUSART1_Write
               _fputs
                 _fputc
                   _putch
                     _EUSART1_Write
               _strlen
           _xtoa
             _isalpha
             _isupper
             _pad
               _fputc
                 _putch
                   _EUSART1_Write
               _fputs
                 _fputc
                   _putch
                     _EUSART1_Write
               _strlen
             _toupper
               _islower
   _initializeAll
     _ECCP1_Initialize
     _ECCP2_Initialize
     _SYSTEM_Initialize
       _ECCP1_Initialize
       _ECCP2_Initialize
       _EUSART1_Initialize
         _EUSART1_SetErrorHandler
         _EUSART1_SetFramingErrorHandler
         _EUSART1_SetOverrunErrorHandler
       _INTERRUPT_Initialize
       _OSCILLATOR_Initialize
       _PIN_MANAGER_Initialize
       _TMR1_Initialize
     _printf
       _vfprintf
         _vfpfcnvrt
           _ctoa
             _pad
               _fputc
                 _putch
                   _EUSART1_Write
               _fputs
                 _fputc
                   _putch
                     _EUSART1_Write
               _strlen
           _fputc
             _putch
               _EUSART1_Write
           _strncmp
           _utoa
             ___lodiv
             ___lomod
             _pad
               _fputc
                 _putch
                   _EUSART1_Write
               _fputs
                 _fputc
                   _putch
                     _EUSART1_Write
               _strlen
           _xtoa
             _isalpha
             _isupper
             _pad
               _fputc
                 _putch
                   _EUSART1_Write
               _fputs
                 _fputc
                   _putch
                     _EUSART1_Write
               _strlen
             _toupper
               _islower
   _memset
   _printSevenDurations
     _printf
       _vfprintf
         _vfpfcnvrt
           _ctoa
             _pad
               _fputc
                 _putch
                   _EUSART1_Write
               _fputs
                 _fputc
                   _putch
                     _EUSART1_Write
               _strlen
           _fputc
             _putch
               _EUSART1_Write
           _strncmp
           _utoa
             ___lodiv
             ___lomod
             _pad
               _fputc
                 _putch
                   _EUSART1_Write
               _fputs
                 _fputc
                   _putch
                     _EUSART1_Write
               _strlen
           _xtoa
             _isalpha
             _isupper
             _pad
               _fputc
                 _putch
                   _EUSART1_Write
               _fputs
                 _fputc
                   _putch
                     _EUSART1_Write
               _strlen
             _toupper
               _islower
   _printf
     _vfprintf
       _vfpfcnvrt
         _ctoa
           _pad
             _fputc
               _putch
                 _EUSART1_Write
             _fputs
               _fputc
                 _putch
                   _EUSART1_Write
             _strlen
         _fputc
           _putch
             _EUSART1_Write
         _strncmp
         _utoa
           ___lodiv
           ___lomod
           _pad
             _fputc
               _putch
                 _EUSART1_Write
             _fputs
               _fputc
                 _putch
                   _EUSART1_Write
             _strlen
         _xtoa
           _isalpha
           _isupper
           _pad
             _fputc
               _putch
                 _EUSART1_Write
             _fputs
               _fputc
                 _putch
                   _EUSART1_Write
             _strlen
           _toupper
             _islower
   _recordDurations
     _ECCP_SET_FALLING
     _captureOne
       _ECCP1_IsCapturedDataReady
       _ECCP_TRIGGER_TOGGLE
         _ECCP_SET_FALLING
         _ECCP_SET_RISING
     _printf
       _vfprintf
         _vfpfcnvrt
           _ctoa
             _pad
               _fputc
                 _putch
                   _EUSART1_Write
               _fputs
                 _fputc
                   _putch
                     _EUSART1_Write
               _strlen
           _fputc
             _putch
               _EUSART1_Write
           _strncmp
           _utoa
             ___lodiv
             ___lomod
             _pad
               _fputc
                 _putch
                   _EUSART1_Write
               _fputs
                 _fputc
                   _putch
                     _EUSART1_Write
               _strlen
           _xtoa
             _isalpha
             _isupper
             _pad
               _fputc
                 _putch
                   _EUSART1_Write
               _fputs
                 _fputc
                   _putch
                     _EUSART1_Write
               _strlen
             _toupper
               _islower
   _setSevenDurations

 _INTERRUPT_InterruptManager (ROOT)
   _ECCP2_CompareISR
     _ECCP2_ISR

 Address spaces:
Name               Size   Autos  Total    Cost      Usage
BIGRAM             F37      0       0      37        0.0%
EEDATA             400      0       0       0        0.0%
BITBANK14          100      0       0      33        0.0%
BANK14             100      0       0      34        0.0%
BITBANK13          100      0       0      31        0.0%
BANK13             100      0       0      32        0.0%
BITBANK12          100      0       0      29        0.0%
BANK12             100      0       0      30        0.0%
BITBANK11          100      0       0      27        0.0%
BANK11             100      0       0      28        0.0%
BITBANK10          100      0       0      25        0.0%
BANK10             100      0       0      26        0.0%
BITBANK9           100      0       0      23        0.0%
BANK9              100      0       0      24        0.0%
BITBANK8           100      0       0      21        0.0%
BANK8              100      0       0      22        0.0%
BITBANK7           100      0       0      19        0.0%
BANK7              100      0       0      20        0.0%
BITBANK6           100      0       0      17        0.0%
BANK6              100      0       0      18        0.0%
BITBANK5           100      0       0      15        0.0%
BANK5              100      0       0      16        0.0%
BITBANK4           100      0       0      13        0.0%
BANK4              100      0       0      14        0.0%
BITBANK3           100      0       0      10        0.0%
BANK3              100      0       0      11        0.0%
BITBANK2           100      0       0       8        0.0%
BANK2              100      0      84       9       51.6%
BITBANK1           100      0       0       6        0.0%
BANK1              100      0      A4       7       64.1%
BITBANK0            A0      0       0       4        0.0%
BANK0               A0     3D      97       5       94.4%
BITCOMRAM           5E      0       0       0        0.0%
COMRAM              5E     56      5A       1       95.7%
BITBANK15           38      0       0      35        0.0%
BANK15              38      0       0      36        0.0%
BITSFR_1             0      0       0     200        0.0%
SFR_1                0      0       0     200        0.0%
BITSFR               0      0       0     200        0.0%
SFR                  0      0       0     200        0.0%
STACK                0      0       0       2        0.0%
NULL                 0      0       0       0        0.0%
ABS                  0      0     219      12        0.0%
DATA                 0      0     219       3        0.0%
CODE                 0      0       0       0        0.0%


Microchip Technology PIC18 Macro Assembler V2.10 build 88905656 
Symbol Table                                                                                   Tue May 05 19:35:17 2020

                                 generalCases@i 00D4                        __end_of_ECCP2_Initialize 2EE4  
                            __size_of_ECCP2_ISR 018E               __end_of_ECCP1_IsCapturedDataReady 2F0E  
                            _referenceDurations 00E9                                              l21 2EAE  
                                            l90 2C96                                              l98 2F48  
                               generalCases@cmd 00D3                                 _recordDurations 2372  
                                  __CFG_CP0$OFF 000000                                    __CFG_CP1$OFF 000000  
                                  __CFG_CP2$OFF 000000                                    __CFG_CP3$OFF 000000  
                                   __CFG_LVP$ON 000000                                             l111 2E06  
                                           l114 2EE6                                             l107 2DDE  
                                           l123 2F92                                             l117 2EF8  
                                           l141 2F88                                             l221 2DDC  
                                           l135 2F7E                                             l240 2F0C  
                                           l138 2F74                                             l237 2F20  
                                           l501 246E                                             l422 2F60  
                                           l430 2E74                                             l191 2EBC  
                                           l504 2D0C                                             l425 2F6A  
                                           l282 2EE2                                             l194 2ECA  
                                           l419 2B24                                             l347 10F4  
                                           l524 29B0                                             l516 06BC  
                                           l444 27DE                                             l188 2E92  
                                           l348 110A                                             l631 2866  
                                           l519 2BCC                                             l447 2F34  
                                           l439 275E                                             l359 1256  
                                           l640 2ACC                                             l704 2A0C  
                                           l633 28A0                                             l705 2A14  
                                           l628 2824                                             l660 1918  
                                           l645 1BEC                                             l493 2E52  
                                           l662 1920                                             l655 1DB4  
                                           l647 1BF4                                             l690 0BA8  
                                           l586 2F9C                                             l683 1B52  
                                           l685 1BB4                                             l669 19B6  
                                           l973 232A                                             l978 2370  
                                  __CFG_CPB$OFF 000000                                    __CFG_CPD$OFF 000000  
                               _timer1ReloadVal 0082                                             _pad 27E0  
                                ??_generalCases 00D1                                             prod 000FF3  
                                           wreg 000FE8                                      _TXSTA1bits 000FAC  
                                  ___flmul@aexp 0024                                    ___flmul@bexp 0025  
                             _setSevenDurations 2CD4                                    ___flmul@sign 001F  
                                  ___flmul@temp 002A                                    ___flmul@prod 0026  
                      __size_of_ECCP_SET_RISING 000A                             _ECCP_TRIGGER_TOGGLE 2E54  
                            ?_setSevenDurations 0001                                            l1153 255E  
                                          l1146 253E                                            l1322 157C  
                                          l1163 2718                                            l1331 17EA  
                                          l1156 26F8                                            l1332 17D8  
                                          l1236 0D98                                            l1413 2936  
                                          l1421 2C56                                            l1253 0EB2  
                                          l1245 1068                                            l1237 0D86  
                                          l1326 18E0                                            l1262 0F82  
                                          l1238 0D4C                                            l1263 0F70  
                                          l3200 2F76                                            l1329 1772  
                                          l1434 2DB2                                            l1370 1EA4  
                                          l3202 2F6C                                            l1339 18A2  
                                          l1363 1E0C                                            l1428 2E2E  
                                          l3300 0C70                                            l3204 2F80  
                                          l3220 2EA8                                            l3212 2F58  
                                          l1453 2A72                                            l1438 2648  
                                          l1382 2CD2                                            l3310 0CAA  
                                          l3302 0C72                                            l1278 2C12  
                                          l1366 1F68                                            l3230 2C90  
                                          l3222 2C58                                            l3214 2F62  
                                          l1448 2A6A                                            l3400 0EC8  
                                          l3320 0CBE                                            l3312 0CAE  
                                          l3304 0C7A                                            l3224 2C6C  
                                          l3232 2F9A                                            l3240 2DDA  
                                          l3216 2E94                                            l1377 1F00  
                                          l3410 0F04                                            l3402 0ED8  
                                          l3330 0CD2                                            l3322 0CC2  
                                          l3314 0CB2                                            l3306 0C8A  
                                          l3250 2F0E                                            l3226 2C78  
                                          l3242 2EB0                                            l3234 2DB4  
                                          l3218 2EA0                                            l1459 2D44  
                                          l1395 226C                                            l1388 2D7C  
                                          l4300 2A4C                                            l3420 0F30  
                                          l3412 0F06                                            l3340 0CE6  
                                          l3332 0CD6                                            l3324 0CC6  
                                          l3316 0CB6                                            l3308 0C9C  
                                          l3244 2ECC                                            l3228 2C84  
                                          l3236 2DC0                                            l3252 2EFA  
                                          l3260 2E68                                            l4230 28A2  
                                          l4310 249A                                            l4302 2A5E  
                                          l3430 0F68                                            l3414 0F14  
                                          l3406 0EEC                                            l3422 0F32  
                                          l3350 0D44                                            l3334 0CDA  
                                          l3326 0CCA                                            l3318 0CBA  
                                          l3342 0CEA                                            l3270 0BC6  
                                          l3246 2ED8                                            l3238 2DC2  
                                          l3262 2E70                                            l4224 2EE6  
                                          l4240 2924                                            l4232 28B4  
                                          l4320 2504                                            l4312 24A2  
                                          l4400 190C                                            l3600 1618  
                                          l3440 0FE6                                            l3416 0F1C  
                                          l3408 0EF6                                            l3424 0F40  
                                          l3360 0D7A                                            l3352 0D5A  
                                          l3344 0CEE                                            l3336 0CDE  
                                          l3328 0CCE                                            l3272 0BD6  
                                          l3280 0C00                                            l3264 0BAA  
                                          l3248 2EDA                                            l4226 2EF4  
                                          l4234 28C6                                            l4250 2C36  
                                          l4322 2524                                            l4314 24B6  
                                          l4306 2470                                            l4330 2668  
                                          l4410 1970                                            l4402 1936  
                                          l3610 165E                                            l3602 1626  
                                          l3450 102C                                            l3434 0F92  
                                          l3442 0FE8                                            l3426 0F44  
                                          l3418 0F20                                            l3370 0DCA  
                                          l3362 0D84                                            l3354 0D66  
                                          l3346 0D18                                            l3338 0CE2  
                                          l3290 0C30                                            l3282 0C10  
                                          l3274 0BE6                                            l3266 0BB6  
                                          l3258 2E54                                            l4228 2F8C  
                                          l4236 28D0                                            l4244 2C14  
                                          l4252 2D7E                                            l4324 2526  
                                          l4316 24C4                                            l4308 247C  
                                          l4340 26E0                                            l4332 2670  
                                          l4412 1976                                            l4404 193E  
                                          l4500 07EC                                            l3700 236E  
                                          l3620 16CC                                            l3612 1678  
                                          l3604 1632                                            l3460 1056  
                                          l3452 103A                                            l3444 0FF8  
                                          l3436 0F9E                                            l3428 0F52  
                                          l3380 0E06                                            l3372 0DDA  
                                          l3364 0DA6                                            l3356 0D6A  
                                          l3348 0D34                                            l3292 0C3E  
                                          l3284 0C16                                            l3276 0BF6  
                                          l3268 0BC4                                            l3540 2E46  
                                          l4238 28EE                                            l4246 2C20  
                                          l4254 2D8A                                            l4270 2802  
                                          l4350 2AA0                                            l4326 2538  
                                          l4318 24D6                                            l4342 26F2  
                                          l4334 2684                                            l4262 2D0E  
                                          l4430 1A48                                            l4422 19EA  
                                          l4414 197E                                            l4406 195E  
                                          l3630 1762                                            l3622 16F6  
                                          l3614 1688                                            l3606 1642  
                                          l3550 14D2                                            l3462 1058  
                                          l3454 1040                                            l3446 1008  
                                          l3438 0FAC                                            l3390 0E4C  
                                          l3382 0E14                                            l3374 0DE8  
                                          l3366 0DB6                                            l3358 0D78  
                                          l3294 0C40                                            l3286 0C28  
                                          l3278 0BF8                                            l3710 1E1C  
                                          l3470 2E7E                                            l3542 2E4A  
                                          l4248 2C32                                            l4256 2D8E  
                                          l4280 2848                                            l4272 2810  
                                          l4352 2AA4                                            l4344 2A74  
                                          l4336 2692                                            l4328 264A  
                                          l4360 1BC4                                            l4424 19FC  
                                          l4432 1A5C                                            l4416 199A  
                                          l4440 1AD6                                            l4408 1966  
                                          l4520 095E                                            l4512 08EC  
                                          l4504 0824                                            l3640 17A2  
                                          l3632 1770                                            l3624 172C  
                                          l3616 16A4                                            l3608 164E  
                                          l3560 150A                                            l3552 14D4  
                                          l3456 1042                                            l3448 1028  
                                          l3392 0E80                                            l3384 0E16  
                                          l3376 0DF6                                            l3296 0C50  
                                          l3288 0C2A                                            l3720 1E5A  
                                          l3712 1E32                                            l3704 1DB8  
                                          l3472 2E82                                            l4600 2B16  
                                          l3536 2E30                                            l4258 2DA6  
                                          l4282 2874                                            l4274 281C  
                                          l4266 27E0                                            l4354 2AA8  
                                          l4346 2A88                                            l4338 26C0  
                                          l4370 1C2E                                            l4362 1BC6  
                                          l4450 1B60                                            l4442 1AF2  
                                          l4434 1A6C                                            l4418 19AA  
                                          l4530 0A44                                            l4522 099C  
                                          l4514 0912                                            l4506 085A  
                                          l3650 1814                                            l3642 17D0  
                                          l3634 1782                                            l3626 173A  
                                          l3618 16B0                                            l3570 1536  
                                          l3562 151A                                            l3554 14E4  
                                          l3546 14B8                                            l3458 1048  
                                          l3394 0E82                                            l3386 0E20  
                                          l3378 0E02                                            l3298 0C60  
                                          l3730 1EE2                                            l3722 1E8C  
                                          l3706 1DC8                                            l3474 2E86  
                                          l3466 2E76                                            l3538 2E32  
                                          l4610 2380                                            l4602 2376  
                                          l4284 2888                                            l4276 2830  
                                          l4268 27EE                                            l4348 2A94  
                                          l4460 2560                                            l4372 1C34  
                                          l4380 1D1A                                            l4364 1BE0  
                                          l4292 2C98                                            l4452 1B66  
                                          l4444 1B10                                            l4436 1A72  
                                          l4428 1A36                                            l4532 0A6C  
                                          l4540 0B02                                            l4516 0938  
                                          l4508 08B4                                            l3660 188A  
                                          l3652 183E                                            l3636 1790  
                                          l3628 1758                                            l3580 158C  
                                          l3572 1546                                            l3564 1520  
                                          l3556 14F4                                            l3548 14C4  
                                          l3396 0E92                                            l3388 0E26  
                                          l3740 1F38                                            l3732 1EF0  
                                          l3724 1E8E                                            l3716 1E46  
                                          l3708 1DD6                                            l4700 272A  
                                          l3476 2E8A                                            l3468 2E7A  
                                          l3900 21CA                                            l4612 2384  
                                          l4604 237A                                            l4278 2844  
                                          l4470 25C2                                            l4462 258A  
                                          l4382 1D2C                                            l4390 1D8C  
                                          l4374 1CAA                                            l4366 1C1C  
                                          l4358 1BB6                                            l4454 1B76  
                                          l4446 1B2A                                            l4438 1A78  
                                          l4542 0B28                                            l4550 0B56  
                                          l4534 0A7C                                            l4518 0950  
                                          l4526 09D8                                            l3662 18A6  
                                          l3670 18CC                                            l3646 17FA  
                                          l3654 1842                                            l3638 1794  
                                          l3590 15C6                                            l3582 159C  
                                          l3574 1556                                            l3566 1526  
                                          l3558 1504                                            l3398 0EA2  
                                          l3742 1F48                                            l3734 1F0E  
                                          l3726 1E9A                                            l3718 1E4E  
                                          l4710 274A                                            l4702 273A  
                                          l3478 2E8E                                            l3910 2250  
                                          l3902 21F6                                            l4630 245A  
                                          l4614 239E                                            ?_pad 0017  
                                          l4472 25E0                                            l4384 1D4A  
                                          l4376 1CB0                                            l4368 1C24  
                                          l4288 2D46                                            l4296 2A16  
                                          l4456 1B8C                                            l4448 1B44  
                                          l4552 0B64                                            l4544 0B36  
                                          l4536 0AC6                                            l4528 0A0E  
                                          l4480 06BE                                            l3672 18D0  
                                          l3664 18B6                                            l3656 185C  
                                          l3648 1806                                            l3592 15DC  
                                          l3576 1566                                            l3568 1534  
                                          l3744 1F56                                            l3736 1F10  
                                          l3728 1ED6                                            l4640 004A  
                                          l4720 2768                                            l4712 274E  
                                          l3912 2256                                            l4632 245E  
                                          l4624 23B4                                            l4616 23A0  
                                          l4800 1212                                            l3770 2DEC  
                                          l4474 25F2                                            l4466 2596  
                                          l4386 1D64                                            l4378 1CB6  
                                          l4394 18E2                                            l4546 0B4A  
                                          l4490 072E                                            l4482 06E4  
                                          l4570 29EE                                            l3690 22EA  
                                          l3682 226E                                            l3666 18C4  
                                          l3658 1870                                            l3594 15E8  
                                          l3586 15B0                                            l3578 156C  
                                          l3746 1F58                                            l3738 1F14  
                                          l4650 0292                                            l4642 0062  
                                          l4634 0044                                            l4722 2774  
                                          l4714 2764                                            l4730 27A2  
                                          l3914 225A                                            l3906 2210  
                                          l4626 2426                                            l4618 23B0  
                                          l3834 2CD4                                            l4810 1268  
                                          l4802 1234                                            l3772 2DF2  
                                          l3764 2F36                                            l4476 2620  
                                          l4468 25A4                                            l4388 1D7E  
                                          l4396 18F0                                            l4492 0760  
                                          l4484 06F2                                            l4556 0B70  
                                          l4564 29B2                                            l4572 2E08  
                                          l3692 22F8                                            l3684 229C  
                                          l3668 18C6                                            l3596 1600  
                                          l3588 15BC                                            l3676 2BCE  
                                          l4660 0426                                            l4652 0342  
                                          l4644 0082                                            l4580 2F22  
                                          l4724 2778                                            l4708 273E  
                                          l3908 2244                                            l4628 2436  
                                          l4820 12B8                                            l4812 1298  
                                          l4804 1236                                            l4740 1076  
                                          l3774 2E00                                            l4398 18F2  
                                          l4558 0B96                                            l4486 0704  
                                          l4566 29BA                                            l4574 2E12  
                                          l3694 230A                                            l3686 22AC  
                                          l3598 160C                                            l3678 2BDE  
                                          l4670 066C                                            l4662 04D6  
                                          l4654 0356                                            l4646 0132  
                                          l4726 278C                                            l4590 2ADC  
                                          l4582 2ACE                                            l4822 12C4  
                                          l4814 12A0                                            l4806 1246  
                                          l4742 108A                                            l3776 2E04  
                                          l3768 2DDE                                            l4496 077C  
                                          l4488 0708                                            l4568 29C8  
                                          l3696 2318                                            l3688 22DA  
                                          l4664 0586                                            l4656 0366  
                                          l4672 0678                                            l4648 01E2  
                                          l4592 2ADE                                            l4584 2AD2  
                                          l4840 133C                                            l4824 12D8  
                                          l4816 12A4                                            l4808 1256  
                                          l4744 1096                                            l4736 106A  
                                          l4498 07A2                                            l4690 298E  
                                          l4682 2938                                            l3698 2368  
                                          l4666 0636                                            l4674 068E  
                                          l4658 0376                                            l4578 2B7C  
                                          l4594 2AEC                                            l4586 2AD6  
                                          l3890 2122                                            l4850 1384  
                                          l4842 135A                                            l4834 1308  
                                          l4826 12F4                                            l4818 12A8  
                                          l4770 111C                                            l4754 10B0  
                                          l4746 109E                                            l4738 106E  
                                          l4692 2996                                            l4676 06A0  
                                          l4668 065C                                            l4596 2AFA  
                                          l4588 2ADA                                            l3884 20F8  
                                          l4852 1390                                            l4844 135E  
                                          l4828 1302                                            l4780 1164  
                                          l4772 1146                                            l4764 1102  
                                          l4756 10B4                                            l4748 10AA  
                                          l4694 29A4                                            l4678 06AC  
                                          l4598 2B08                                            l3894 2158  
                                          l4870 13F0                                            l4862 13C0  
                                          l4846 136E                                            l4838 1320  
                                          l4782 1170                                            l4774 1152  
                                          l4766 1108                                            l4758 10CE  
                                          l4688 2942                                            l4696 271E  
                                          l3896 21B0                                            l3888 2116  
                                          l4880 141C                                            l4864 13CC  
                                          l4848 1372                                            l4784 1176  
                                          l4776 1158                                            l4768 110C  
                                          l4698 2722                                            l4866 13D0  
                                          l4858 1396                                            l4794 11C0  
                                          l4786 11AE                                            l4778 115C  
                                          l4884 1430                                            l4876 13F4  
                                          l4868 13E0                                            l4796 11D8  
                                          l4788 11BA                                            l4878 1418  
                                          l4798 11DE                                            l4976 144E  
                                          l4888 143A                                            l4978 27B8  
                                          STR_1 FDB9                                            STR_2 FEF7  
                                          STR_3 FED8                                            STR_4 FE2B  
                                          STR_5 FE53                                            STR_6 FFAC  
                                          STR_7 FF33                                            STR_8 FF65  
                                          STR_9 FFAB                           ??_printSevenDurations 0057  
                                          u3000 0FE6                                            u3001 0FE2  
                                          u3010 0FF8                                            u3011 0FF4  
                                          u3020 1008                                            u3021 1004  
                                          _LATA 000F89                                            u3030 1028  
                                          _LATB 000F8A                                            u3031 1024  
                                          _LATC 000F8B                                            u4000 27EE  
                                          u3200 1556                                            u3040 103A  
                                          u4001 27EA                                            u3201 1552  
                                          u3041 1036                                            u4010 2810  
                                          u3210 158C                                            u3050 1056  
                                          u4011 280C                                            u3211 1588  
                                          u3051 1052                                            u4020 2866  
                                          u4100 2A5E                                            u3300 1814  
                                          u3220 159C                                            u3140 2E46  
                                          u4021 2862                                            u4101 2A5A  
                                          u3301 1810                                            u3221 1598  
                                          u3141 2E42                                            u4030 2874  
                                          u3310 185C                                            u3230 1716  
                                          u3150 14D2                                            u4031 2870  
                                          u4111 2476                                            u3311 1858  
                                          u3151 14CE                                            u4120 249A  
                                          u4200 1BE0                                            u4040 2D76  
                                          u3320 188A                                            u3240 1770  
                                          u3160 14E4                                            u3400 1DD6  
                                          u4121 2496                                            u4201 1BDC  
                                          u4041 2D70                                            u3321 1886  
                                          u3241 176C                                            u3161 14E0  
                                          u3401 1DD2                                            u4130 24C4  
                                          u4210 1D2C                                            u4050 2D78  
                                          u3330 18C4                                            u3250 1790  
                                          u3170 14F4                                            u3410 1E32  
                                          u4131 24C0                                            u4211 1D28  
                                          u3331 18C0                                            u3251 178C  
                                          u3235 170C                                            u3171 14F0  
                                          u3411 1E2E                                            u3500 2F46  
                                          u4140 2504                                            u4220 1D4A  
                                          u4060 2CCC                                            u4300 19E4  
                                          u3340 229C                                            u3260 17A2  
                                          u3180 1534                                            u2700 0C28  
                                          u3420 1E88                                            u3501 2F40  
                                          u4141 2500                                            u4221 1D46  
                                          u4061 2CC6                                            u4301 19DE  
                                          u3341 2298                                            u3261 179E  
                                          u3181 1530                                            u2701 0C24  
                                          u3421 1E84                                            u3510 2DEC  
                                          u4150 2668                                            u4230 1D64  
                                          u4070 2CCE                                            u4310 19E6  
                                          u3350 22DA                                            u3270 17D0  
                                          u3190 1546                                            u2710 0C3E  
                                          u3430 1ED2                                            u3511 2DE8  
                                          u4151 2664                                            u4231 1D60  
                                          u3351 22D6                                            u3271 17CC  
                                          u3191 1542                                            u2711 0C3A  
                                          u3431 1ECE                                            u3520 2E00  
                                          u4160 2692                                            u4240 1D7E  
                                          u4080 2A46                                            u4400 1B44  
                                          u4320 19FC                                            u3360 22F8  
                                          u3280 17E6                                            u2800 0D78  
                                          u2720 0C50                                            u3440 1EF0  
                                          u2640 2ECA                                            u3521 2DFC  
                                          u4161 268E                                            u4241 1D7A  
                                          u4081 2A40                                            u4401 1B40  
                                          u4321 19F8                                            u3361 22F4  
                                          u3281 17E2                                            u2801 0D74  
                                          u2721 0C4C                                            u3441 1EEC  
                                          u2641 2EC6                                            u3506 2F48  
                                          u4170 26C0                                            u4250 1D8C  
                                          u4090 2A48                                            u4410 1B52  
                                          u4330 1A30                                            u3370 2318  
                                          u3290 17FA                                            u2810 0D98  
                                          u2730 0C60                                            u3450 1F00  
                                          u2650 2F0A                                            u4171 26BC  
                                          u4251 1D88                                            u4411 1B4E  
                                          u4331 1A2A                                            u3371 2314  
                                          u3291 17F6                                            u2811 0D94  
                                          u2731 0C5C                                            u3451 1EFC  
                                          u2651 2F04                                            u4180 2A88  
                                          u4420 1B60                                            u4340 1A32  
                                          u4260 18F0                                            u4500 07A2  
                                          u3380 2368                                            u2900 0ED8  
                                          u2820 0DA6                                            u2740 0C9C  
                                          u3460 1F0E                                            u3700 21C6  
                                          u2660 2E68                                            u4181 2A84  
                                          u4421 1B5C                                            u4261 18EC  
                                          u4501 079E                                            u3381 2364  
                                          u2901 0ED4                                            u2821 0DA2  
                                          u2741 0C98                                            u3461 1F0A  
                                          u3701 21C2                                            u2661 2E64  
                                          u4430 258A                                            u4190 1BC4  
                                          u4350 1A48                                            u4270 190C  
                                          u4510 085A                                            u2910 0F04  
                                          u2830 0DB6                                            u2750 0CAA  
                                          u2670 0BC4                                            u3470 1F48  
                                          u3390 1DC8                                            u3710 220C  
                                          u4431 2586                                            u4191 1BC0  
                                          u4351 1A44                                            u4271 1908  
                                          u4511 0856                                            u2911 0F00  
                                          u2831 0DB2                                            u2751 0CA6  
                                          u2671 0BC0                                            u3471 1F44  
                                          u3391 1DC4                                            u3711 2208  
                                          u4440 25C2                                            u4360 1AB0  
                                          u4280 1936                                            u4520 0912  
                                          u2920 0F14                                            u2840 0DE8  
                                          u2760 0D18                                            u2680 0BD6  
                                          u3480 1F56                                            u3720 226C  
                                          u2656 2F0C                                            u4600 246E  
                                          u4441 25BE                                            u4281 1932  
                                          u4521 090E                                            u2921 0F10  
                                          u2841 0DE4                                            u2761 0D14  
                                          u2681 0BD2                                            u3481 1F52  
                                          u3721 2268                                            u4601 246A  
                                          u4450 25E0                                            u4370 1AF2  
                                          u4290 199A                                            u4530 0938  
                                          u2930 0F30                                            u2850 0DF6  
                                          u2770 0D30                                            u2690 0BE6  
                                          u4610 0132                                            u4451 25DC  
                                          u4371 1AEE                                            u4291 1996  
                                          u4531 0934                                            u2931 0F2C  
                                          u2851 0DF2                                            u2771 0D2A  
                                          u2691 0BE2                                            u4611 012E  
                                          u4460 25F2                                            u4380 1B10  
                                          u4540 0A0E                                            u2940 0F40  
                                          u2860 0E14                                            u2780 0D32  
                                          u4700 066C                                            u4620 01E2  
                                          u4461 25EE                                            u4381 1B0C  
                                          u4365 1A9E                                            u4541 0A0A  
                                          u2941 0F3C                                            u2861 0E10  
                                          u4701 0668                                            u4621 01DE  
                                          u3910 2EF4                                            u4470 2620  
                                          u4390 1B2A                                            u4550 0A44  
                                          u2950 0F52                                            u2870 0E4C  
                                          u2790 0D5A                                            u4710 068E  
                                          u4630 0292                                            u3911 2EF0  
                                          u4471 261C                                            u4391 1B26  
                                          u4551 0A40                                            u2951 0F4E  
                                          u2871 0E48                                            u2791 0D56  
                                          u4711 068A                                            u4631 028E  
                                          u3920 28B4                                            u4560 0B28  
                                          u4480 06E4                                            u2960 0F68  
                                          u2880 0E92                                            u4720 06A0  
                                          u4640 0342                                            u3680 2112  
                                          u4800 111C                                            u3921 28B0  
                                          u4561 0B24                                            u4481 06E0  
                                          u2961 0F64                                            u2881 0E8E  
                                          u4721 069C                                            u4641 033E  
                                          u3681 210E                                            u4801 1118  
                                          u3930 28C6                                            u4490 072E  
                                          u4570 2A0C                                            u4730 296C  
                                          u2970 0F7E                                            u2890 0EC8  
                                          u4650 0366                                            u3690 2154  
                                          u4810 1246                                            u3931 28C2  
                                          u4491 072A                                            u4571 2A08  
                                          u2971 0F7A                                            u2891 0EC4  
                                          u4651 0362                                            u3691 2150  
                                          u4811 1242                                            u3940 28EE  
                                          u4740 29A4                                            u2980 0F92  
                                          u4660 0426                                            u4580 23B0  
                                          u4820 12B8                                            u3941 28EA  
                                          u4741 29A0                                            u2981 0F8E  
                                          u4661 0422                                            u4581 23AC  
                                          u4821 12B4                                            u3950 2924  
                                          u2990 0FAC                                            u4670 04D6  
                                          u4750 275E                                            u4590 2436  
                                          u4830 131C                                            u3951 2920  
                                          u4735 2962                                            u2991 0FA8  
                                          u4671 04D2                                            u4751 275A  
                                          u4591 2432                                            u4831 1318  
                                          u3960 2C56                                            u4680 0586  
                                          u4760 2788                                            u4840 136E  
                                          u3961 2C52                                            u4681 0582  
                                          u4761 2784                                            u4841 136A  
                                          u3970 2DA6                                            u4690 0636  
                                          u4850 13BC                                            u4770 108A  
                                          u3971 2DA2                                            u4691 0632  
                                          u4851 13B8                                            u4771 1086  
                                          u3980 2D3E                                            u4860 13E0  
                                          u4780 10F0                                            u3981 2D38  
                                          u4861 13DC                                            u4781 10EC  
                                          u3990 2D40                                            u4870 142C  
                                          u4790 1102                                            u4871 1428  
                                          u4791 10FE                                            _TMR1 000FCE  
                                          _WPUB 000F61                                   _EUSART1_Write 2EE4  
                                  _transmitting 0088                                            _dbuf 008C  
                                          _ctoa 2A74                                            _main 106A  
                                 ?_EUSART1_Read 0001                                            _prec 0057  
                                          _nout 0074                                            pad@i 001E  
                                          pad@p 001B                                            fsr1h 000FE2  
                                          fsr2h 000FDA                                            indf2 000FDF  
                                          fsr1l 000FE1                                            pad@w 0020  
                                          fsr2l 000FD9                                            btemp 005B  
                                          _utoa 1BB6                                   __CFG_BORV$190 000000  
                                          _xtoa 18E2                             ??_setSevenDurations 0005  
                                          prodh 000FF4                                            prodl 000FF3  
                                          start 003C                                   __CFG_IESO$OFF 000000  
                                  ___param_bank 000000                            ?_ECCP_TRIGGER_TOGGLE 0001  
                         decodeBits@durationLow 00DE                                           ??_pad 001D  
                      __end_of_ECCP_SET_FALLING 2F6C                  __size_of_OSCILLATOR_Initialize 001C  
                 __end_of_OSCILLATOR_Initialize 2ECC                                           ?_ctoa 0022  
                               __end_of___fladd 106A                                           ?_main 0001  
                                         _CCPR1 000FBE                                           STR_10 FE98  
                                         _CCPR2 000F67                                           STR_11 FE77  
                                         STR_20 FF8C                                           STR_12 FD28  
                                         STR_13 FFB9                                           STR_21 FD78  
                                         STR_30 FFFB                                           STR_14 FFC6  
                                         STR_22 FDF9                                           STR_31 FFFD  
                                         STR_23 FFEA                                           STR_15 FF15  
                                         STR_32 FFB6                                           STR_24 FFE2  
                                         STR_16 FEB8                                           STR_25 FFB7  
                                         STR_41 FFF5                                           STR_17 FFD1  
                                         STR_33 FC30                                           STR_26 FFB7  
                                         STR_34 FFF8                                           STR_18 FF4D  
                                         STR_35 FFB6                                           STR_43 FFF5  
                                         STR_19 FF9C                                           STR_27 FF7B  
                                         STR_36 FFF2                                           STR_28 FA99  
                                         STR_45 FFEF                                           STR_29 FFDA  
                                         STR_38 FFF2                                           STR_47 FFEF  
                               __end_of___flmul 18E2                                 __end_of___flsub 2C14  
                                         ?_utoa 0022                                 __end_of___lodiv 2560  
                                         ?_xtoa 0022                                           _T1CON 000FCD  
                               __end_of___lomod 271A                                  __CFG_DEBUG$OFF 000000  
                                         i2l540 1FB4                                           i2l550 206C  
                                         i2l551 20F6                                           i2l544 201A  
                                         i2l288 2F98                                           i2l547 2048  
                                         i2l595 0038                                    vfpfcnvrt@fmt 004B  
                                  vfpfcnvrt@llu 00AD                                           _TMR1H 000FCF  
                                         _TMR1L 000FCE                       __end_of_setSevenDurations 2D0E  
                                         _TRISA 000F92                                           _TRISB 000F93  
                                         _TRISC 000F94                                   __CFG_WRT0$OFF 000000  
                                 __CFG_WRT1$OFF 000000                                   __CFG_WRT2$OFF 000000  
                                 __CFG_WRT3$OFF 000000                                  __CFG_EBTR0$OFF 000000  
                                __CFG_FCMEN$OFF 000000                                  __CFG_EBTR1$OFF 000000  
                                __CFG_EBTR2$OFF 000000                                  __CFG_EBTR3$OFF 000000  
                                 __CFG_WRTB$OFF 000000                                   __CFG_WRTC$OFF 000000  
                                 __CFG_WRTD$OFF 000000                                  __CFG_EBTRB$OFF 000000  
                                         _flags 0059                                           _fputc 28A2  
                               __end_of_isalpha 2CD4                                           _fputs 2C14  
                             __end_of_ECCP2_ISR 20F8                              __CFG_MCLRE$EXTMCLR 000000  
                                         pad@fp 0017                                           _width 0076  
                                         ctoa@c 0024                                           _putch 2F8A  
                                         ctoa@w 0025                                           main@i 00E8  
                               __end_of_islower 2D46                                  ?_EUSART1_Write 0001  
                       __end_of_TMR1_Initialize 2EB0                                 __end_of_isupper 2D7E  
                                         tablat 000FF5                                  ??_EUSART1_Read 0005  
                                         ttemp5 005C                                           ttemp6 005F  
                                         ttemp7 0063                                           utoa@d 0024  
                                         utoa@i 0040                                           utoa@n 0038  
                                         utoa@p 0034                                           utoa@w 0036  
                                         status 000FD8                                           wtemp8 005C  
                                         xtoa@c 0047                                           xtoa@d 0024  
                                         xtoa@i 0045                                           xtoa@n 003D  
                                         xtoa@p 0039                                           xtoa@w 003B  
                                         xtoa@x 002C                                  __CFG_HFOFST$ON 000000  
                               __end_of_strncmp 264A                                 __end_of_toupper 2A74  
                              ___lodiv@dividend 0005              _EUSART1_DefaultFramingErrorHandler 000000  
                                __CFG_PBADEN$ON 000000                                    _toupper$1991 0011  
                               __initialization 2B26                         __end_of_recordDurations 2470  
                         ??_ECCP_TRIGGER_TOGGLE 0005                                    __end_of_ctoa 2ACE  
                    __end_of_EUSART1_Initialize 2C98                                    __end_of_main 14B8  
                                  __end_of_utoa 1DB6                                    __end_of_xtoa 1BB6  
                          __size_of_binaryPrint 007A                     ?_INTERRUPT_InterruptManager 0001  
                        decodeBits@durationHigh 00E0                                          ??_ctoa 0025  
                                        ??_main 00E3                                          ??_utoa 002C  
                                        ??_xtoa 002D                                   __activetblptr 000003  
                              ___lodiv@quotient 0015                                          ?_fputc 0007  
                                        ?_fputs 0010                                          _CCPR1H 000FBF  
                                        _CCPR2H 000F68                                          _CCPR1L 000FBE  
                                        _CCPR2L 000F67                                          _ANSELA 000F38  
                                        ?_putch 0001                                          _ANSELB 000F39  
                                        _ANSELC 000F3A                                          _T1GCON 000FCC  
                  __size_of_EUSART1_is_rx_ready 0014                                          i2l3500 2012  
                                        i2l4140 0026                                          i2l3502 2022  
                                        i2l4142 0034                                  __CFG_WDTEN$OFF 000000  
                                        i2l3520 2074                                          i2l3504 2026  
                                        i2l4136 000A                                          i2l3506 202C  
                                        i2l4138 0018                                          i2l3508 203C  
                                        i2l3516 2054                                          i2l3524 2084  
                                        i2l3518 2064                                          i2l3526 20BE  
                                        i2l3528 20F4                                          i2l3480 1F6A  
                                        i2l3490 1FA4                                          i2l3492 1FBC  
                                        i2l3484 1F80                                          i2l3494 1FC4  
                                        i2l3486 1F90                                          i2l3496 1FFA  
                                        i2l3488 1FA0                                          i2l3498 200A  
                                        i2l3780 2F94                                          i2l4980 2098  
                                        _RCREG1 000FAE                                          _RCSTA1 000FAB  
                                        _OSCCON 000FD3                                          _PLLRDY 007E97  
                                        _SPBRG1 000FAF                               ??_ECCP_SET_RISING 0005  
                                        _TXREG1 000FAD                                __end_of___xxtofl 1F6A  
                                        _TXSTA1 000FAC                                  __CFG_XINST$OFF 000000  
                          __end_of_generalCases 27E0                                    _CCPTMRS0bits 000F49  
                                  vfprintf@cfmt 0055                                          ___flge 226E  
                                     ??___fladd 0034                     ??_ECCP1_IsCapturedDataReady 0005  
                                __CFG_STVREN$ON 000000                                       ??___flmul 001B  
                                     ??___flsub 0044                                       ??___lodiv 0015  
                                     ??___lomod 0015                        ?_EUSART1_SetErrorHandler 0005  
                                        _memset 20F8                                          clear_0 2B4C  
                                        clear_1 2B58                                          clear_2 2B64  
                                        _printf 2E08                                          pad@buf 0019  
              ??_EUSART1_SetOverrunErrorHandler 0007                 ?_EUSART1_SetOverrunErrorHandler 0005  
                                        ctoa@fp 0022                                          _strlen 2D7E  
                         decodeBits@printBinary 00D9                                          fputc@c 0007  
                    __size_of_setSevenDurations 003A                                          fputs@c 0014  
                                        fputs@i 0015                                          fputs@s 0010  
                                     ??_isalpha 0007                                recordDurations@i 00DC  
                             ?_ECCP2_CompareISR 0001                                       ??_islower 0007  
                                  __mediumconst FA98                                          tblptrh 000FF7  
                                     ??_isupper 0007                                          tblptrl 000FF6  
                                        tblptru 000FF8                          __size_of_initializeAll 0058  
                            ??_ECCP2_CompareISR 0005                                __end_of_vfprintf 2A16  
                               ??_EUSART1_Write 0005                                          utoa@fp 0022  
                             ?_ECCP1_Initialize 0001                                          xtoa@fp 0022  
                                     ??_strncmp 000B                                       ??_toupper 000D  
                 __size_of_INTERRUPT_Initialize 0004                                      ___flge@ff1 0044  
                                    ___flge@ff2 0048                                ?_TMR1_Initialize 0001  
                                  ___xxtofl@arg 000F                                    ___xxtofl@exp 000E  
                             _SYSTEM_Initialize 2E76                                    ___xxtofl@val 0005  
                            ??_ECCP1_Initialize 0005                                      __accesstop 0060  
                       __end_of__initialization 2B72                              ?_SYSTEM_Initialize 0001  
                                  _decodedValue 0070                                   ___rparam_used 000001  
                                __pcstackCOMRAM 0001                                ?_recordDurations 0001  
                                  __pidataBANK0 2F4A                             ??_SYSTEM_Initialize 0007  
                             ?_ECCP2_Initialize 0001                                    _bitDurations 0100  
                                 __end_of_fputc 2938                                   __end_of_fputs 2C58  
                              ECCP2_ISR@sentLow 0084                                   __end_of_putch 2F94  
                            ??_ECCP2_Initialize 0005                            __end_of_EUSART1_Read 2E08  
                     _ECCP1_IsCapturedDataReady 2EFA                                         ??_fputc 000B  
                     __end_of_SYSTEM_Initialize 2E94                                         ??_fputs 0014  
                                       ??_putch 0006                                      _decodeBits 0040  
                                    __pbssBANK0 0060                                      __pbssBANK1 0100  
                                    __pbssBANK2 0200                                 __CFG_PLLCFG$OFF 000000  
                                ECCP2_ISR@state 0086                 __end_of_EUSART1_SetErrorHandler 2F8A  
                            __CFG_CCP2MX$PORTC1 000000                                      _captureOne 2E30  
                                 _initializeAll 2ACE                                         ?___flge 0044  
                            __CFG_CCP3MX$PORTB5 000000                                         _CCP1CON 000FBD  
                                       _CCP2CON 000F66                               ?_ECCP_SET_FALLING 0001  
                                       ?_memset 0005                                         ?_printf 00BB  
                                       ?_strlen 0005          __end_of_EUSART1_SetFramingErrorHandler 2F80  
       __size_of_EUSART1_SetFramingErrorHandler 000A                  _EUSART1_SetFramingErrorHandler 2F76  
                            ??_ECCP_SET_FALLING 0005                                       ?___xxtofl 0005  
                            __size_of_printMenu 0014                     __end_of_printSevenDurations 2BCE  
                                       _OSCCON2 000FD2                              __size_of_vfpfcnvrt 04EC  
                                       _OSCTUNE 000F9B                                         _SPBRGH1 000FB0  
                              ___lomod@dividend 0005                           __size_of_generalCases 00C6  
                                     _ECCP2_ISR 1F6A                                 __CFG_PWRTEN$OFF 000000  
                                       __Hparam 0000                                  ?_initializeAll 0001  
                                       __Lparam 0000                                 __size_of___flge 0104  
                                       ___fladd 0BAA                                         ___flmul 14B8  
                                       ___flsub 2BCE                                         ___lodiv 2470  
                                       ___lomod 264A                                       ?_vfprintf 00B5  
                           _EUSART1_is_rx_ready 2F36                                         __pcinit 2B26  
                               __size_of_memset 0176                                         __ramtop 1000  
                                       __ptext0 106A                                         __ptext1 2CD4  
                                       __ptext2 2372                                         __ptext3 2E30  
                                       __ptext4 2E54                                         __ptext5 2F58  
                                       __ptext6 2F62                                         __ptext7 2EFA  
                                       __ptext8 20F8                                         __ptext9 2ACE  
                                       _negEdge 0089                                 __size_of_printf 0028  
                               __size_of_strlen 0036                                       _T1CONbits 000FCD  
                         _OSCILLATOR_Initialize 2EB0                                    __size_of_pad 00C2  
                                       _isalpha 2C98                                      ??___xxtofl 0009  
                            _EUSART1_Initialize 2C58                                 _ECCP_SET_RISING 2F58  
                                       _islower 2D0E                        ??_PIN_MANAGER_Initialize 0005  
                                       _posEdge 008A                                         _isupper 2D46  
                                  _generalCases 271A                                         main@cmd 00E7  
                    __size_of_SYSTEM_Initialize 001E                                         _strncmp 2560  
                                       _toupper 2A16                            end_of_initialization 2B72  
                                   ?_decodeBits 00D1                            ?_EUSART1_is_rx_ready 0001  
                           ?_EUSART1_Initialize 0001                                         fputc@fp 0009  
                                       memset@c 0007                                         memset@k 000D  
                                       memset@n 0009                                         memset@s 000F  
                   _EUSART1_OverrunErrorHandler 007E                                         fputs@fp 0012  
                                    ?_ECCP2_ISR 0001                     __end_of_ECCP_TRIGGER_TOGGLE 2E76  
                             __end_of_printMenu 2F36                                     ?_captureOne 0001  
                                 ??_binaryPrint 00D5                               __end_of_vfpfcnvrt 0BAA  
                                       postdec1 000FE5                                         postdec2 000FDD  
                                       postinc0 000FEE                                         postinc1 000FE6  
                                       postinc2 000FDE                           __size_of_EUSART1_Read 002A  
                                    ??_vfprintf 0055                            ??_EUSART1_Initialize 0007  
                                       strlen@a 0007                                         strlen@s 0005  
                                   ___fladd@grs 003B                                   ___xxtofl@sign 000D  
              __size_of_EUSART1_SetErrorHandler 000A                             EUSART1_Write@txData 0005  
                         ??_EUSART1_is_rx_ready 0005                                     ___flmul@grs 0020  
                                   _CCP1CONbits 000FBD                                    _EUSART1_Read 2DDE  
                                   _CCP2CONbits 000F66                                 ??_initializeAll 0057  
                     __size_of_ECCP2_CompareISR 0006                       __size_of_ECCP1_Initialize 0014  
                  __end_of_INTERRUPT_Initialize 2F9E                                  __end_of___flge 2372  
                                   vfpfcnvrt@ap 004D                                     vfpfcnvrt@fp 0049  
                       __end_of_ECCP_SET_RISING 2F62                             __size_of_decodeBits 067E  
                           __end_of_binaryPrint 29B2                          ?_OSCILLATOR_Initialize 0001  
                                __end_of_memset 226E                               ECCP2_ISR@shiftMag 0085  
                                __end_of_printf 2E30                                  __end_of_strlen 2DB4  
                           start_initialization 2B26                                 ___lodiv@divisor 000D  
                               ___lodiv@counter 001D                          recordDurations@verbose 00DB  
               __size_of_PIN_MANAGER_Initialize 002A                                     __end_of_pad 28A2  
                           __size_of_captureOne 0024                       __size_of_ECCP2_Initialize 0018  
                                   putch@txData 0006                           __end_of_EUSART1_Write 2EFA  
                                   ??_ECCP2_ISR 0001                        __size_of_TMR1_Initialize 001C  
                                   vfprintf@fmt 00B7                                        ??___flge 004C  
                                   __pdataBANK0 00E9                                        ??_memset 000B  
                                    memset@dest 0005                                        ??_printf 0057  
                                      ??_strlen 0007                        __size_of_recordDurations 00FE  
                                     ___fladd@a 0030                                       ___fladd@b 002C  
                                     ___flmul@a 0017                                       ___flmul@b 0013  
                                   __pbssCOMRAM 0057                                       ___flsub@a 0040  
                                     ___flsub@b 003C                                   __pcstackBANK0 00AC  
                             __size_of___xxtofl 01B4                       __size_of_ECCP_SET_FALLING 000A  
              ??_EUSART1_SetFramingErrorHandler 0007                 ?_EUSART1_SetFramingErrorHandler 0005  
                                     _bitCounts 0200                          _PIN_MANAGER_Initialize 2DB4  
                                   _binaryPrint 2938                                       __pintcode 0008  
                                 __pmediumconst FA98                                        ?___fladd 002C  
                                      ?___flmul 0013                                        ?___flsub 003C  
                                      ?___lodiv 0005                                        ?___lomod 0005  
                              ?_ECCP_SET_RISING 0001                    ??_INTERRUPT_InterruptManager 0005  
                              __CFG_PRICLKEN$ON 000000                               __size_of_vfprintf 0064  
                               ___lomod@divisor 000D                                 ___lomod@counter 0015  
                                      _BAUDCON1 000FB8              _EUSART1_DefaultOverrunErrorHandler 000000  
                                      ?_isalpha 0005                            _EUSART1_ErrorHandler 007C  
                                      ?_islower 0005                                        ?_isupper 0005  
                       _EUSART1_SetErrorHandler 2F80                                  __size_of_fputc 0096  
                                __size_of_fputs 0044                                        ?_strncmp 0005  
                                      ?_toupper 000B                                    ??_decodeBits 00D5  
                                __size_of_putch 000A                            _INTERRUPT_Initialize 2F9A  
                  __size_of_printSevenDurations 0052         EUSART1_SetErrorHandler@interruptHandler 0005  
                              _ECCP2_CompareISR 2F94                                        _PIE2bits 000FA0  
                                      i2u310_40 200A                                        i2u310_41 2006  
                                      i2u311_40 203C                                        i2u311_41 2038  
           __size_of_INTERRUPT_InterruptManager 0034                                        i2u312_40 2064  
                                      i2u312_41 2060                                        i2u313_45 20DC  
                                      i2u306_40 1F7C                                        i2u306_41 1F78  
                                      i2u307_40 1FA0                                        i2u307_41 1F9C  
                                      i2u308_40 1FE6                                        i2u308_45 1FDC  
                                      i2u309_40 1FFA                                        i2u309_41 1FF6  
                                      _PIR1bits 000F9E                                        _PIR2bits 000FA1  
                                  ??_captureOne 0005                                        i2u390_40 0034  
                                      i2u390_41 0030                                        i2u388_40 0018  
                                      i2u388_41 0014                                        i2u389_40 0026  
                                      i2u389_41 0022                                        _RCONbits 000FD0  
                              __CFG_WDTPS$32768 000000                                _ECCP1_Initialize 2F0E  
                                     _tmrCounts 007A                                       _printMenu 2F22  
                                     _vfpfcnvrt 06BE                                       _xtoa$1433 0035  
                                     _xtoa$1434 0037                               ??_TMR1_Initialize 0005  
                            __end_of_decodeBits 06BE                            _transmittingFinished 0087  
                              _ECCP2_Initialize 2ECC                                      vfpfcnvrt@c 00AC  
                             ??_recordDurations 00D1                                     _INTCON2bits 000FF1  
                            __end_of_captureOne 2E54                                       copy_data0 2B3A  
                         ?_INTERRUPT_Initialize 0001                                        __Hrparam 0000  
                                    vfprintf@ap 00B9                                        __Lrparam 0000  
                                    vfprintf@fp 00B5                              __CFG_BOREN$SBORDIS 000000  
                             __CFG_P2BMX$PORTB5 000000                    __size_of_ECCP_TRIGGER_TOGGLE 0022  
                       ??_OSCILLATOR_Initialize 0005                                      ?_printMenu 0001  
                              __size_of___fladd 04C0                                __size_of___flmul 042A  
                                  binaryPrint@i 00D9                                     decodeBits@i 00E2  
                              __size_of___flsub 0046                                __size_of___lodiv 00F0  
                              __size_of___lomod 00D0                     __size_of_EUSART1_Initialize 0040  
                                    ?_vfpfcnvrt 0049                             _buttonSequenceCodes 0184  
                     ??_EUSART1_SetErrorHandler 0007                     _EUSART1_DefaultErrorHandler 000000  
                   __end_of_EUSART1_is_rx_ready 2F4A                                        ___xxtofl 1DB6  
                              __size_of_isalpha 003C                                __size_of_islower 0038  
                                      __ptext10 2E76                                        __ptext11 2E94  
                                      __ptext20 2F0E                                        __ptext12 2DB4  
                                      __ptext21 271A                                        __ptext13 2EB0  
                                    _T1GCONbits 000FCC                                        __ptext30 2938  
                                      __ptext22 2F22                                        __ptext14 2F9A  
                                      __ptext31 2E08                                        __ptext23 2B7C  
                                      __ptext15 2C58                                        __ptext40 264A  
                                      __ptext32 29B2                                        __ptext24 0040  
                                      __ptext16 2F6C                                        __ptext41 2470  
                                      __ptext33 06BE                                        __ptext25 1DB6  
                                      __ptext17 2F76                                        __ptext50 2F36  
                                      __ptext42 2560                                        __ptext34 18E2  
                                      __ptext26 2BCE                                        __ptext18 2F80  
                                      __ptext51 2DDE                                        __ptext43 2A74  
                                      __ptext35 2A16                                        __ptext27 0BAA  
                                      __ptext19 2ECC                                        __ptext44 27E0  
                                      __ptext36 2D0E                                        __ptext28 14B8  
                                      __ptext53 2F94                                        __ptext45 2D7E  
                                      __ptext37 2D46                                        __ptext29 226E  
                                      __ptext54 1F6A                                        __ptext46 2C14  
                                      __ptext38 2C98                                        __ptext47 28A2  
                                      __ptext39 1BB6                                        __ptext48 2F8A  
                                      __ptext49 2EE4                                __size_of_isupper 0038  
                              _ECCP_SET_FALLING 2F62                                __size_of_strncmp 00EA  
                              __size_of_toupper 005E                                   __size_of_ctoa 005A  
                                 __size_of_main 044E                                   __size_of_utoa 0200  
                                 __size_of_xtoa 02D4                           __end_of_initializeAll 2B26  
EUSART1_SetOverrunErrorHandler@interruptHandler 0005                                        int$flags 005B  
                                      _vfprintf 29B2              __end_of_INTERRUPT_InterruptManager 003C  
                    _INTERRUPT_InterruptManager 0008                                       printf@fmt 00BB  
                   _EUSART1_FramingErrorHandler 0080                                      _INTCONbits 000FF2  
                                      isalpha@c 0005                          ??_INTERRUPT_Initialize 0005  
                                      intlevel2 0000                                        islower@c 0005  
                       ?_PIN_MANAGER_Initialize 0001          __end_of_EUSART1_SetOverrunErrorHandler 2F76  
       __size_of_EUSART1_SetOverrunErrorHandler 000A                  _EUSART1_SetOverrunErrorHandler 2F6C  
                                    _RCSTA1bits 000FAB                                        isupper@c 0005  
                                     strncmp@_l 0005                                       strncmp@_r 0007  
            __size_of_ECCP1_IsCapturedDataReady 0014                                    ?_binaryPrint 00D1  
                    ?_ECCP1_IsCapturedDataReady 0001                                        printf@ap 00CF  
                          decodeBits@decodedVal 00DA  EUSART1_SetFramingErrorHandler@interruptHandler 0005  
                                   ??_printMenu 0057                               _numberButtonCodes 0060  
                                   ??_vfpfcnvrt 004F                           ECCP2_ISR@waitDuration 0078  
                           _printSevenDurations 2B7C                          __size_of_EUSART1_Write 0016  
                            _eusart1RxLastError 008B                        __end_of_ECCP2_CompareISR 2F9A  
                                      strncmp@l 000C                                        strncmp@n 0009  
                                      strncmp@r 000E                                        toupper@c 000B  
                                 ?_generalCases 0001                               __CFG_T3CMX$PORTC0 000000  
                      __end_of_ECCP1_Initialize 2F22                                   ___fladd@signs 0038  
                __end_of_PIN_MANAGER_Initialize 2DDE                            ?_printSevenDurations 0001  
                                  ___fladd@aexp 0039                                    ___fladd@bexp 003A  
                             __CFG_FOSC$INTIO67 000000                                 _TMR1_Initialize 2E94  
                              binaryPrint@value 00D1  
